ARM GAS  /var/folders/vr/85797ndx6jd_r3n_lsprlrj40000gn/T//ccWMqnSu.s 			page 1


   1              		.cpu cortex-m0
   2              		.eabi_attribute 20, 1
   3              		.eabi_attribute 21, 1
   4              		.eabi_attribute 23, 3
   5              		.eabi_attribute 24, 1
   6              		.eabi_attribute 25, 1
   7              		.eabi_attribute 26, 1
   8              		.eabi_attribute 30, 2
   9              		.eabi_attribute 34, 0
  10              		.eabi_attribute 18, 4
  11              		.file	"stm32f0xx_hal_rtc.c"
  12              		.text
  13              	.Ltext0:
  14              		.cfi_sections	.debug_frame
  15              		.section	.text.HAL_RTC_MspInit,"ax",%progbits
  16              		.align	1
  17              		.p2align 2,,3
  18              		.weak	HAL_RTC_MspInit
  19              		.arch armv6s-m
  20              		.syntax unified
  21              		.code	16
  22              		.thumb_func
  23              		.fpu softvfp
  25              	HAL_RTC_MspInit:
  26              	.LVL0:
  27              	.LFB39:
  28              		.file 1 "Drivers/STM32F0xx_HAL_Driver/Src/stm32f0xx_hal_rtc.c"
   1:Drivers/STM32F0xx_HAL_Driver/Src/stm32f0xx_hal_rtc.c **** /**
   2:Drivers/STM32F0xx_HAL_Driver/Src/stm32f0xx_hal_rtc.c ****   ******************************************************************************
   3:Drivers/STM32F0xx_HAL_Driver/Src/stm32f0xx_hal_rtc.c ****   * @file    stm32f0xx_hal_rtc.c
   4:Drivers/STM32F0xx_HAL_Driver/Src/stm32f0xx_hal_rtc.c ****   * @author  MCD Application Team
   5:Drivers/STM32F0xx_HAL_Driver/Src/stm32f0xx_hal_rtc.c ****   * @brief   RTC HAL module driver.
   6:Drivers/STM32F0xx_HAL_Driver/Src/stm32f0xx_hal_rtc.c ****   *          This file provides firmware functions to manage the following 
   7:Drivers/STM32F0xx_HAL_Driver/Src/stm32f0xx_hal_rtc.c ****   *          functionalities of the Real Time Clock (RTC) peripheral:
   8:Drivers/STM32F0xx_HAL_Driver/Src/stm32f0xx_hal_rtc.c ****   *           + Initialization and de-initialization functions
   9:Drivers/STM32F0xx_HAL_Driver/Src/stm32f0xx_hal_rtc.c ****   *           + RTC Time and Date functions
  10:Drivers/STM32F0xx_HAL_Driver/Src/stm32f0xx_hal_rtc.c ****   *           + RTC Alarm functions
  11:Drivers/STM32F0xx_HAL_Driver/Src/stm32f0xx_hal_rtc.c ****   *           + Peripheral Control functions   
  12:Drivers/STM32F0xx_HAL_Driver/Src/stm32f0xx_hal_rtc.c ****   *           + Peripheral State functions
  13:Drivers/STM32F0xx_HAL_Driver/Src/stm32f0xx_hal_rtc.c ****   *         
  14:Drivers/STM32F0xx_HAL_Driver/Src/stm32f0xx_hal_rtc.c ****   @verbatim
  15:Drivers/STM32F0xx_HAL_Driver/Src/stm32f0xx_hal_rtc.c ****   ==============================================================================
  16:Drivers/STM32F0xx_HAL_Driver/Src/stm32f0xx_hal_rtc.c ****                   ##### How to use RTC Driver #####
  17:Drivers/STM32F0xx_HAL_Driver/Src/stm32f0xx_hal_rtc.c ****  ===================================================================
  18:Drivers/STM32F0xx_HAL_Driver/Src/stm32f0xx_hal_rtc.c ****     [..] 
  19:Drivers/STM32F0xx_HAL_Driver/Src/stm32f0xx_hal_rtc.c ****         (+) Enable the RTC domain access (see description in the section above).
  20:Drivers/STM32F0xx_HAL_Driver/Src/stm32f0xx_hal_rtc.c ****         (+) Configure the RTC Prescaler (Asynchronous and Synchronous) and RTC hour 
  21:Drivers/STM32F0xx_HAL_Driver/Src/stm32f0xx_hal_rtc.c ****             format using the HAL_RTC_Init() function.
  22:Drivers/STM32F0xx_HAL_Driver/Src/stm32f0xx_hal_rtc.c ****   
  23:Drivers/STM32F0xx_HAL_Driver/Src/stm32f0xx_hal_rtc.c ****     *** Time and Date configuration ***
  24:Drivers/STM32F0xx_HAL_Driver/Src/stm32f0xx_hal_rtc.c ****     ===================================
  25:Drivers/STM32F0xx_HAL_Driver/Src/stm32f0xx_hal_rtc.c ****     [..] 
  26:Drivers/STM32F0xx_HAL_Driver/Src/stm32f0xx_hal_rtc.c ****         (+) To configure the RTC Calendar (Time and Date) use the HAL_RTC_SetTime() 
  27:Drivers/STM32F0xx_HAL_Driver/Src/stm32f0xx_hal_rtc.c ****             and HAL_RTC_SetDate() functions.
  28:Drivers/STM32F0xx_HAL_Driver/Src/stm32f0xx_hal_rtc.c ****         (+) To read the RTC Calendar, use the HAL_RTC_GetTime() and HAL_RTC_GetDate() functions. 
  29:Drivers/STM32F0xx_HAL_Driver/Src/stm32f0xx_hal_rtc.c ****   
  30:Drivers/STM32F0xx_HAL_Driver/Src/stm32f0xx_hal_rtc.c ****     *** Alarm configuration ***
ARM GAS  /var/folders/vr/85797ndx6jd_r3n_lsprlrj40000gn/T//ccWMqnSu.s 			page 2


  31:Drivers/STM32F0xx_HAL_Driver/Src/stm32f0xx_hal_rtc.c ****     ===========================
  32:Drivers/STM32F0xx_HAL_Driver/Src/stm32f0xx_hal_rtc.c ****     [..]
  33:Drivers/STM32F0xx_HAL_Driver/Src/stm32f0xx_hal_rtc.c ****     (+) To configure the RTC Alarm use the HAL_RTC_SetAlarm() function.
  34:Drivers/STM32F0xx_HAL_Driver/Src/stm32f0xx_hal_rtc.c ****             You can also configure the RTC Alarm with interrupt mode using the 
  35:Drivers/STM32F0xx_HAL_Driver/Src/stm32f0xx_hal_rtc.c ****             HAL_RTC_SetAlarm_IT() function.
  36:Drivers/STM32F0xx_HAL_Driver/Src/stm32f0xx_hal_rtc.c ****         (+) To read the RTC Alarm, use the HAL_RTC_GetAlarm() function.
  37:Drivers/STM32F0xx_HAL_Driver/Src/stm32f0xx_hal_rtc.c **** 
  38:Drivers/STM32F0xx_HAL_Driver/Src/stm32f0xx_hal_rtc.c ****                   ##### RTC and low power modes #####
  39:Drivers/STM32F0xx_HAL_Driver/Src/stm32f0xx_hal_rtc.c ****  ===================================================================
  40:Drivers/STM32F0xx_HAL_Driver/Src/stm32f0xx_hal_rtc.c ****     [..] The MCU can be woken up from a low power mode by an RTC alternate 
  41:Drivers/STM32F0xx_HAL_Driver/Src/stm32f0xx_hal_rtc.c ****          function.
  42:Drivers/STM32F0xx_HAL_Driver/Src/stm32f0xx_hal_rtc.c ****     [..] The RTC alternate functions are the RTC alarm (Alarm A), 
  43:Drivers/STM32F0xx_HAL_Driver/Src/stm32f0xx_hal_rtc.c ****          RTC wake-up, RTC tamper event detection and RTC time stamp event detection.
  44:Drivers/STM32F0xx_HAL_Driver/Src/stm32f0xx_hal_rtc.c ****          These RTC alternate functions can wake up the system from the Stop and 
  45:Drivers/STM32F0xx_HAL_Driver/Src/stm32f0xx_hal_rtc.c ****          Standby low power modes.
  46:Drivers/STM32F0xx_HAL_Driver/Src/stm32f0xx_hal_rtc.c ****     [..] The system can also wake up from low power modes without depending 
  47:Drivers/STM32F0xx_HAL_Driver/Src/stm32f0xx_hal_rtc.c ****          on an external interrupt (Auto-wake-up mode), by using the RTC alarm 
  48:Drivers/STM32F0xx_HAL_Driver/Src/stm32f0xx_hal_rtc.c ****          or the RTC wake-up events.
  49:Drivers/STM32F0xx_HAL_Driver/Src/stm32f0xx_hal_rtc.c ****     [..] The RTC provides a programmable time base for waking up from the 
  50:Drivers/STM32F0xx_HAL_Driver/Src/stm32f0xx_hal_rtc.c ****          Stop or Standby mode at regular intervals.
  51:Drivers/STM32F0xx_HAL_Driver/Src/stm32f0xx_hal_rtc.c ****          Wake-up from STOP and STANDBY modes is possible only when the RTC clock source
  52:Drivers/STM32F0xx_HAL_Driver/Src/stm32f0xx_hal_rtc.c ****          is LSE or LSI.
  53:Drivers/STM32F0xx_HAL_Driver/Src/stm32f0xx_hal_rtc.c ****      
  54:Drivers/STM32F0xx_HAL_Driver/Src/stm32f0xx_hal_rtc.c ****   @endverbatim
  55:Drivers/STM32F0xx_HAL_Driver/Src/stm32f0xx_hal_rtc.c ****   ******************************************************************************
  56:Drivers/STM32F0xx_HAL_Driver/Src/stm32f0xx_hal_rtc.c ****   * @attention
  57:Drivers/STM32F0xx_HAL_Driver/Src/stm32f0xx_hal_rtc.c ****   *
  58:Drivers/STM32F0xx_HAL_Driver/Src/stm32f0xx_hal_rtc.c ****   * <h2><center>&copy; COPYRIGHT(c) 2016 STMicroelectronics</center></h2>
  59:Drivers/STM32F0xx_HAL_Driver/Src/stm32f0xx_hal_rtc.c ****   *
  60:Drivers/STM32F0xx_HAL_Driver/Src/stm32f0xx_hal_rtc.c ****   * Redistribution and use in source and binary forms, with or without modification,
  61:Drivers/STM32F0xx_HAL_Driver/Src/stm32f0xx_hal_rtc.c ****   * are permitted provided that the following conditions are met:
  62:Drivers/STM32F0xx_HAL_Driver/Src/stm32f0xx_hal_rtc.c ****   *   1. Redistributions of source code must retain the above copyright notice,
  63:Drivers/STM32F0xx_HAL_Driver/Src/stm32f0xx_hal_rtc.c ****   *      this list of conditions and the following disclaimer.
  64:Drivers/STM32F0xx_HAL_Driver/Src/stm32f0xx_hal_rtc.c ****   *   2. Redistributions in binary form must reproduce the above copyright notice,
  65:Drivers/STM32F0xx_HAL_Driver/Src/stm32f0xx_hal_rtc.c ****   *      this list of conditions and the following disclaimer in the documentation
  66:Drivers/STM32F0xx_HAL_Driver/Src/stm32f0xx_hal_rtc.c ****   *      and/or other materials provided with the distribution.
  67:Drivers/STM32F0xx_HAL_Driver/Src/stm32f0xx_hal_rtc.c ****   *   3. Neither the name of STMicroelectronics nor the names of its contributors
  68:Drivers/STM32F0xx_HAL_Driver/Src/stm32f0xx_hal_rtc.c ****   *      may be used to endorse or promote products derived from this software
  69:Drivers/STM32F0xx_HAL_Driver/Src/stm32f0xx_hal_rtc.c ****   *      without specific prior written permission.
  70:Drivers/STM32F0xx_HAL_Driver/Src/stm32f0xx_hal_rtc.c ****   *
  71:Drivers/STM32F0xx_HAL_Driver/Src/stm32f0xx_hal_rtc.c ****   * THIS SOFTWARE IS PROVIDED BY THE COPYRIGHT HOLDERS AND CONTRIBUTORS "AS IS"
  72:Drivers/STM32F0xx_HAL_Driver/Src/stm32f0xx_hal_rtc.c ****   * AND ANY EXPRESS OR IMPLIED WARRANTIES, INCLUDING, BUT NOT LIMITED TO, THE
  73:Drivers/STM32F0xx_HAL_Driver/Src/stm32f0xx_hal_rtc.c ****   * IMPLIED WARRANTIES OF MERCHANTABILITY AND FITNESS FOR A PARTICULAR PURPOSE ARE
  74:Drivers/STM32F0xx_HAL_Driver/Src/stm32f0xx_hal_rtc.c ****   * DISCLAIMED. IN NO EVENT SHALL THE COPYRIGHT HOLDER OR CONTRIBUTORS BE LIABLE
  75:Drivers/STM32F0xx_HAL_Driver/Src/stm32f0xx_hal_rtc.c ****   * FOR ANY DIRECT, INDIRECT, INCIDENTAL, SPECIAL, EXEMPLARY, OR CONSEQUENTIAL
  76:Drivers/STM32F0xx_HAL_Driver/Src/stm32f0xx_hal_rtc.c ****   * DAMAGES (INCLUDING, BUT NOT LIMITED TO, PROCUREMENT OF SUBSTITUTE GOODS OR
  77:Drivers/STM32F0xx_HAL_Driver/Src/stm32f0xx_hal_rtc.c ****   * SERVICES; LOSS OF USE, DATA, OR PROFITS; OR BUSINESS INTERRUPTION) HOWEVER
  78:Drivers/STM32F0xx_HAL_Driver/Src/stm32f0xx_hal_rtc.c ****   * CAUSED AND ON ANY THEORY OF LIABILITY, WHETHER IN CONTRACT, STRICT LIABILITY,
  79:Drivers/STM32F0xx_HAL_Driver/Src/stm32f0xx_hal_rtc.c ****   * OR TORT (INCLUDING NEGLIGENCE OR OTHERWISE) ARISING IN ANY WAY OUT OF THE USE
  80:Drivers/STM32F0xx_HAL_Driver/Src/stm32f0xx_hal_rtc.c ****   * OF THIS SOFTWARE, EVEN IF ADVISED OF THE POSSIBILITY OF SUCH DAMAGE.
  81:Drivers/STM32F0xx_HAL_Driver/Src/stm32f0xx_hal_rtc.c ****   *
  82:Drivers/STM32F0xx_HAL_Driver/Src/stm32f0xx_hal_rtc.c ****   ******************************************************************************  
  83:Drivers/STM32F0xx_HAL_Driver/Src/stm32f0xx_hal_rtc.c ****   */
  84:Drivers/STM32F0xx_HAL_Driver/Src/stm32f0xx_hal_rtc.c **** 
  85:Drivers/STM32F0xx_HAL_Driver/Src/stm32f0xx_hal_rtc.c **** /* Includes ------------------------------------------------------------------*/
  86:Drivers/STM32F0xx_HAL_Driver/Src/stm32f0xx_hal_rtc.c **** #include "stm32f0xx_hal.h"
  87:Drivers/STM32F0xx_HAL_Driver/Src/stm32f0xx_hal_rtc.c **** 
ARM GAS  /var/folders/vr/85797ndx6jd_r3n_lsprlrj40000gn/T//ccWMqnSu.s 			page 3


  88:Drivers/STM32F0xx_HAL_Driver/Src/stm32f0xx_hal_rtc.c **** /** @addtogroup STM32F0xx_HAL_Driver
  89:Drivers/STM32F0xx_HAL_Driver/Src/stm32f0xx_hal_rtc.c ****   * @{
  90:Drivers/STM32F0xx_HAL_Driver/Src/stm32f0xx_hal_rtc.c ****   */
  91:Drivers/STM32F0xx_HAL_Driver/Src/stm32f0xx_hal_rtc.c **** 
  92:Drivers/STM32F0xx_HAL_Driver/Src/stm32f0xx_hal_rtc.c **** /** @addtogroup RTC
  93:Drivers/STM32F0xx_HAL_Driver/Src/stm32f0xx_hal_rtc.c ****   * @brief RTC HAL module driver
  94:Drivers/STM32F0xx_HAL_Driver/Src/stm32f0xx_hal_rtc.c ****   * @{
  95:Drivers/STM32F0xx_HAL_Driver/Src/stm32f0xx_hal_rtc.c ****   */
  96:Drivers/STM32F0xx_HAL_Driver/Src/stm32f0xx_hal_rtc.c **** 
  97:Drivers/STM32F0xx_HAL_Driver/Src/stm32f0xx_hal_rtc.c **** #ifdef HAL_RTC_MODULE_ENABLED
  98:Drivers/STM32F0xx_HAL_Driver/Src/stm32f0xx_hal_rtc.c **** 
  99:Drivers/STM32F0xx_HAL_Driver/Src/stm32f0xx_hal_rtc.c **** /* Private typedef -----------------------------------------------------------*/
 100:Drivers/STM32F0xx_HAL_Driver/Src/stm32f0xx_hal_rtc.c **** /* Private define ------------------------------------------------------------*/
 101:Drivers/STM32F0xx_HAL_Driver/Src/stm32f0xx_hal_rtc.c **** /* Private macro -------------------------------------------------------------*/
 102:Drivers/STM32F0xx_HAL_Driver/Src/stm32f0xx_hal_rtc.c **** /* Private variables ---------------------------------------------------------*/
 103:Drivers/STM32F0xx_HAL_Driver/Src/stm32f0xx_hal_rtc.c **** /* Private function prototypes -----------------------------------------------*/
 104:Drivers/STM32F0xx_HAL_Driver/Src/stm32f0xx_hal_rtc.c **** /* Exported functions ---------------------------------------------------------*/
 105:Drivers/STM32F0xx_HAL_Driver/Src/stm32f0xx_hal_rtc.c **** 
 106:Drivers/STM32F0xx_HAL_Driver/Src/stm32f0xx_hal_rtc.c **** /** @addtogroup RTC_Exported_Functions
 107:Drivers/STM32F0xx_HAL_Driver/Src/stm32f0xx_hal_rtc.c ****   * @{
 108:Drivers/STM32F0xx_HAL_Driver/Src/stm32f0xx_hal_rtc.c ****   */
 109:Drivers/STM32F0xx_HAL_Driver/Src/stm32f0xx_hal_rtc.c ****   
 110:Drivers/STM32F0xx_HAL_Driver/Src/stm32f0xx_hal_rtc.c **** /** @addtogroup RTC_Exported_Functions_Group1
 111:Drivers/STM32F0xx_HAL_Driver/Src/stm32f0xx_hal_rtc.c ****  *  @brief    Initialization and Configuration functions 
 112:Drivers/STM32F0xx_HAL_Driver/Src/stm32f0xx_hal_rtc.c ****  *
 113:Drivers/STM32F0xx_HAL_Driver/Src/stm32f0xx_hal_rtc.c **** @verbatim    
 114:Drivers/STM32F0xx_HAL_Driver/Src/stm32f0xx_hal_rtc.c ****  ===============================================================================
 115:Drivers/STM32F0xx_HAL_Driver/Src/stm32f0xx_hal_rtc.c ****               ##### Initialization and de-initialization functions #####
 116:Drivers/STM32F0xx_HAL_Driver/Src/stm32f0xx_hal_rtc.c ****  ===============================================================================
 117:Drivers/STM32F0xx_HAL_Driver/Src/stm32f0xx_hal_rtc.c ****    [..] This section provides functions allowing to initialize and configure the 
 118:Drivers/STM32F0xx_HAL_Driver/Src/stm32f0xx_hal_rtc.c ****          RTC Prescaler (Synchronous and Asynchronous), RTC Hour format, disable 
 119:Drivers/STM32F0xx_HAL_Driver/Src/stm32f0xx_hal_rtc.c ****          RTC registers Write protection, enter and exit the RTC initialization mode, 
 120:Drivers/STM32F0xx_HAL_Driver/Src/stm32f0xx_hal_rtc.c ****          RTC registers synchronization check and reference clock detection enable.
 121:Drivers/STM32F0xx_HAL_Driver/Src/stm32f0xx_hal_rtc.c ****          (#) The RTC Prescaler is programmed to generate the RTC 1Hz time base. 
 122:Drivers/STM32F0xx_HAL_Driver/Src/stm32f0xx_hal_rtc.c ****              It is split into 2 programmable prescalers to minimize power consumption.
 123:Drivers/STM32F0xx_HAL_Driver/Src/stm32f0xx_hal_rtc.c ****              (++) A 7-bit asynchronous prescaler and a 15-bit synchronous prescaler.
 124:Drivers/STM32F0xx_HAL_Driver/Src/stm32f0xx_hal_rtc.c ****              (++) When both prescalers are used, it is recommended to configure the 
 125:Drivers/STM32F0xx_HAL_Driver/Src/stm32f0xx_hal_rtc.c ****                  asynchronous prescaler to a high value to minimize power consumption.
 126:Drivers/STM32F0xx_HAL_Driver/Src/stm32f0xx_hal_rtc.c ****          (#) All RTC registers are Write protected. Writing to the RTC registers
 127:Drivers/STM32F0xx_HAL_Driver/Src/stm32f0xx_hal_rtc.c ****              is enabled by writing a key into the Write Protection register, RTC_WPR.
 128:Drivers/STM32F0xx_HAL_Driver/Src/stm32f0xx_hal_rtc.c ****          (#) To configure the RTC Calendar, user application should enter 
 129:Drivers/STM32F0xx_HAL_Driver/Src/stm32f0xx_hal_rtc.c ****              initialization mode. In this mode, the calendar counter is stopped 
 130:Drivers/STM32F0xx_HAL_Driver/Src/stm32f0xx_hal_rtc.c ****              and its value can be updated. When the initialization sequence is 
 131:Drivers/STM32F0xx_HAL_Driver/Src/stm32f0xx_hal_rtc.c ****              complete, the calendar restarts counting after 4 RTCCLK cycles.
 132:Drivers/STM32F0xx_HAL_Driver/Src/stm32f0xx_hal_rtc.c ****          (#) To read the calendar through the shadow registers after Calendar 
 133:Drivers/STM32F0xx_HAL_Driver/Src/stm32f0xx_hal_rtc.c ****              initialization, calendar update or after wake-up from low power modes 
 134:Drivers/STM32F0xx_HAL_Driver/Src/stm32f0xx_hal_rtc.c ****              the software must first clear the RSF flag. The software must then 
 135:Drivers/STM32F0xx_HAL_Driver/Src/stm32f0xx_hal_rtc.c ****              wait until it is set again before reading the calendar, which means 
 136:Drivers/STM32F0xx_HAL_Driver/Src/stm32f0xx_hal_rtc.c ****              that the calendar registers have been correctly copied into the 
 137:Drivers/STM32F0xx_HAL_Driver/Src/stm32f0xx_hal_rtc.c ****              RTC_TR and RTC_DR shadow registers.The HAL_RTC_WaitForSynchro() function 
 138:Drivers/STM32F0xx_HAL_Driver/Src/stm32f0xx_hal_rtc.c ****              implements the above software sequence (RSF clear and RSF check).
 139:Drivers/STM32F0xx_HAL_Driver/Src/stm32f0xx_hal_rtc.c ****  
 140:Drivers/STM32F0xx_HAL_Driver/Src/stm32f0xx_hal_rtc.c **** @endverbatim
 141:Drivers/STM32F0xx_HAL_Driver/Src/stm32f0xx_hal_rtc.c ****   * @{
 142:Drivers/STM32F0xx_HAL_Driver/Src/stm32f0xx_hal_rtc.c ****   */
 143:Drivers/STM32F0xx_HAL_Driver/Src/stm32f0xx_hal_rtc.c **** 
 144:Drivers/STM32F0xx_HAL_Driver/Src/stm32f0xx_hal_rtc.c **** /**
ARM GAS  /var/folders/vr/85797ndx6jd_r3n_lsprlrj40000gn/T//ccWMqnSu.s 			page 4


 145:Drivers/STM32F0xx_HAL_Driver/Src/stm32f0xx_hal_rtc.c ****   * @brief  Initialize the RTC according to the specified parameters 
 146:Drivers/STM32F0xx_HAL_Driver/Src/stm32f0xx_hal_rtc.c ****   *         in the RTC_InitTypeDef structure and initialize the associated handle.
 147:Drivers/STM32F0xx_HAL_Driver/Src/stm32f0xx_hal_rtc.c ****   * @param  hrtc RTC handle
 148:Drivers/STM32F0xx_HAL_Driver/Src/stm32f0xx_hal_rtc.c ****   * @retval HAL status
 149:Drivers/STM32F0xx_HAL_Driver/Src/stm32f0xx_hal_rtc.c ****   */
 150:Drivers/STM32F0xx_HAL_Driver/Src/stm32f0xx_hal_rtc.c **** HAL_StatusTypeDef HAL_RTC_Init(RTC_HandleTypeDef *hrtc)
 151:Drivers/STM32F0xx_HAL_Driver/Src/stm32f0xx_hal_rtc.c **** {
 152:Drivers/STM32F0xx_HAL_Driver/Src/stm32f0xx_hal_rtc.c ****   /* Check the RTC peripheral state */
 153:Drivers/STM32F0xx_HAL_Driver/Src/stm32f0xx_hal_rtc.c ****   if(hrtc == NULL)
 154:Drivers/STM32F0xx_HAL_Driver/Src/stm32f0xx_hal_rtc.c ****   {
 155:Drivers/STM32F0xx_HAL_Driver/Src/stm32f0xx_hal_rtc.c ****      return HAL_ERROR;
 156:Drivers/STM32F0xx_HAL_Driver/Src/stm32f0xx_hal_rtc.c ****   }
 157:Drivers/STM32F0xx_HAL_Driver/Src/stm32f0xx_hal_rtc.c ****   
 158:Drivers/STM32F0xx_HAL_Driver/Src/stm32f0xx_hal_rtc.c ****   /* Check the parameters */
 159:Drivers/STM32F0xx_HAL_Driver/Src/stm32f0xx_hal_rtc.c ****   assert_param(IS_RTC_ALL_INSTANCE(hrtc->Instance));
 160:Drivers/STM32F0xx_HAL_Driver/Src/stm32f0xx_hal_rtc.c ****   assert_param(IS_RTC_HOUR_FORMAT(hrtc->Init.HourFormat));
 161:Drivers/STM32F0xx_HAL_Driver/Src/stm32f0xx_hal_rtc.c ****   assert_param(IS_RTC_ASYNCH_PREDIV(hrtc->Init.AsynchPrediv));
 162:Drivers/STM32F0xx_HAL_Driver/Src/stm32f0xx_hal_rtc.c ****   assert_param(IS_RTC_SYNCH_PREDIV(hrtc->Init.SynchPrediv));
 163:Drivers/STM32F0xx_HAL_Driver/Src/stm32f0xx_hal_rtc.c ****   assert_param(IS_RTC_OUTPUT(hrtc->Init.OutPut));
 164:Drivers/STM32F0xx_HAL_Driver/Src/stm32f0xx_hal_rtc.c ****   assert_param(IS_RTC_OUTPUT_POL(hrtc->Init.OutPutPolarity));
 165:Drivers/STM32F0xx_HAL_Driver/Src/stm32f0xx_hal_rtc.c ****   assert_param(IS_RTC_OUTPUT_TYPE(hrtc->Init.OutPutType));
 166:Drivers/STM32F0xx_HAL_Driver/Src/stm32f0xx_hal_rtc.c ****     
 167:Drivers/STM32F0xx_HAL_Driver/Src/stm32f0xx_hal_rtc.c ****   if(hrtc->State == HAL_RTC_STATE_RESET)
 168:Drivers/STM32F0xx_HAL_Driver/Src/stm32f0xx_hal_rtc.c ****   {
 169:Drivers/STM32F0xx_HAL_Driver/Src/stm32f0xx_hal_rtc.c ****     /* Allocate lock resource and initialize it */
 170:Drivers/STM32F0xx_HAL_Driver/Src/stm32f0xx_hal_rtc.c ****     hrtc->Lock = HAL_UNLOCKED;
 171:Drivers/STM32F0xx_HAL_Driver/Src/stm32f0xx_hal_rtc.c **** 
 172:Drivers/STM32F0xx_HAL_Driver/Src/stm32f0xx_hal_rtc.c ****     /* Initialize RTC MSP */
 173:Drivers/STM32F0xx_HAL_Driver/Src/stm32f0xx_hal_rtc.c ****     HAL_RTC_MspInit(hrtc);
 174:Drivers/STM32F0xx_HAL_Driver/Src/stm32f0xx_hal_rtc.c ****   }
 175:Drivers/STM32F0xx_HAL_Driver/Src/stm32f0xx_hal_rtc.c ****   
 176:Drivers/STM32F0xx_HAL_Driver/Src/stm32f0xx_hal_rtc.c ****   /* Set RTC state */  
 177:Drivers/STM32F0xx_HAL_Driver/Src/stm32f0xx_hal_rtc.c ****   hrtc->State = HAL_RTC_STATE_BUSY;  
 178:Drivers/STM32F0xx_HAL_Driver/Src/stm32f0xx_hal_rtc.c ****        
 179:Drivers/STM32F0xx_HAL_Driver/Src/stm32f0xx_hal_rtc.c ****   /* Disable the write protection for RTC registers */
 180:Drivers/STM32F0xx_HAL_Driver/Src/stm32f0xx_hal_rtc.c ****   __HAL_RTC_WRITEPROTECTION_DISABLE(hrtc);
 181:Drivers/STM32F0xx_HAL_Driver/Src/stm32f0xx_hal_rtc.c **** 
 182:Drivers/STM32F0xx_HAL_Driver/Src/stm32f0xx_hal_rtc.c ****   /* Set Initialization mode */
 183:Drivers/STM32F0xx_HAL_Driver/Src/stm32f0xx_hal_rtc.c ****   if(RTC_EnterInitMode(hrtc) != HAL_OK)
 184:Drivers/STM32F0xx_HAL_Driver/Src/stm32f0xx_hal_rtc.c ****   {
 185:Drivers/STM32F0xx_HAL_Driver/Src/stm32f0xx_hal_rtc.c ****     /* Enable the write protection for RTC registers */
 186:Drivers/STM32F0xx_HAL_Driver/Src/stm32f0xx_hal_rtc.c ****     __HAL_RTC_WRITEPROTECTION_ENABLE(hrtc); 
 187:Drivers/STM32F0xx_HAL_Driver/Src/stm32f0xx_hal_rtc.c ****     
 188:Drivers/STM32F0xx_HAL_Driver/Src/stm32f0xx_hal_rtc.c ****     /* Set RTC state */
 189:Drivers/STM32F0xx_HAL_Driver/Src/stm32f0xx_hal_rtc.c ****     hrtc->State = HAL_RTC_STATE_ERROR;
 190:Drivers/STM32F0xx_HAL_Driver/Src/stm32f0xx_hal_rtc.c ****     
 191:Drivers/STM32F0xx_HAL_Driver/Src/stm32f0xx_hal_rtc.c ****     return HAL_ERROR;
 192:Drivers/STM32F0xx_HAL_Driver/Src/stm32f0xx_hal_rtc.c ****   } 
 193:Drivers/STM32F0xx_HAL_Driver/Src/stm32f0xx_hal_rtc.c ****   else
 194:Drivers/STM32F0xx_HAL_Driver/Src/stm32f0xx_hal_rtc.c ****   { 
 195:Drivers/STM32F0xx_HAL_Driver/Src/stm32f0xx_hal_rtc.c ****     /* Clear RTC_CR FMT, OSEL and POL Bits */
 196:Drivers/STM32F0xx_HAL_Driver/Src/stm32f0xx_hal_rtc.c ****     hrtc->Instance->CR &= ((uint32_t)~(RTC_CR_FMT | RTC_CR_OSEL | RTC_CR_POL));
 197:Drivers/STM32F0xx_HAL_Driver/Src/stm32f0xx_hal_rtc.c ****     /* Set RTC_CR register */
 198:Drivers/STM32F0xx_HAL_Driver/Src/stm32f0xx_hal_rtc.c ****     hrtc->Instance->CR |= (uint32_t)(hrtc->Init.HourFormat | hrtc->Init.OutPut | hrtc->Init.OutPutP
 199:Drivers/STM32F0xx_HAL_Driver/Src/stm32f0xx_hal_rtc.c ****     
 200:Drivers/STM32F0xx_HAL_Driver/Src/stm32f0xx_hal_rtc.c ****     /* Configure the RTC PRER */
 201:Drivers/STM32F0xx_HAL_Driver/Src/stm32f0xx_hal_rtc.c ****     hrtc->Instance->PRER = (uint32_t)(hrtc->Init.SynchPrediv);
ARM GAS  /var/folders/vr/85797ndx6jd_r3n_lsprlrj40000gn/T//ccWMqnSu.s 			page 5


 202:Drivers/STM32F0xx_HAL_Driver/Src/stm32f0xx_hal_rtc.c ****     hrtc->Instance->PRER |= (uint32_t)(hrtc->Init.AsynchPrediv << 16U);
 203:Drivers/STM32F0xx_HAL_Driver/Src/stm32f0xx_hal_rtc.c ****     
 204:Drivers/STM32F0xx_HAL_Driver/Src/stm32f0xx_hal_rtc.c ****     /* Exit Initialization mode */
 205:Drivers/STM32F0xx_HAL_Driver/Src/stm32f0xx_hal_rtc.c ****     hrtc->Instance->ISR &= (uint32_t)~RTC_ISR_INIT; 
 206:Drivers/STM32F0xx_HAL_Driver/Src/stm32f0xx_hal_rtc.c **** 
 207:Drivers/STM32F0xx_HAL_Driver/Src/stm32f0xx_hal_rtc.c ****     /* If  CR_BYPSHAD bit = 0, wait for synchro else this check is not needed */
 208:Drivers/STM32F0xx_HAL_Driver/Src/stm32f0xx_hal_rtc.c ****     if((hrtc->Instance->CR & RTC_CR_BYPSHAD) == RESET)
 209:Drivers/STM32F0xx_HAL_Driver/Src/stm32f0xx_hal_rtc.c ****     {
 210:Drivers/STM32F0xx_HAL_Driver/Src/stm32f0xx_hal_rtc.c ****       if(HAL_RTC_WaitForSynchro(hrtc) != HAL_OK)
 211:Drivers/STM32F0xx_HAL_Driver/Src/stm32f0xx_hal_rtc.c ****       {
 212:Drivers/STM32F0xx_HAL_Driver/Src/stm32f0xx_hal_rtc.c ****         /* Enable the write protection for RTC registers */
 213:Drivers/STM32F0xx_HAL_Driver/Src/stm32f0xx_hal_rtc.c ****         __HAL_RTC_WRITEPROTECTION_ENABLE(hrtc);
 214:Drivers/STM32F0xx_HAL_Driver/Src/stm32f0xx_hal_rtc.c **** 
 215:Drivers/STM32F0xx_HAL_Driver/Src/stm32f0xx_hal_rtc.c ****         hrtc->State = HAL_RTC_STATE_ERROR;
 216:Drivers/STM32F0xx_HAL_Driver/Src/stm32f0xx_hal_rtc.c **** 
 217:Drivers/STM32F0xx_HAL_Driver/Src/stm32f0xx_hal_rtc.c ****         return HAL_ERROR;
 218:Drivers/STM32F0xx_HAL_Driver/Src/stm32f0xx_hal_rtc.c ****       }
 219:Drivers/STM32F0xx_HAL_Driver/Src/stm32f0xx_hal_rtc.c ****     }
 220:Drivers/STM32F0xx_HAL_Driver/Src/stm32f0xx_hal_rtc.c **** 
 221:Drivers/STM32F0xx_HAL_Driver/Src/stm32f0xx_hal_rtc.c ****     hrtc->Instance->TAFCR &= (uint32_t)~RTC_TAFCR_ALARMOUTTYPE;
 222:Drivers/STM32F0xx_HAL_Driver/Src/stm32f0xx_hal_rtc.c ****     hrtc->Instance->TAFCR |= (uint32_t)(hrtc->Init.OutPutType); 
 223:Drivers/STM32F0xx_HAL_Driver/Src/stm32f0xx_hal_rtc.c ****     
 224:Drivers/STM32F0xx_HAL_Driver/Src/stm32f0xx_hal_rtc.c ****     /* Enable the write protection for RTC registers */
 225:Drivers/STM32F0xx_HAL_Driver/Src/stm32f0xx_hal_rtc.c ****     __HAL_RTC_WRITEPROTECTION_ENABLE(hrtc); 
 226:Drivers/STM32F0xx_HAL_Driver/Src/stm32f0xx_hal_rtc.c ****     
 227:Drivers/STM32F0xx_HAL_Driver/Src/stm32f0xx_hal_rtc.c ****     /* Set RTC state */
 228:Drivers/STM32F0xx_HAL_Driver/Src/stm32f0xx_hal_rtc.c ****     hrtc->State = HAL_RTC_STATE_READY;
 229:Drivers/STM32F0xx_HAL_Driver/Src/stm32f0xx_hal_rtc.c ****     
 230:Drivers/STM32F0xx_HAL_Driver/Src/stm32f0xx_hal_rtc.c ****     return HAL_OK;
 231:Drivers/STM32F0xx_HAL_Driver/Src/stm32f0xx_hal_rtc.c ****   }
 232:Drivers/STM32F0xx_HAL_Driver/Src/stm32f0xx_hal_rtc.c **** }
 233:Drivers/STM32F0xx_HAL_Driver/Src/stm32f0xx_hal_rtc.c **** 
 234:Drivers/STM32F0xx_HAL_Driver/Src/stm32f0xx_hal_rtc.c **** /**
 235:Drivers/STM32F0xx_HAL_Driver/Src/stm32f0xx_hal_rtc.c ****   * @brief  DeInitialize the RTC peripheral.
 236:Drivers/STM32F0xx_HAL_Driver/Src/stm32f0xx_hal_rtc.c ****   * @param  hrtc RTC handle
 237:Drivers/STM32F0xx_HAL_Driver/Src/stm32f0xx_hal_rtc.c ****   * @note   This function doesn't reset the RTC Backup Data registers.
 238:Drivers/STM32F0xx_HAL_Driver/Src/stm32f0xx_hal_rtc.c ****   * @retval HAL status
 239:Drivers/STM32F0xx_HAL_Driver/Src/stm32f0xx_hal_rtc.c ****   */
 240:Drivers/STM32F0xx_HAL_Driver/Src/stm32f0xx_hal_rtc.c **** HAL_StatusTypeDef HAL_RTC_DeInit(RTC_HandleTypeDef *hrtc)
 241:Drivers/STM32F0xx_HAL_Driver/Src/stm32f0xx_hal_rtc.c **** {
 242:Drivers/STM32F0xx_HAL_Driver/Src/stm32f0xx_hal_rtc.c **** #if defined (STM32F030xC) || defined (STM32F070xB) || \
 243:Drivers/STM32F0xx_HAL_Driver/Src/stm32f0xx_hal_rtc.c ****     defined (STM32F071xB) || defined (STM32F072xB) || defined (STM32F078xx) || \
 244:Drivers/STM32F0xx_HAL_Driver/Src/stm32f0xx_hal_rtc.c ****     defined (STM32F091xC) || defined (STM32F098xx)
 245:Drivers/STM32F0xx_HAL_Driver/Src/stm32f0xx_hal_rtc.c ****   uint32_t tickstart = 0;
 246:Drivers/STM32F0xx_HAL_Driver/Src/stm32f0xx_hal_rtc.c **** #endif /* defined (STM32F030xC) || defined (STM32F070xB) ||\
 247:Drivers/STM32F0xx_HAL_Driver/Src/stm32f0xx_hal_rtc.c ****           defined (STM32F071xB) || defined (STM32F072xB) || defined (STM32F078xx) || \
 248:Drivers/STM32F0xx_HAL_Driver/Src/stm32f0xx_hal_rtc.c ****           defined (STM32F091xC) || defined (STM32F098xx) ||*/
 249:Drivers/STM32F0xx_HAL_Driver/Src/stm32f0xx_hal_rtc.c **** 
 250:Drivers/STM32F0xx_HAL_Driver/Src/stm32f0xx_hal_rtc.c ****   /* Check the parameters */
 251:Drivers/STM32F0xx_HAL_Driver/Src/stm32f0xx_hal_rtc.c ****   assert_param(IS_RTC_ALL_INSTANCE(hrtc->Instance));
 252:Drivers/STM32F0xx_HAL_Driver/Src/stm32f0xx_hal_rtc.c **** 
 253:Drivers/STM32F0xx_HAL_Driver/Src/stm32f0xx_hal_rtc.c ****   /* Set RTC state */
 254:Drivers/STM32F0xx_HAL_Driver/Src/stm32f0xx_hal_rtc.c ****   hrtc->State = HAL_RTC_STATE_BUSY; 
 255:Drivers/STM32F0xx_HAL_Driver/Src/stm32f0xx_hal_rtc.c ****   
 256:Drivers/STM32F0xx_HAL_Driver/Src/stm32f0xx_hal_rtc.c ****   /* Disable the write protection for RTC registers */
 257:Drivers/STM32F0xx_HAL_Driver/Src/stm32f0xx_hal_rtc.c ****   __HAL_RTC_WRITEPROTECTION_DISABLE(hrtc);
 258:Drivers/STM32F0xx_HAL_Driver/Src/stm32f0xx_hal_rtc.c ****   
ARM GAS  /var/folders/vr/85797ndx6jd_r3n_lsprlrj40000gn/T//ccWMqnSu.s 			page 6


 259:Drivers/STM32F0xx_HAL_Driver/Src/stm32f0xx_hal_rtc.c ****   /* Set Initialization mode */
 260:Drivers/STM32F0xx_HAL_Driver/Src/stm32f0xx_hal_rtc.c ****   if(RTC_EnterInitMode(hrtc) != HAL_OK)
 261:Drivers/STM32F0xx_HAL_Driver/Src/stm32f0xx_hal_rtc.c ****   {
 262:Drivers/STM32F0xx_HAL_Driver/Src/stm32f0xx_hal_rtc.c ****     /* Enable the write protection for RTC registers */
 263:Drivers/STM32F0xx_HAL_Driver/Src/stm32f0xx_hal_rtc.c ****     __HAL_RTC_WRITEPROTECTION_ENABLE(hrtc); 
 264:Drivers/STM32F0xx_HAL_Driver/Src/stm32f0xx_hal_rtc.c ****     
 265:Drivers/STM32F0xx_HAL_Driver/Src/stm32f0xx_hal_rtc.c ****     /* Set RTC state */
 266:Drivers/STM32F0xx_HAL_Driver/Src/stm32f0xx_hal_rtc.c ****     hrtc->State = HAL_RTC_STATE_ERROR;
 267:Drivers/STM32F0xx_HAL_Driver/Src/stm32f0xx_hal_rtc.c ****     
 268:Drivers/STM32F0xx_HAL_Driver/Src/stm32f0xx_hal_rtc.c ****     return HAL_ERROR;
 269:Drivers/STM32F0xx_HAL_Driver/Src/stm32f0xx_hal_rtc.c ****   }  
 270:Drivers/STM32F0xx_HAL_Driver/Src/stm32f0xx_hal_rtc.c ****   else
 271:Drivers/STM32F0xx_HAL_Driver/Src/stm32f0xx_hal_rtc.c ****   {
 272:Drivers/STM32F0xx_HAL_Driver/Src/stm32f0xx_hal_rtc.c ****     /* Reset TR, DR and CR registers */
 273:Drivers/STM32F0xx_HAL_Driver/Src/stm32f0xx_hal_rtc.c ****     hrtc->Instance->TR = 0x00000000U;
 274:Drivers/STM32F0xx_HAL_Driver/Src/stm32f0xx_hal_rtc.c ****     hrtc->Instance->DR = 0x00002101U;
 275:Drivers/STM32F0xx_HAL_Driver/Src/stm32f0xx_hal_rtc.c ****     
 276:Drivers/STM32F0xx_HAL_Driver/Src/stm32f0xx_hal_rtc.c **** #if defined (STM32F030xC) || defined (STM32F070xB) || \
 277:Drivers/STM32F0xx_HAL_Driver/Src/stm32f0xx_hal_rtc.c ****     defined (STM32F071xB) || defined (STM32F072xB) || defined (STM32F078xx) || \
 278:Drivers/STM32F0xx_HAL_Driver/Src/stm32f0xx_hal_rtc.c ****     defined (STM32F091xC) || defined (STM32F098xx)    
 279:Drivers/STM32F0xx_HAL_Driver/Src/stm32f0xx_hal_rtc.c ****     /* Reset All CR bits except CR[2:0] */
 280:Drivers/STM32F0xx_HAL_Driver/Src/stm32f0xx_hal_rtc.c ****     hrtc->Instance->CR &= 0x00000007U;
 281:Drivers/STM32F0xx_HAL_Driver/Src/stm32f0xx_hal_rtc.c ****     
 282:Drivers/STM32F0xx_HAL_Driver/Src/stm32f0xx_hal_rtc.c ****     tickstart = HAL_GetTick();
 283:Drivers/STM32F0xx_HAL_Driver/Src/stm32f0xx_hal_rtc.c ****     
 284:Drivers/STM32F0xx_HAL_Driver/Src/stm32f0xx_hal_rtc.c ****     /* Wait till WUTWF flag is set and if Time out is reached exit */
 285:Drivers/STM32F0xx_HAL_Driver/Src/stm32f0xx_hal_rtc.c ****     while(((hrtc->Instance->ISR) & RTC_ISR_WUTWF) == (uint32_t)RESET)
 286:Drivers/STM32F0xx_HAL_Driver/Src/stm32f0xx_hal_rtc.c ****     {
 287:Drivers/STM32F0xx_HAL_Driver/Src/stm32f0xx_hal_rtc.c ****       if((HAL_GetTick() - tickstart ) >  RTC_TIMEOUT_VALUE)
 288:Drivers/STM32F0xx_HAL_Driver/Src/stm32f0xx_hal_rtc.c ****       { 
 289:Drivers/STM32F0xx_HAL_Driver/Src/stm32f0xx_hal_rtc.c ****         /* Enable the write protection for RTC registers */
 290:Drivers/STM32F0xx_HAL_Driver/Src/stm32f0xx_hal_rtc.c ****         __HAL_RTC_WRITEPROTECTION_ENABLE(hrtc); 
 291:Drivers/STM32F0xx_HAL_Driver/Src/stm32f0xx_hal_rtc.c ****         
 292:Drivers/STM32F0xx_HAL_Driver/Src/stm32f0xx_hal_rtc.c ****         /* Set RTC state */
 293:Drivers/STM32F0xx_HAL_Driver/Src/stm32f0xx_hal_rtc.c ****         hrtc->State = HAL_RTC_STATE_TIMEOUT;
 294:Drivers/STM32F0xx_HAL_Driver/Src/stm32f0xx_hal_rtc.c ****         
 295:Drivers/STM32F0xx_HAL_Driver/Src/stm32f0xx_hal_rtc.c ****         return HAL_TIMEOUT;
 296:Drivers/STM32F0xx_HAL_Driver/Src/stm32f0xx_hal_rtc.c ****       } 
 297:Drivers/STM32F0xx_HAL_Driver/Src/stm32f0xx_hal_rtc.c ****     }
 298:Drivers/STM32F0xx_HAL_Driver/Src/stm32f0xx_hal_rtc.c **** #endif /* defined (STM32F030xC) || defined (STM32F070xB) ||\
 299:Drivers/STM32F0xx_HAL_Driver/Src/stm32f0xx_hal_rtc.c ****           defined (STM32F071xB) || defined (STM32F072xB) || defined (STM32F078xx) || \
 300:Drivers/STM32F0xx_HAL_Driver/Src/stm32f0xx_hal_rtc.c ****           defined (STM32F091xC) || defined (STM32F098xx) ||*/
 301:Drivers/STM32F0xx_HAL_Driver/Src/stm32f0xx_hal_rtc.c ****           
 302:Drivers/STM32F0xx_HAL_Driver/Src/stm32f0xx_hal_rtc.c ****     /* Reset all RTC CR register bits */
 303:Drivers/STM32F0xx_HAL_Driver/Src/stm32f0xx_hal_rtc.c ****     hrtc->Instance->CR &= 0x00000000U;
 304:Drivers/STM32F0xx_HAL_Driver/Src/stm32f0xx_hal_rtc.c **** #if defined (STM32F030xC) || defined (STM32F070xB) || \
 305:Drivers/STM32F0xx_HAL_Driver/Src/stm32f0xx_hal_rtc.c ****     defined (STM32F071xB) || defined (STM32F072xB) || defined (STM32F078xx) || \
 306:Drivers/STM32F0xx_HAL_Driver/Src/stm32f0xx_hal_rtc.c ****     defined (STM32F091xC) || defined (STM32F098xx)    
 307:Drivers/STM32F0xx_HAL_Driver/Src/stm32f0xx_hal_rtc.c ****     hrtc->Instance->WUTR = 0x0000FFFFU;
 308:Drivers/STM32F0xx_HAL_Driver/Src/stm32f0xx_hal_rtc.c **** #endif /* defined (STM32F030xC) || defined (STM32F070xB) ||\
 309:Drivers/STM32F0xx_HAL_Driver/Src/stm32f0xx_hal_rtc.c ****           defined (STM32F071xB) || defined (STM32F072xB) || defined (STM32F078xx) || \
 310:Drivers/STM32F0xx_HAL_Driver/Src/stm32f0xx_hal_rtc.c ****           defined (STM32F091xC) || defined (STM32F098xx) ||*/    
 311:Drivers/STM32F0xx_HAL_Driver/Src/stm32f0xx_hal_rtc.c ****     hrtc->Instance->PRER = 0x007F00FFU;
 312:Drivers/STM32F0xx_HAL_Driver/Src/stm32f0xx_hal_rtc.c ****     hrtc->Instance->ALRMAR = 0x00000000U;        
 313:Drivers/STM32F0xx_HAL_Driver/Src/stm32f0xx_hal_rtc.c ****     hrtc->Instance->SHIFTR = 0x00000000U;
 314:Drivers/STM32F0xx_HAL_Driver/Src/stm32f0xx_hal_rtc.c ****     hrtc->Instance->CALR = 0x00000000U;
 315:Drivers/STM32F0xx_HAL_Driver/Src/stm32f0xx_hal_rtc.c ****     hrtc->Instance->ALRMASSR = 0x00000000U;
ARM GAS  /var/folders/vr/85797ndx6jd_r3n_lsprlrj40000gn/T//ccWMqnSu.s 			page 7


 316:Drivers/STM32F0xx_HAL_Driver/Src/stm32f0xx_hal_rtc.c ****     
 317:Drivers/STM32F0xx_HAL_Driver/Src/stm32f0xx_hal_rtc.c ****     /* Reset ISR register and exit initialization mode */
 318:Drivers/STM32F0xx_HAL_Driver/Src/stm32f0xx_hal_rtc.c ****     hrtc->Instance->ISR = 0x00000000U;
 319:Drivers/STM32F0xx_HAL_Driver/Src/stm32f0xx_hal_rtc.c ****     
 320:Drivers/STM32F0xx_HAL_Driver/Src/stm32f0xx_hal_rtc.c ****     /* Reset Tamper and alternate functions configuration register */
 321:Drivers/STM32F0xx_HAL_Driver/Src/stm32f0xx_hal_rtc.c ****     hrtc->Instance->TAFCR = 0x00000000;
 322:Drivers/STM32F0xx_HAL_Driver/Src/stm32f0xx_hal_rtc.c ****     
 323:Drivers/STM32F0xx_HAL_Driver/Src/stm32f0xx_hal_rtc.c ****     /* If  RTC_CR_BYPSHAD bit = 0, wait for synchro else this check is not needed */
 324:Drivers/STM32F0xx_HAL_Driver/Src/stm32f0xx_hal_rtc.c ****     if((hrtc->Instance->CR & RTC_CR_BYPSHAD) == RESET)
 325:Drivers/STM32F0xx_HAL_Driver/Src/stm32f0xx_hal_rtc.c ****     {
 326:Drivers/STM32F0xx_HAL_Driver/Src/stm32f0xx_hal_rtc.c ****       if(HAL_RTC_WaitForSynchro(hrtc) != HAL_OK)
 327:Drivers/STM32F0xx_HAL_Driver/Src/stm32f0xx_hal_rtc.c ****       {
 328:Drivers/STM32F0xx_HAL_Driver/Src/stm32f0xx_hal_rtc.c ****         /* Enable the write protection for RTC registers */
 329:Drivers/STM32F0xx_HAL_Driver/Src/stm32f0xx_hal_rtc.c ****         __HAL_RTC_WRITEPROTECTION_ENABLE(hrtc);  
 330:Drivers/STM32F0xx_HAL_Driver/Src/stm32f0xx_hal_rtc.c ****         
 331:Drivers/STM32F0xx_HAL_Driver/Src/stm32f0xx_hal_rtc.c ****         hrtc->State = HAL_RTC_STATE_ERROR;
 332:Drivers/STM32F0xx_HAL_Driver/Src/stm32f0xx_hal_rtc.c ****         
 333:Drivers/STM32F0xx_HAL_Driver/Src/stm32f0xx_hal_rtc.c ****         return HAL_ERROR;
 334:Drivers/STM32F0xx_HAL_Driver/Src/stm32f0xx_hal_rtc.c ****       }
 335:Drivers/STM32F0xx_HAL_Driver/Src/stm32f0xx_hal_rtc.c ****     }    
 336:Drivers/STM32F0xx_HAL_Driver/Src/stm32f0xx_hal_rtc.c ****   }
 337:Drivers/STM32F0xx_HAL_Driver/Src/stm32f0xx_hal_rtc.c ****   
 338:Drivers/STM32F0xx_HAL_Driver/Src/stm32f0xx_hal_rtc.c ****   /* Enable the write protection for RTC registers */
 339:Drivers/STM32F0xx_HAL_Driver/Src/stm32f0xx_hal_rtc.c ****   __HAL_RTC_WRITEPROTECTION_ENABLE(hrtc);
 340:Drivers/STM32F0xx_HAL_Driver/Src/stm32f0xx_hal_rtc.c ****   
 341:Drivers/STM32F0xx_HAL_Driver/Src/stm32f0xx_hal_rtc.c ****   /* De-Initialize RTC MSP */
 342:Drivers/STM32F0xx_HAL_Driver/Src/stm32f0xx_hal_rtc.c ****   HAL_RTC_MspDeInit(hrtc);
 343:Drivers/STM32F0xx_HAL_Driver/Src/stm32f0xx_hal_rtc.c ****   
 344:Drivers/STM32F0xx_HAL_Driver/Src/stm32f0xx_hal_rtc.c ****   hrtc->State = HAL_RTC_STATE_RESET; 
 345:Drivers/STM32F0xx_HAL_Driver/Src/stm32f0xx_hal_rtc.c ****   
 346:Drivers/STM32F0xx_HAL_Driver/Src/stm32f0xx_hal_rtc.c ****   /* Release Lock */
 347:Drivers/STM32F0xx_HAL_Driver/Src/stm32f0xx_hal_rtc.c ****   __HAL_UNLOCK(hrtc);
 348:Drivers/STM32F0xx_HAL_Driver/Src/stm32f0xx_hal_rtc.c **** 
 349:Drivers/STM32F0xx_HAL_Driver/Src/stm32f0xx_hal_rtc.c ****   return HAL_OK;
 350:Drivers/STM32F0xx_HAL_Driver/Src/stm32f0xx_hal_rtc.c **** }
 351:Drivers/STM32F0xx_HAL_Driver/Src/stm32f0xx_hal_rtc.c **** 
 352:Drivers/STM32F0xx_HAL_Driver/Src/stm32f0xx_hal_rtc.c **** /**
 353:Drivers/STM32F0xx_HAL_Driver/Src/stm32f0xx_hal_rtc.c ****   * @brief  Initialize the RTC MSP.
 354:Drivers/STM32F0xx_HAL_Driver/Src/stm32f0xx_hal_rtc.c ****   * @param  hrtc RTC handle  
 355:Drivers/STM32F0xx_HAL_Driver/Src/stm32f0xx_hal_rtc.c ****   * @retval None
 356:Drivers/STM32F0xx_HAL_Driver/Src/stm32f0xx_hal_rtc.c ****   */
 357:Drivers/STM32F0xx_HAL_Driver/Src/stm32f0xx_hal_rtc.c **** __weak void HAL_RTC_MspInit(RTC_HandleTypeDef* hrtc)
 358:Drivers/STM32F0xx_HAL_Driver/Src/stm32f0xx_hal_rtc.c **** {
  29              		.loc 1 358 1 view -0
  30              		.cfi_startproc
  31              		@ args = 0, pretend = 0, frame = 0
  32              		@ frame_needed = 0, uses_anonymous_args = 0
  33              		@ link register save eliminated.
 359:Drivers/STM32F0xx_HAL_Driver/Src/stm32f0xx_hal_rtc.c ****   /* Prevent unused argument(s) compilation warning */
 360:Drivers/STM32F0xx_HAL_Driver/Src/stm32f0xx_hal_rtc.c ****   UNUSED(hrtc);
  34              		.loc 1 360 3 view .LVU1
 361:Drivers/STM32F0xx_HAL_Driver/Src/stm32f0xx_hal_rtc.c **** 
 362:Drivers/STM32F0xx_HAL_Driver/Src/stm32f0xx_hal_rtc.c ****   /* NOTE : This function should not be modified, when the callback is needed,
 363:Drivers/STM32F0xx_HAL_Driver/Src/stm32f0xx_hal_rtc.c ****             the HAL_RTC_MspInit could be implemented in the user file
 364:Drivers/STM32F0xx_HAL_Driver/Src/stm32f0xx_hal_rtc.c ****    */ 
 365:Drivers/STM32F0xx_HAL_Driver/Src/stm32f0xx_hal_rtc.c **** }
  35              		.loc 1 365 1 is_stmt 0 view .LVU2
ARM GAS  /var/folders/vr/85797ndx6jd_r3n_lsprlrj40000gn/T//ccWMqnSu.s 			page 8


  36              		@ sp needed
  37 0000 7047     		bx	lr
  38              		.cfi_endproc
  39              	.LFE39:
  41 0002 C046     		.section	.text.HAL_RTC_MspDeInit,"ax",%progbits
  42              		.align	1
  43              		.p2align 2,,3
  44              		.weak	HAL_RTC_MspDeInit
  45              		.syntax unified
  46              		.code	16
  47              		.thumb_func
  48              		.fpu softvfp
  50              	HAL_RTC_MspDeInit:
  51              	.LFB58:
  52              		.cfi_startproc
  53              		@ args = 0, pretend = 0, frame = 0
  54              		@ frame_needed = 0, uses_anonymous_args = 0
  55              		@ link register save eliminated.
  56              		@ sp needed
  57 0000 7047     		bx	lr
  58              		.cfi_endproc
  59              	.LFE58:
  61 0002 C046     		.section	.text.HAL_RTC_GetTime,"ax",%progbits
  62              		.align	1
  63              		.p2align 2,,3
  64              		.global	HAL_RTC_GetTime
  65              		.syntax unified
  66              		.code	16
  67              		.thumb_func
  68              		.fpu softvfp
  70              	HAL_RTC_GetTime:
  71              	.LVL1:
  72              	.LFB42:
 366:Drivers/STM32F0xx_HAL_Driver/Src/stm32f0xx_hal_rtc.c **** 
 367:Drivers/STM32F0xx_HAL_Driver/Src/stm32f0xx_hal_rtc.c **** /**
 368:Drivers/STM32F0xx_HAL_Driver/Src/stm32f0xx_hal_rtc.c ****   * @brief  DeInitialize the RTC MSP.
 369:Drivers/STM32F0xx_HAL_Driver/Src/stm32f0xx_hal_rtc.c ****   * @param  hrtc RTC handle 
 370:Drivers/STM32F0xx_HAL_Driver/Src/stm32f0xx_hal_rtc.c ****   * @retval None
 371:Drivers/STM32F0xx_HAL_Driver/Src/stm32f0xx_hal_rtc.c ****   */
 372:Drivers/STM32F0xx_HAL_Driver/Src/stm32f0xx_hal_rtc.c **** __weak void HAL_RTC_MspDeInit(RTC_HandleTypeDef* hrtc)
 373:Drivers/STM32F0xx_HAL_Driver/Src/stm32f0xx_hal_rtc.c **** {
 374:Drivers/STM32F0xx_HAL_Driver/Src/stm32f0xx_hal_rtc.c ****   /* Prevent unused argument(s) compilation warning */
 375:Drivers/STM32F0xx_HAL_Driver/Src/stm32f0xx_hal_rtc.c ****   UNUSED(hrtc);
 376:Drivers/STM32F0xx_HAL_Driver/Src/stm32f0xx_hal_rtc.c **** 
 377:Drivers/STM32F0xx_HAL_Driver/Src/stm32f0xx_hal_rtc.c ****   /* NOTE : This function should not be modified, when the callback is needed,
 378:Drivers/STM32F0xx_HAL_Driver/Src/stm32f0xx_hal_rtc.c ****             the HAL_RTC_MspDeInit could be implemented in the user file
 379:Drivers/STM32F0xx_HAL_Driver/Src/stm32f0xx_hal_rtc.c ****    */ 
 380:Drivers/STM32F0xx_HAL_Driver/Src/stm32f0xx_hal_rtc.c **** }
 381:Drivers/STM32F0xx_HAL_Driver/Src/stm32f0xx_hal_rtc.c **** 
 382:Drivers/STM32F0xx_HAL_Driver/Src/stm32f0xx_hal_rtc.c **** /**
 383:Drivers/STM32F0xx_HAL_Driver/Src/stm32f0xx_hal_rtc.c ****   * @}
 384:Drivers/STM32F0xx_HAL_Driver/Src/stm32f0xx_hal_rtc.c ****   */
 385:Drivers/STM32F0xx_HAL_Driver/Src/stm32f0xx_hal_rtc.c **** 
 386:Drivers/STM32F0xx_HAL_Driver/Src/stm32f0xx_hal_rtc.c **** /** @addtogroup RTC_Exported_Functions_Group2
 387:Drivers/STM32F0xx_HAL_Driver/Src/stm32f0xx_hal_rtc.c ****  *  @brief   RTC Time and Date functions
 388:Drivers/STM32F0xx_HAL_Driver/Src/stm32f0xx_hal_rtc.c ****  *
 389:Drivers/STM32F0xx_HAL_Driver/Src/stm32f0xx_hal_rtc.c **** @verbatim   
ARM GAS  /var/folders/vr/85797ndx6jd_r3n_lsprlrj40000gn/T//ccWMqnSu.s 			page 9


 390:Drivers/STM32F0xx_HAL_Driver/Src/stm32f0xx_hal_rtc.c ****  ===============================================================================
 391:Drivers/STM32F0xx_HAL_Driver/Src/stm32f0xx_hal_rtc.c ****                  ##### RTC Time and Date functions #####
 392:Drivers/STM32F0xx_HAL_Driver/Src/stm32f0xx_hal_rtc.c ****  ===============================================================================  
 393:Drivers/STM32F0xx_HAL_Driver/Src/stm32f0xx_hal_rtc.c ****  
 394:Drivers/STM32F0xx_HAL_Driver/Src/stm32f0xx_hal_rtc.c ****  [..] This section provides functions allowing to configure Time and Date features
 395:Drivers/STM32F0xx_HAL_Driver/Src/stm32f0xx_hal_rtc.c **** 
 396:Drivers/STM32F0xx_HAL_Driver/Src/stm32f0xx_hal_rtc.c **** @endverbatim
 397:Drivers/STM32F0xx_HAL_Driver/Src/stm32f0xx_hal_rtc.c ****   * @{
 398:Drivers/STM32F0xx_HAL_Driver/Src/stm32f0xx_hal_rtc.c ****   */
 399:Drivers/STM32F0xx_HAL_Driver/Src/stm32f0xx_hal_rtc.c **** 
 400:Drivers/STM32F0xx_HAL_Driver/Src/stm32f0xx_hal_rtc.c **** /**
 401:Drivers/STM32F0xx_HAL_Driver/Src/stm32f0xx_hal_rtc.c ****   * @brief  Set RTC current time.
 402:Drivers/STM32F0xx_HAL_Driver/Src/stm32f0xx_hal_rtc.c ****   * @param  hrtc RTC handle
 403:Drivers/STM32F0xx_HAL_Driver/Src/stm32f0xx_hal_rtc.c ****   * @param  sTime Pointer to Time structure
 404:Drivers/STM32F0xx_HAL_Driver/Src/stm32f0xx_hal_rtc.c ****   * @param  Format Specifies the format of the entered parameters.
 405:Drivers/STM32F0xx_HAL_Driver/Src/stm32f0xx_hal_rtc.c ****   *          This parameter can be one of the following values:
 406:Drivers/STM32F0xx_HAL_Driver/Src/stm32f0xx_hal_rtc.c ****   *            @arg RTC_FORMAT_BIN: Binary data format 
 407:Drivers/STM32F0xx_HAL_Driver/Src/stm32f0xx_hal_rtc.c ****   *            @arg RTC_FORMAT_BCD: BCD data format
 408:Drivers/STM32F0xx_HAL_Driver/Src/stm32f0xx_hal_rtc.c ****   * @retval HAL status
 409:Drivers/STM32F0xx_HAL_Driver/Src/stm32f0xx_hal_rtc.c ****   */
 410:Drivers/STM32F0xx_HAL_Driver/Src/stm32f0xx_hal_rtc.c **** HAL_StatusTypeDef HAL_RTC_SetTime(RTC_HandleTypeDef *hrtc, RTC_TimeTypeDef *sTime, uint32_t Format)
 411:Drivers/STM32F0xx_HAL_Driver/Src/stm32f0xx_hal_rtc.c **** {
 412:Drivers/STM32F0xx_HAL_Driver/Src/stm32f0xx_hal_rtc.c ****   uint32_t tmpreg = 0U;
 413:Drivers/STM32F0xx_HAL_Driver/Src/stm32f0xx_hal_rtc.c ****   
 414:Drivers/STM32F0xx_HAL_Driver/Src/stm32f0xx_hal_rtc.c ****  /* Check the parameters */
 415:Drivers/STM32F0xx_HAL_Driver/Src/stm32f0xx_hal_rtc.c ****   assert_param(IS_RTC_FORMAT(Format));
 416:Drivers/STM32F0xx_HAL_Driver/Src/stm32f0xx_hal_rtc.c ****   assert_param(IS_RTC_DAYLIGHT_SAVING(sTime->DayLightSaving));
 417:Drivers/STM32F0xx_HAL_Driver/Src/stm32f0xx_hal_rtc.c ****   assert_param(IS_RTC_STORE_OPERATION(sTime->StoreOperation));
 418:Drivers/STM32F0xx_HAL_Driver/Src/stm32f0xx_hal_rtc.c ****   
 419:Drivers/STM32F0xx_HAL_Driver/Src/stm32f0xx_hal_rtc.c ****   /* Process Locked */ 
 420:Drivers/STM32F0xx_HAL_Driver/Src/stm32f0xx_hal_rtc.c ****   __HAL_LOCK(hrtc);
 421:Drivers/STM32F0xx_HAL_Driver/Src/stm32f0xx_hal_rtc.c ****   
 422:Drivers/STM32F0xx_HAL_Driver/Src/stm32f0xx_hal_rtc.c ****   hrtc->State = HAL_RTC_STATE_BUSY;
 423:Drivers/STM32F0xx_HAL_Driver/Src/stm32f0xx_hal_rtc.c ****   
 424:Drivers/STM32F0xx_HAL_Driver/Src/stm32f0xx_hal_rtc.c ****   if(Format == RTC_FORMAT_BIN)
 425:Drivers/STM32F0xx_HAL_Driver/Src/stm32f0xx_hal_rtc.c ****   {
 426:Drivers/STM32F0xx_HAL_Driver/Src/stm32f0xx_hal_rtc.c ****     if((hrtc->Instance->CR & RTC_CR_FMT) != (uint32_t)RESET)
 427:Drivers/STM32F0xx_HAL_Driver/Src/stm32f0xx_hal_rtc.c ****     {
 428:Drivers/STM32F0xx_HAL_Driver/Src/stm32f0xx_hal_rtc.c ****       assert_param(IS_RTC_HOUR12(sTime->Hours));
 429:Drivers/STM32F0xx_HAL_Driver/Src/stm32f0xx_hal_rtc.c ****       assert_param(IS_RTC_HOURFORMAT12(sTime->TimeFormat));
 430:Drivers/STM32F0xx_HAL_Driver/Src/stm32f0xx_hal_rtc.c ****     } 
 431:Drivers/STM32F0xx_HAL_Driver/Src/stm32f0xx_hal_rtc.c ****     else
 432:Drivers/STM32F0xx_HAL_Driver/Src/stm32f0xx_hal_rtc.c ****     {
 433:Drivers/STM32F0xx_HAL_Driver/Src/stm32f0xx_hal_rtc.c ****       sTime->TimeFormat = 0x00U;
 434:Drivers/STM32F0xx_HAL_Driver/Src/stm32f0xx_hal_rtc.c ****       assert_param(IS_RTC_HOUR24(sTime->Hours));
 435:Drivers/STM32F0xx_HAL_Driver/Src/stm32f0xx_hal_rtc.c ****     }
 436:Drivers/STM32F0xx_HAL_Driver/Src/stm32f0xx_hal_rtc.c ****     assert_param(IS_RTC_MINUTES(sTime->Minutes));
 437:Drivers/STM32F0xx_HAL_Driver/Src/stm32f0xx_hal_rtc.c ****     assert_param(IS_RTC_SECONDS(sTime->Seconds));
 438:Drivers/STM32F0xx_HAL_Driver/Src/stm32f0xx_hal_rtc.c ****     
 439:Drivers/STM32F0xx_HAL_Driver/Src/stm32f0xx_hal_rtc.c ****     tmpreg = (uint32_t)(((uint32_t)RTC_ByteToBcd2(sTime->Hours) << 16U) | \
 440:Drivers/STM32F0xx_HAL_Driver/Src/stm32f0xx_hal_rtc.c ****                         ((uint32_t)RTC_ByteToBcd2(sTime->Minutes) << 8U) | \
 441:Drivers/STM32F0xx_HAL_Driver/Src/stm32f0xx_hal_rtc.c ****                         ((uint32_t)RTC_ByteToBcd2(sTime->Seconds)) | \
 442:Drivers/STM32F0xx_HAL_Driver/Src/stm32f0xx_hal_rtc.c ****                         (((uint32_t)sTime->TimeFormat) << 16U));  
 443:Drivers/STM32F0xx_HAL_Driver/Src/stm32f0xx_hal_rtc.c ****   }
 444:Drivers/STM32F0xx_HAL_Driver/Src/stm32f0xx_hal_rtc.c ****   else
 445:Drivers/STM32F0xx_HAL_Driver/Src/stm32f0xx_hal_rtc.c ****   {
 446:Drivers/STM32F0xx_HAL_Driver/Src/stm32f0xx_hal_rtc.c ****     if((hrtc->Instance->CR & RTC_CR_FMT) != (uint32_t)RESET)
ARM GAS  /var/folders/vr/85797ndx6jd_r3n_lsprlrj40000gn/T//ccWMqnSu.s 			page 10


 447:Drivers/STM32F0xx_HAL_Driver/Src/stm32f0xx_hal_rtc.c ****     {
 448:Drivers/STM32F0xx_HAL_Driver/Src/stm32f0xx_hal_rtc.c ****       tmpreg = RTC_Bcd2ToByte(sTime->Hours);
 449:Drivers/STM32F0xx_HAL_Driver/Src/stm32f0xx_hal_rtc.c ****       assert_param(IS_RTC_HOUR12(tmpreg));
 450:Drivers/STM32F0xx_HAL_Driver/Src/stm32f0xx_hal_rtc.c ****       assert_param(IS_RTC_HOURFORMAT12(sTime->TimeFormat)); 
 451:Drivers/STM32F0xx_HAL_Driver/Src/stm32f0xx_hal_rtc.c ****     } 
 452:Drivers/STM32F0xx_HAL_Driver/Src/stm32f0xx_hal_rtc.c ****     else
 453:Drivers/STM32F0xx_HAL_Driver/Src/stm32f0xx_hal_rtc.c ****     {
 454:Drivers/STM32F0xx_HAL_Driver/Src/stm32f0xx_hal_rtc.c ****       sTime->TimeFormat = 0x00U;
 455:Drivers/STM32F0xx_HAL_Driver/Src/stm32f0xx_hal_rtc.c ****       assert_param(IS_RTC_HOUR24(RTC_Bcd2ToByte(sTime->Hours)));
 456:Drivers/STM32F0xx_HAL_Driver/Src/stm32f0xx_hal_rtc.c ****     }
 457:Drivers/STM32F0xx_HAL_Driver/Src/stm32f0xx_hal_rtc.c ****     assert_param(IS_RTC_MINUTES(RTC_Bcd2ToByte(sTime->Minutes)));
 458:Drivers/STM32F0xx_HAL_Driver/Src/stm32f0xx_hal_rtc.c ****     assert_param(IS_RTC_SECONDS(RTC_Bcd2ToByte(sTime->Seconds)));
 459:Drivers/STM32F0xx_HAL_Driver/Src/stm32f0xx_hal_rtc.c ****     tmpreg = (((uint32_t)(sTime->Hours) << 16U) | \
 460:Drivers/STM32F0xx_HAL_Driver/Src/stm32f0xx_hal_rtc.c ****               ((uint32_t)(sTime->Minutes) << 8U) | \
 461:Drivers/STM32F0xx_HAL_Driver/Src/stm32f0xx_hal_rtc.c ****               ((uint32_t)sTime->Seconds) | \
 462:Drivers/STM32F0xx_HAL_Driver/Src/stm32f0xx_hal_rtc.c ****               ((uint32_t)(sTime->TimeFormat) << 16U));   
 463:Drivers/STM32F0xx_HAL_Driver/Src/stm32f0xx_hal_rtc.c ****   }
 464:Drivers/STM32F0xx_HAL_Driver/Src/stm32f0xx_hal_rtc.c ****   
 465:Drivers/STM32F0xx_HAL_Driver/Src/stm32f0xx_hal_rtc.c ****   /* Disable the write protection for RTC registers */
 466:Drivers/STM32F0xx_HAL_Driver/Src/stm32f0xx_hal_rtc.c ****   __HAL_RTC_WRITEPROTECTION_DISABLE(hrtc);
 467:Drivers/STM32F0xx_HAL_Driver/Src/stm32f0xx_hal_rtc.c ****   
 468:Drivers/STM32F0xx_HAL_Driver/Src/stm32f0xx_hal_rtc.c ****   /* Set Initialization mode */
 469:Drivers/STM32F0xx_HAL_Driver/Src/stm32f0xx_hal_rtc.c ****   if(RTC_EnterInitMode(hrtc) != HAL_OK)
 470:Drivers/STM32F0xx_HAL_Driver/Src/stm32f0xx_hal_rtc.c ****   {
 471:Drivers/STM32F0xx_HAL_Driver/Src/stm32f0xx_hal_rtc.c ****     /* Enable the write protection for RTC registers */
 472:Drivers/STM32F0xx_HAL_Driver/Src/stm32f0xx_hal_rtc.c ****     __HAL_RTC_WRITEPROTECTION_ENABLE(hrtc); 
 473:Drivers/STM32F0xx_HAL_Driver/Src/stm32f0xx_hal_rtc.c ****     
 474:Drivers/STM32F0xx_HAL_Driver/Src/stm32f0xx_hal_rtc.c ****     /* Set RTC state */
 475:Drivers/STM32F0xx_HAL_Driver/Src/stm32f0xx_hal_rtc.c ****     hrtc->State = HAL_RTC_STATE_ERROR;
 476:Drivers/STM32F0xx_HAL_Driver/Src/stm32f0xx_hal_rtc.c ****     
 477:Drivers/STM32F0xx_HAL_Driver/Src/stm32f0xx_hal_rtc.c ****     /* Process Unlocked */ 
 478:Drivers/STM32F0xx_HAL_Driver/Src/stm32f0xx_hal_rtc.c ****     __HAL_UNLOCK(hrtc);
 479:Drivers/STM32F0xx_HAL_Driver/Src/stm32f0xx_hal_rtc.c ****     
 480:Drivers/STM32F0xx_HAL_Driver/Src/stm32f0xx_hal_rtc.c ****     return HAL_ERROR;
 481:Drivers/STM32F0xx_HAL_Driver/Src/stm32f0xx_hal_rtc.c ****   } 
 482:Drivers/STM32F0xx_HAL_Driver/Src/stm32f0xx_hal_rtc.c ****   else
 483:Drivers/STM32F0xx_HAL_Driver/Src/stm32f0xx_hal_rtc.c ****   {
 484:Drivers/STM32F0xx_HAL_Driver/Src/stm32f0xx_hal_rtc.c ****     /* Set the RTC_TR register */
 485:Drivers/STM32F0xx_HAL_Driver/Src/stm32f0xx_hal_rtc.c ****     hrtc->Instance->TR = (uint32_t)(tmpreg & RTC_TR_RESERVED_MASK);
 486:Drivers/STM32F0xx_HAL_Driver/Src/stm32f0xx_hal_rtc.c ****      
 487:Drivers/STM32F0xx_HAL_Driver/Src/stm32f0xx_hal_rtc.c ****     /* Clear the bits to be configured */
 488:Drivers/STM32F0xx_HAL_Driver/Src/stm32f0xx_hal_rtc.c ****     hrtc->Instance->CR &= ((uint32_t)~RTC_CR_BKP);
 489:Drivers/STM32F0xx_HAL_Driver/Src/stm32f0xx_hal_rtc.c **** 
 490:Drivers/STM32F0xx_HAL_Driver/Src/stm32f0xx_hal_rtc.c ****     /* Configure the RTC_CR register */
 491:Drivers/STM32F0xx_HAL_Driver/Src/stm32f0xx_hal_rtc.c ****     hrtc->Instance->CR |= (uint32_t)(sTime->DayLightSaving | sTime->StoreOperation);
 492:Drivers/STM32F0xx_HAL_Driver/Src/stm32f0xx_hal_rtc.c ****     
 493:Drivers/STM32F0xx_HAL_Driver/Src/stm32f0xx_hal_rtc.c ****     /* Exit Initialization mode */
 494:Drivers/STM32F0xx_HAL_Driver/Src/stm32f0xx_hal_rtc.c ****     hrtc->Instance->ISR &= ((uint32_t)~RTC_ISR_INIT);
 495:Drivers/STM32F0xx_HAL_Driver/Src/stm32f0xx_hal_rtc.c **** 
 496:Drivers/STM32F0xx_HAL_Driver/Src/stm32f0xx_hal_rtc.c ****     /* If  CR_BYPSHAD bit = 0, wait for synchro else this check is not needed */
 497:Drivers/STM32F0xx_HAL_Driver/Src/stm32f0xx_hal_rtc.c ****     if((hrtc->Instance->CR & RTC_CR_BYPSHAD) == RESET)
 498:Drivers/STM32F0xx_HAL_Driver/Src/stm32f0xx_hal_rtc.c ****     {
 499:Drivers/STM32F0xx_HAL_Driver/Src/stm32f0xx_hal_rtc.c ****       if(HAL_RTC_WaitForSynchro(hrtc) != HAL_OK)
 500:Drivers/STM32F0xx_HAL_Driver/Src/stm32f0xx_hal_rtc.c ****       {        
 501:Drivers/STM32F0xx_HAL_Driver/Src/stm32f0xx_hal_rtc.c ****         /* Enable the write protection for RTC registers */
 502:Drivers/STM32F0xx_HAL_Driver/Src/stm32f0xx_hal_rtc.c ****         __HAL_RTC_WRITEPROTECTION_ENABLE(hrtc);  
 503:Drivers/STM32F0xx_HAL_Driver/Src/stm32f0xx_hal_rtc.c ****         
ARM GAS  /var/folders/vr/85797ndx6jd_r3n_lsprlrj40000gn/T//ccWMqnSu.s 			page 11


 504:Drivers/STM32F0xx_HAL_Driver/Src/stm32f0xx_hal_rtc.c ****         hrtc->State = HAL_RTC_STATE_ERROR;
 505:Drivers/STM32F0xx_HAL_Driver/Src/stm32f0xx_hal_rtc.c ****         
 506:Drivers/STM32F0xx_HAL_Driver/Src/stm32f0xx_hal_rtc.c ****         /* Process Unlocked */ 
 507:Drivers/STM32F0xx_HAL_Driver/Src/stm32f0xx_hal_rtc.c ****         __HAL_UNLOCK(hrtc);
 508:Drivers/STM32F0xx_HAL_Driver/Src/stm32f0xx_hal_rtc.c ****         
 509:Drivers/STM32F0xx_HAL_Driver/Src/stm32f0xx_hal_rtc.c ****         return HAL_ERROR;
 510:Drivers/STM32F0xx_HAL_Driver/Src/stm32f0xx_hal_rtc.c ****       }
 511:Drivers/STM32F0xx_HAL_Driver/Src/stm32f0xx_hal_rtc.c ****     }
 512:Drivers/STM32F0xx_HAL_Driver/Src/stm32f0xx_hal_rtc.c ****     
 513:Drivers/STM32F0xx_HAL_Driver/Src/stm32f0xx_hal_rtc.c ****     /* Enable the write protection for RTC registers */
 514:Drivers/STM32F0xx_HAL_Driver/Src/stm32f0xx_hal_rtc.c ****     __HAL_RTC_WRITEPROTECTION_ENABLE(hrtc);
 515:Drivers/STM32F0xx_HAL_Driver/Src/stm32f0xx_hal_rtc.c ****     
 516:Drivers/STM32F0xx_HAL_Driver/Src/stm32f0xx_hal_rtc.c ****    hrtc->State = HAL_RTC_STATE_READY;
 517:Drivers/STM32F0xx_HAL_Driver/Src/stm32f0xx_hal_rtc.c ****   
 518:Drivers/STM32F0xx_HAL_Driver/Src/stm32f0xx_hal_rtc.c ****    __HAL_UNLOCK(hrtc); 
 519:Drivers/STM32F0xx_HAL_Driver/Src/stm32f0xx_hal_rtc.c ****      
 520:Drivers/STM32F0xx_HAL_Driver/Src/stm32f0xx_hal_rtc.c ****    return HAL_OK;
 521:Drivers/STM32F0xx_HAL_Driver/Src/stm32f0xx_hal_rtc.c ****   }
 522:Drivers/STM32F0xx_HAL_Driver/Src/stm32f0xx_hal_rtc.c **** }
 523:Drivers/STM32F0xx_HAL_Driver/Src/stm32f0xx_hal_rtc.c **** 
 524:Drivers/STM32F0xx_HAL_Driver/Src/stm32f0xx_hal_rtc.c **** /**
 525:Drivers/STM32F0xx_HAL_Driver/Src/stm32f0xx_hal_rtc.c ****   * @brief  Get RTC current time.
 526:Drivers/STM32F0xx_HAL_Driver/Src/stm32f0xx_hal_rtc.c ****   * @param  hrtc RTC handle
 527:Drivers/STM32F0xx_HAL_Driver/Src/stm32f0xx_hal_rtc.c ****   * @param  sTime Pointer to Time structure with Hours, Minutes and Seconds fields returned 
 528:Drivers/STM32F0xx_HAL_Driver/Src/stm32f0xx_hal_rtc.c ****   *                with input format (BIN or BCD), also SubSeconds field returning the
 529:Drivers/STM32F0xx_HAL_Driver/Src/stm32f0xx_hal_rtc.c ****   *                RTC_SSR register content and SecondFraction field the Synchronous pre-scaler
 530:Drivers/STM32F0xx_HAL_Driver/Src/stm32f0xx_hal_rtc.c ****   *                factor to be used for second fraction ratio computation.
 531:Drivers/STM32F0xx_HAL_Driver/Src/stm32f0xx_hal_rtc.c ****   * @param  Format Specifies the format of the entered parameters.
 532:Drivers/STM32F0xx_HAL_Driver/Src/stm32f0xx_hal_rtc.c ****   *          This parameter can be one of the following values:
 533:Drivers/STM32F0xx_HAL_Driver/Src/stm32f0xx_hal_rtc.c ****   *            @arg RTC_FORMAT_BIN: Binary data format 
 534:Drivers/STM32F0xx_HAL_Driver/Src/stm32f0xx_hal_rtc.c ****   *            @arg RTC_FORMAT_BCD: BCD data format
 535:Drivers/STM32F0xx_HAL_Driver/Src/stm32f0xx_hal_rtc.c ****   * @note  You can use SubSeconds and SecondFraction (sTime structure fields returned) to convert S
 536:Drivers/STM32F0xx_HAL_Driver/Src/stm32f0xx_hal_rtc.c ****   *        value in second fraction ratio with time unit following generic formula:
 537:Drivers/STM32F0xx_HAL_Driver/Src/stm32f0xx_hal_rtc.c ****   *        Second fraction ratio * time_unit= [(SecondFraction-SubSeconds)/(SecondFraction+1)] * ti
 538:Drivers/STM32F0xx_HAL_Driver/Src/stm32f0xx_hal_rtc.c ****   *        This conversion can be performed only if no shift operation is pending (ie. SHFP=0) when
 539:Drivers/STM32F0xx_HAL_Driver/Src/stm32f0xx_hal_rtc.c ****   * @note You must call HAL_RTC_GetDate() after HAL_RTC_GetTime() to unlock the values 
 540:Drivers/STM32F0xx_HAL_Driver/Src/stm32f0xx_hal_rtc.c ****   * in the higher-order calendar shadow registers to ensure consistency between the time and date v
 541:Drivers/STM32F0xx_HAL_Driver/Src/stm32f0xx_hal_rtc.c ****   * Reading RTC current time locks the values in calendar shadow registers until Current date is re
 542:Drivers/STM32F0xx_HAL_Driver/Src/stm32f0xx_hal_rtc.c ****   * to ensure consistency between the time and date values.
 543:Drivers/STM32F0xx_HAL_Driver/Src/stm32f0xx_hal_rtc.c ****   * @retval HAL status
 544:Drivers/STM32F0xx_HAL_Driver/Src/stm32f0xx_hal_rtc.c ****   */
 545:Drivers/STM32F0xx_HAL_Driver/Src/stm32f0xx_hal_rtc.c **** HAL_StatusTypeDef HAL_RTC_GetTime(RTC_HandleTypeDef *hrtc, RTC_TimeTypeDef *sTime, uint32_t Format)
 546:Drivers/STM32F0xx_HAL_Driver/Src/stm32f0xx_hal_rtc.c **** {
  73              		.loc 1 546 1 is_stmt 1 view -0
  74              		.cfi_startproc
  75              		@ args = 0, pretend = 0, frame = 0
  76              		@ frame_needed = 0, uses_anonymous_args = 0
 547:Drivers/STM32F0xx_HAL_Driver/Src/stm32f0xx_hal_rtc.c ****   uint32_t tmpreg = 0;
  77              		.loc 1 547 3 view .LVU4
 548:Drivers/STM32F0xx_HAL_Driver/Src/stm32f0xx_hal_rtc.c **** 
 549:Drivers/STM32F0xx_HAL_Driver/Src/stm32f0xx_hal_rtc.c ****   /* Check the parameters */
 550:Drivers/STM32F0xx_HAL_Driver/Src/stm32f0xx_hal_rtc.c ****   assert_param(IS_RTC_FORMAT(Format));
  78              		.loc 1 550 3 view .LVU5
 551:Drivers/STM32F0xx_HAL_Driver/Src/stm32f0xx_hal_rtc.c ****   
 552:Drivers/STM32F0xx_HAL_Driver/Src/stm32f0xx_hal_rtc.c ****   /* Get subseconds structure field from the corresponding register*/
 553:Drivers/STM32F0xx_HAL_Driver/Src/stm32f0xx_hal_rtc.c ****   sTime->SubSeconds = (uint32_t)(hrtc->Instance->SSR);
  79              		.loc 1 553 3 view .LVU6
ARM GAS  /var/folders/vr/85797ndx6jd_r3n_lsprlrj40000gn/T//ccWMqnSu.s 			page 12


  80              		.loc 1 553 38 is_stmt 0 view .LVU7
  81 0000 0068     		ldr	r0, [r0]
  82              	.LVL2:
 546:Drivers/STM32F0xx_HAL_Driver/Src/stm32f0xx_hal_rtc.c ****   uint32_t tmpreg = 0;
  83              		.loc 1 546 1 view .LVU8
  84 0002 70B5     		push	{r4, r5, r6, lr}
  85              	.LCFI0:
  86              		.cfi_def_cfa_offset 16
  87              		.cfi_offset 4, -16
  88              		.cfi_offset 5, -12
  89              		.cfi_offset 6, -8
  90              		.cfi_offset 14, -4
  91              		.loc 1 553 48 view .LVU9
  92 0004 836A     		ldr	r3, [r0, #40]
 554:Drivers/STM32F0xx_HAL_Driver/Src/stm32f0xx_hal_rtc.c **** 
 555:Drivers/STM32F0xx_HAL_Driver/Src/stm32f0xx_hal_rtc.c ****   /* Get SecondFraction structure field from the corresponding register field*/
 556:Drivers/STM32F0xx_HAL_Driver/Src/stm32f0xx_hal_rtc.c ****   sTime->SecondFraction = (uint32_t)(hrtc->Instance->PRER & RTC_PRER_PREDIV_S);
 557:Drivers/STM32F0xx_HAL_Driver/Src/stm32f0xx_hal_rtc.c ****   
 558:Drivers/STM32F0xx_HAL_Driver/Src/stm32f0xx_hal_rtc.c ****   /* Get the TR register */
 559:Drivers/STM32F0xx_HAL_Driver/Src/stm32f0xx_hal_rtc.c ****   tmpreg = (uint32_t)(hrtc->Instance->TR & RTC_TR_RESERVED_MASK); 
 560:Drivers/STM32F0xx_HAL_Driver/Src/stm32f0xx_hal_rtc.c ****   
 561:Drivers/STM32F0xx_HAL_Driver/Src/stm32f0xx_hal_rtc.c ****   /* Fill the structure fields with the read parameters */
 562:Drivers/STM32F0xx_HAL_Driver/Src/stm32f0xx_hal_rtc.c ****   sTime->Hours = (uint8_t)((tmpreg & (RTC_TR_HT | RTC_TR_HU)) >> 16U);
 563:Drivers/STM32F0xx_HAL_Driver/Src/stm32f0xx_hal_rtc.c ****   sTime->Minutes = (uint8_t)((tmpreg & (RTC_TR_MNT | RTC_TR_MNU)) >>8U);
 564:Drivers/STM32F0xx_HAL_Driver/Src/stm32f0xx_hal_rtc.c ****   sTime->Seconds = (uint8_t)(tmpreg & (RTC_TR_ST | RTC_TR_SU));
 565:Drivers/STM32F0xx_HAL_Driver/Src/stm32f0xx_hal_rtc.c ****   sTime->TimeFormat = (uint8_t)((tmpreg & (RTC_TR_PM)) >> 16U); 
  93              		.loc 1 565 23 view .LVU10
  94 0006 4026     		movs	r6, #64
 553:Drivers/STM32F0xx_HAL_Driver/Src/stm32f0xx_hal_rtc.c **** 
  95              		.loc 1 553 21 view .LVU11
  96 0008 4B60     		str	r3, [r1, #4]
 556:Drivers/STM32F0xx_HAL_Driver/Src/stm32f0xx_hal_rtc.c ****   
  97              		.loc 1 556 3 is_stmt 1 view .LVU12
 556:Drivers/STM32F0xx_HAL_Driver/Src/stm32f0xx_hal_rtc.c ****   
  98              		.loc 1 556 52 is_stmt 0 view .LVU13
  99 000a 0369     		ldr	r3, [r0, #16]
 559:Drivers/STM32F0xx_HAL_Driver/Src/stm32f0xx_hal_rtc.c ****   
 100              		.loc 1 559 37 view .LVU14
 101 000c 0468     		ldr	r4, [r0]
 562:Drivers/STM32F0xx_HAL_Driver/Src/stm32f0xx_hal_rtc.c ****   sTime->Minutes = (uint8_t)((tmpreg & (RTC_TR_MNT | RTC_TR_MNU)) >>8U);
 102              		.loc 1 562 18 view .LVU15
 103 000e 3F20     		movs	r0, #63
 556:Drivers/STM32F0xx_HAL_Driver/Src/stm32f0xx_hal_rtc.c ****   
 104              		.loc 1 556 27 view .LVU16
 105 0010 5B04     		lsls	r3, r3, #17
 106 0012 5B0C     		lsrs	r3, r3, #17
 556:Drivers/STM32F0xx_HAL_Driver/Src/stm32f0xx_hal_rtc.c ****   
 107              		.loc 1 556 25 view .LVU17
 108 0014 8B60     		str	r3, [r1, #8]
 559:Drivers/STM32F0xx_HAL_Driver/Src/stm32f0xx_hal_rtc.c ****   
 109              		.loc 1 559 3 is_stmt 1 view .LVU18
 559:Drivers/STM32F0xx_HAL_Driver/Src/stm32f0xx_hal_rtc.c ****   
 110              		.loc 1 559 10 is_stmt 0 view .LVU19
 111 0016 134B     		ldr	r3, .L6
 112 0018 1C40     		ands	r4, r3
 113              	.LVL3:
 562:Drivers/STM32F0xx_HAL_Driver/Src/stm32f0xx_hal_rtc.c ****   sTime->Minutes = (uint8_t)((tmpreg & (RTC_TR_MNT | RTC_TR_MNU)) >>8U);
ARM GAS  /var/folders/vr/85797ndx6jd_r3n_lsprlrj40000gn/T//ccWMqnSu.s 			page 13


 114              		.loc 1 562 3 is_stmt 1 view .LVU20
 562:Drivers/STM32F0xx_HAL_Driver/Src/stm32f0xx_hal_rtc.c ****   sTime->Minutes = (uint8_t)((tmpreg & (RTC_TR_MNT | RTC_TR_MNU)) >>8U);
 115              		.loc 1 562 18 is_stmt 0 view .LVU21
 116 001a 250C     		lsrs	r5, r4, #16
 563:Drivers/STM32F0xx_HAL_Driver/Src/stm32f0xx_hal_rtc.c ****   sTime->Seconds = (uint8_t)(tmpreg & (RTC_TR_ST | RTC_TR_SU));
 117              		.loc 1 563 67 view .LVU22
 118 001c 230A     		lsrs	r3, r4, #8
 562:Drivers/STM32F0xx_HAL_Driver/Src/stm32f0xx_hal_rtc.c ****   sTime->Minutes = (uint8_t)((tmpreg & (RTC_TR_MNT | RTC_TR_MNU)) >>8U);
 119              		.loc 1 562 18 view .LVU23
 120 001e 2840     		ands	r0, r5
 563:Drivers/STM32F0xx_HAL_Driver/Src/stm32f0xx_hal_rtc.c ****   sTime->Seconds = (uint8_t)(tmpreg & (RTC_TR_ST | RTC_TR_SU));
 121              		.loc 1 563 20 view .LVU24
 122 0020 DBB2     		uxtb	r3, r3
 564:Drivers/STM32F0xx_HAL_Driver/Src/stm32f0xx_hal_rtc.c ****   sTime->TimeFormat = (uint8_t)((tmpreg & (RTC_TR_PM)) >> 16U); 
 123              		.loc 1 564 20 view .LVU25
 124 0022 E4B2     		uxtb	r4, r4
 125              	.LVL4:
 126              		.loc 1 565 23 view .LVU26
 127 0024 2E40     		ands	r6, r5
 562:Drivers/STM32F0xx_HAL_Driver/Src/stm32f0xx_hal_rtc.c ****   sTime->Minutes = (uint8_t)((tmpreg & (RTC_TR_MNT | RTC_TR_MNU)) >>8U);
 128              		.loc 1 562 16 view .LVU27
 129 0026 0870     		strb	r0, [r1]
 563:Drivers/STM32F0xx_HAL_Driver/Src/stm32f0xx_hal_rtc.c ****   sTime->Seconds = (uint8_t)(tmpreg & (RTC_TR_ST | RTC_TR_SU));
 130              		.loc 1 563 3 is_stmt 1 view .LVU28
 563:Drivers/STM32F0xx_HAL_Driver/Src/stm32f0xx_hal_rtc.c ****   sTime->Seconds = (uint8_t)(tmpreg & (RTC_TR_ST | RTC_TR_SU));
 131              		.loc 1 563 18 is_stmt 0 view .LVU29
 132 0028 4B70     		strb	r3, [r1, #1]
 564:Drivers/STM32F0xx_HAL_Driver/Src/stm32f0xx_hal_rtc.c ****   sTime->TimeFormat = (uint8_t)((tmpreg & (RTC_TR_PM)) >> 16U); 
 133              		.loc 1 564 3 is_stmt 1 view .LVU30
 564:Drivers/STM32F0xx_HAL_Driver/Src/stm32f0xx_hal_rtc.c ****   sTime->TimeFormat = (uint8_t)((tmpreg & (RTC_TR_PM)) >> 16U); 
 134              		.loc 1 564 18 is_stmt 0 view .LVU31
 135 002a 8C70     		strb	r4, [r1, #2]
 136              		.loc 1 565 3 is_stmt 1 view .LVU32
 137              		.loc 1 565 21 is_stmt 0 view .LVU33
 138 002c CE70     		strb	r6, [r1, #3]
 566:Drivers/STM32F0xx_HAL_Driver/Src/stm32f0xx_hal_rtc.c ****   
 567:Drivers/STM32F0xx_HAL_Driver/Src/stm32f0xx_hal_rtc.c ****   /* Check the input parameters format */
 568:Drivers/STM32F0xx_HAL_Driver/Src/stm32f0xx_hal_rtc.c ****   if(Format == RTC_FORMAT_BIN)
 139              		.loc 1 568 3 is_stmt 1 view .LVU34
 140              		.loc 1 568 5 is_stmt 0 view .LVU35
 141 002e 002A     		cmp	r2, #0
 142 0030 15D1     		bne	.L5
 569:Drivers/STM32F0xx_HAL_Driver/Src/stm32f0xx_hal_rtc.c ****   {
 570:Drivers/STM32F0xx_HAL_Driver/Src/stm32f0xx_hal_rtc.c ****     /* Convert the time structure parameters to Binary format */
 571:Drivers/STM32F0xx_HAL_Driver/Src/stm32f0xx_hal_rtc.c ****     sTime->Hours = (uint8_t)RTC_Bcd2ToByte(sTime->Hours);
 143              		.loc 1 571 5 is_stmt 1 view .LVU36
 144              	.LVL5:
 145              	.LBB68:
 146              	.LBI68:
 572:Drivers/STM32F0xx_HAL_Driver/Src/stm32f0xx_hal_rtc.c ****     sTime->Minutes = (uint8_t)RTC_Bcd2ToByte(sTime->Minutes);
 573:Drivers/STM32F0xx_HAL_Driver/Src/stm32f0xx_hal_rtc.c ****     sTime->Seconds = (uint8_t)RTC_Bcd2ToByte(sTime->Seconds);  
 574:Drivers/STM32F0xx_HAL_Driver/Src/stm32f0xx_hal_rtc.c ****   }
 575:Drivers/STM32F0xx_HAL_Driver/Src/stm32f0xx_hal_rtc.c ****   
 576:Drivers/STM32F0xx_HAL_Driver/Src/stm32f0xx_hal_rtc.c ****   return HAL_OK;
 577:Drivers/STM32F0xx_HAL_Driver/Src/stm32f0xx_hal_rtc.c **** }
 578:Drivers/STM32F0xx_HAL_Driver/Src/stm32f0xx_hal_rtc.c **** 
 579:Drivers/STM32F0xx_HAL_Driver/Src/stm32f0xx_hal_rtc.c **** /**
ARM GAS  /var/folders/vr/85797ndx6jd_r3n_lsprlrj40000gn/T//ccWMqnSu.s 			page 14


 580:Drivers/STM32F0xx_HAL_Driver/Src/stm32f0xx_hal_rtc.c ****   * @brief  Set RTC current date.
 581:Drivers/STM32F0xx_HAL_Driver/Src/stm32f0xx_hal_rtc.c ****   * @param  hrtc RTC handle
 582:Drivers/STM32F0xx_HAL_Driver/Src/stm32f0xx_hal_rtc.c ****   * @param  sDate Pointer to date structure
 583:Drivers/STM32F0xx_HAL_Driver/Src/stm32f0xx_hal_rtc.c ****   * @param  Format specifies the format of the entered parameters.
 584:Drivers/STM32F0xx_HAL_Driver/Src/stm32f0xx_hal_rtc.c ****   *          This parameter can be one of the following values:
 585:Drivers/STM32F0xx_HAL_Driver/Src/stm32f0xx_hal_rtc.c ****   *            @arg RTC_FORMAT_BIN: Binary data format 
 586:Drivers/STM32F0xx_HAL_Driver/Src/stm32f0xx_hal_rtc.c ****   *            @arg RTC_FORMAT_BCD: BCD data format
 587:Drivers/STM32F0xx_HAL_Driver/Src/stm32f0xx_hal_rtc.c ****   * @retval HAL status
 588:Drivers/STM32F0xx_HAL_Driver/Src/stm32f0xx_hal_rtc.c ****   */
 589:Drivers/STM32F0xx_HAL_Driver/Src/stm32f0xx_hal_rtc.c **** HAL_StatusTypeDef HAL_RTC_SetDate(RTC_HandleTypeDef *hrtc, RTC_DateTypeDef *sDate, uint32_t Format)
 590:Drivers/STM32F0xx_HAL_Driver/Src/stm32f0xx_hal_rtc.c **** {
 591:Drivers/STM32F0xx_HAL_Driver/Src/stm32f0xx_hal_rtc.c ****   uint32_t datetmpreg = 0U;
 592:Drivers/STM32F0xx_HAL_Driver/Src/stm32f0xx_hal_rtc.c ****   
 593:Drivers/STM32F0xx_HAL_Driver/Src/stm32f0xx_hal_rtc.c ****  /* Check the parameters */
 594:Drivers/STM32F0xx_HAL_Driver/Src/stm32f0xx_hal_rtc.c ****   assert_param(IS_RTC_FORMAT(Format));
 595:Drivers/STM32F0xx_HAL_Driver/Src/stm32f0xx_hal_rtc.c ****   
 596:Drivers/STM32F0xx_HAL_Driver/Src/stm32f0xx_hal_rtc.c ****  /* Process Locked */ 
 597:Drivers/STM32F0xx_HAL_Driver/Src/stm32f0xx_hal_rtc.c ****  __HAL_LOCK(hrtc);
 598:Drivers/STM32F0xx_HAL_Driver/Src/stm32f0xx_hal_rtc.c ****   
 599:Drivers/STM32F0xx_HAL_Driver/Src/stm32f0xx_hal_rtc.c ****   hrtc->State = HAL_RTC_STATE_BUSY; 
 600:Drivers/STM32F0xx_HAL_Driver/Src/stm32f0xx_hal_rtc.c ****   
 601:Drivers/STM32F0xx_HAL_Driver/Src/stm32f0xx_hal_rtc.c ****   if((Format == RTC_FORMAT_BIN) && ((sDate->Month & 0x10U) == 0x10U))
 602:Drivers/STM32F0xx_HAL_Driver/Src/stm32f0xx_hal_rtc.c ****   {
 603:Drivers/STM32F0xx_HAL_Driver/Src/stm32f0xx_hal_rtc.c ****     sDate->Month = (uint8_t)((sDate->Month & (uint8_t)~(0x10U)) + (uint8_t)0x0AU);
 604:Drivers/STM32F0xx_HAL_Driver/Src/stm32f0xx_hal_rtc.c ****   }
 605:Drivers/STM32F0xx_HAL_Driver/Src/stm32f0xx_hal_rtc.c ****   
 606:Drivers/STM32F0xx_HAL_Driver/Src/stm32f0xx_hal_rtc.c ****   assert_param(IS_RTC_WEEKDAY(sDate->WeekDay));
 607:Drivers/STM32F0xx_HAL_Driver/Src/stm32f0xx_hal_rtc.c ****   
 608:Drivers/STM32F0xx_HAL_Driver/Src/stm32f0xx_hal_rtc.c ****   if(Format == RTC_FORMAT_BIN)
 609:Drivers/STM32F0xx_HAL_Driver/Src/stm32f0xx_hal_rtc.c ****   {   
 610:Drivers/STM32F0xx_HAL_Driver/Src/stm32f0xx_hal_rtc.c ****     assert_param(IS_RTC_YEAR(sDate->Year));
 611:Drivers/STM32F0xx_HAL_Driver/Src/stm32f0xx_hal_rtc.c ****     assert_param(IS_RTC_MONTH(sDate->Month));
 612:Drivers/STM32F0xx_HAL_Driver/Src/stm32f0xx_hal_rtc.c ****     assert_param(IS_RTC_DATE(sDate->Date)); 
 613:Drivers/STM32F0xx_HAL_Driver/Src/stm32f0xx_hal_rtc.c ****     
 614:Drivers/STM32F0xx_HAL_Driver/Src/stm32f0xx_hal_rtc.c ****    datetmpreg = (((uint32_t)RTC_ByteToBcd2(sDate->Year) << 16U) | \
 615:Drivers/STM32F0xx_HAL_Driver/Src/stm32f0xx_hal_rtc.c ****                  ((uint32_t)RTC_ByteToBcd2(sDate->Month) << 8U) | \
 616:Drivers/STM32F0xx_HAL_Driver/Src/stm32f0xx_hal_rtc.c ****                  ((uint32_t)RTC_ByteToBcd2(sDate->Date)) | \
 617:Drivers/STM32F0xx_HAL_Driver/Src/stm32f0xx_hal_rtc.c ****                  ((uint32_t)sDate->WeekDay << 13U));   
 618:Drivers/STM32F0xx_HAL_Driver/Src/stm32f0xx_hal_rtc.c ****   }
 619:Drivers/STM32F0xx_HAL_Driver/Src/stm32f0xx_hal_rtc.c ****   else
 620:Drivers/STM32F0xx_HAL_Driver/Src/stm32f0xx_hal_rtc.c ****   {   
 621:Drivers/STM32F0xx_HAL_Driver/Src/stm32f0xx_hal_rtc.c ****     assert_param(IS_RTC_YEAR(RTC_Bcd2ToByte(sDate->Year)));
 622:Drivers/STM32F0xx_HAL_Driver/Src/stm32f0xx_hal_rtc.c ****     datetmpreg = RTC_Bcd2ToByte(sDate->Month);
 623:Drivers/STM32F0xx_HAL_Driver/Src/stm32f0xx_hal_rtc.c ****     assert_param(IS_RTC_MONTH(datetmpreg));
 624:Drivers/STM32F0xx_HAL_Driver/Src/stm32f0xx_hal_rtc.c ****     datetmpreg = RTC_Bcd2ToByte(sDate->Date);
 625:Drivers/STM32F0xx_HAL_Driver/Src/stm32f0xx_hal_rtc.c ****     assert_param(IS_RTC_DATE(datetmpreg));
 626:Drivers/STM32F0xx_HAL_Driver/Src/stm32f0xx_hal_rtc.c ****     
 627:Drivers/STM32F0xx_HAL_Driver/Src/stm32f0xx_hal_rtc.c ****     datetmpreg = ((((uint32_t)sDate->Year) << 16U) | \
 628:Drivers/STM32F0xx_HAL_Driver/Src/stm32f0xx_hal_rtc.c ****                   (((uint32_t)sDate->Month) << 8U) | \
 629:Drivers/STM32F0xx_HAL_Driver/Src/stm32f0xx_hal_rtc.c ****                   ((uint32_t)sDate->Date) | \
 630:Drivers/STM32F0xx_HAL_Driver/Src/stm32f0xx_hal_rtc.c ****                   (((uint32_t)sDate->WeekDay) << 13U));  
 631:Drivers/STM32F0xx_HAL_Driver/Src/stm32f0xx_hal_rtc.c ****   }
 632:Drivers/STM32F0xx_HAL_Driver/Src/stm32f0xx_hal_rtc.c **** 
 633:Drivers/STM32F0xx_HAL_Driver/Src/stm32f0xx_hal_rtc.c ****   /* Disable the write protection for RTC registers */
 634:Drivers/STM32F0xx_HAL_Driver/Src/stm32f0xx_hal_rtc.c ****   __HAL_RTC_WRITEPROTECTION_DISABLE(hrtc);
 635:Drivers/STM32F0xx_HAL_Driver/Src/stm32f0xx_hal_rtc.c ****   
 636:Drivers/STM32F0xx_HAL_Driver/Src/stm32f0xx_hal_rtc.c ****   /* Set Initialization mode */
ARM GAS  /var/folders/vr/85797ndx6jd_r3n_lsprlrj40000gn/T//ccWMqnSu.s 			page 15


 637:Drivers/STM32F0xx_HAL_Driver/Src/stm32f0xx_hal_rtc.c ****   if(RTC_EnterInitMode(hrtc) != HAL_OK)
 638:Drivers/STM32F0xx_HAL_Driver/Src/stm32f0xx_hal_rtc.c ****   {
 639:Drivers/STM32F0xx_HAL_Driver/Src/stm32f0xx_hal_rtc.c ****     /* Enable the write protection for RTC registers */
 640:Drivers/STM32F0xx_HAL_Driver/Src/stm32f0xx_hal_rtc.c ****     __HAL_RTC_WRITEPROTECTION_ENABLE(hrtc); 
 641:Drivers/STM32F0xx_HAL_Driver/Src/stm32f0xx_hal_rtc.c ****     
 642:Drivers/STM32F0xx_HAL_Driver/Src/stm32f0xx_hal_rtc.c ****     /* Set RTC state*/
 643:Drivers/STM32F0xx_HAL_Driver/Src/stm32f0xx_hal_rtc.c ****     hrtc->State = HAL_RTC_STATE_ERROR;
 644:Drivers/STM32F0xx_HAL_Driver/Src/stm32f0xx_hal_rtc.c ****     
 645:Drivers/STM32F0xx_HAL_Driver/Src/stm32f0xx_hal_rtc.c ****     /* Process Unlocked */ 
 646:Drivers/STM32F0xx_HAL_Driver/Src/stm32f0xx_hal_rtc.c ****     __HAL_UNLOCK(hrtc);
 647:Drivers/STM32F0xx_HAL_Driver/Src/stm32f0xx_hal_rtc.c ****     
 648:Drivers/STM32F0xx_HAL_Driver/Src/stm32f0xx_hal_rtc.c ****     return HAL_ERROR;
 649:Drivers/STM32F0xx_HAL_Driver/Src/stm32f0xx_hal_rtc.c ****   } 
 650:Drivers/STM32F0xx_HAL_Driver/Src/stm32f0xx_hal_rtc.c ****   else
 651:Drivers/STM32F0xx_HAL_Driver/Src/stm32f0xx_hal_rtc.c ****   {
 652:Drivers/STM32F0xx_HAL_Driver/Src/stm32f0xx_hal_rtc.c ****     /* Set the RTC_DR register */
 653:Drivers/STM32F0xx_HAL_Driver/Src/stm32f0xx_hal_rtc.c ****     hrtc->Instance->DR = (uint32_t)(datetmpreg & RTC_DR_RESERVED_MASK);
 654:Drivers/STM32F0xx_HAL_Driver/Src/stm32f0xx_hal_rtc.c ****     
 655:Drivers/STM32F0xx_HAL_Driver/Src/stm32f0xx_hal_rtc.c ****     /* Exit Initialization mode */
 656:Drivers/STM32F0xx_HAL_Driver/Src/stm32f0xx_hal_rtc.c ****     hrtc->Instance->ISR &= ((uint32_t)~RTC_ISR_INIT);
 657:Drivers/STM32F0xx_HAL_Driver/Src/stm32f0xx_hal_rtc.c **** 
 658:Drivers/STM32F0xx_HAL_Driver/Src/stm32f0xx_hal_rtc.c ****     /* If  CR_BYPSHAD bit = 0, wait for synchro else this check is not needed */
 659:Drivers/STM32F0xx_HAL_Driver/Src/stm32f0xx_hal_rtc.c ****     if((hrtc->Instance->CR & RTC_CR_BYPSHAD) == RESET)
 660:Drivers/STM32F0xx_HAL_Driver/Src/stm32f0xx_hal_rtc.c ****     {
 661:Drivers/STM32F0xx_HAL_Driver/Src/stm32f0xx_hal_rtc.c ****       if(HAL_RTC_WaitForSynchro(hrtc) != HAL_OK)
 662:Drivers/STM32F0xx_HAL_Driver/Src/stm32f0xx_hal_rtc.c ****       { 
 663:Drivers/STM32F0xx_HAL_Driver/Src/stm32f0xx_hal_rtc.c ****         /* Enable the write protection for RTC registers */
 664:Drivers/STM32F0xx_HAL_Driver/Src/stm32f0xx_hal_rtc.c ****         __HAL_RTC_WRITEPROTECTION_ENABLE(hrtc);  
 665:Drivers/STM32F0xx_HAL_Driver/Src/stm32f0xx_hal_rtc.c ****         
 666:Drivers/STM32F0xx_HAL_Driver/Src/stm32f0xx_hal_rtc.c ****         hrtc->State = HAL_RTC_STATE_ERROR;
 667:Drivers/STM32F0xx_HAL_Driver/Src/stm32f0xx_hal_rtc.c ****         
 668:Drivers/STM32F0xx_HAL_Driver/Src/stm32f0xx_hal_rtc.c ****         /* Process Unlocked */ 
 669:Drivers/STM32F0xx_HAL_Driver/Src/stm32f0xx_hal_rtc.c ****         __HAL_UNLOCK(hrtc);
 670:Drivers/STM32F0xx_HAL_Driver/Src/stm32f0xx_hal_rtc.c ****         
 671:Drivers/STM32F0xx_HAL_Driver/Src/stm32f0xx_hal_rtc.c ****         return HAL_ERROR;
 672:Drivers/STM32F0xx_HAL_Driver/Src/stm32f0xx_hal_rtc.c ****       }
 673:Drivers/STM32F0xx_HAL_Driver/Src/stm32f0xx_hal_rtc.c ****     }
 674:Drivers/STM32F0xx_HAL_Driver/Src/stm32f0xx_hal_rtc.c ****     
 675:Drivers/STM32F0xx_HAL_Driver/Src/stm32f0xx_hal_rtc.c ****     /* Enable the write protection for RTC registers */
 676:Drivers/STM32F0xx_HAL_Driver/Src/stm32f0xx_hal_rtc.c ****     __HAL_RTC_WRITEPROTECTION_ENABLE(hrtc);  
 677:Drivers/STM32F0xx_HAL_Driver/Src/stm32f0xx_hal_rtc.c ****     
 678:Drivers/STM32F0xx_HAL_Driver/Src/stm32f0xx_hal_rtc.c ****     hrtc->State = HAL_RTC_STATE_READY ;
 679:Drivers/STM32F0xx_HAL_Driver/Src/stm32f0xx_hal_rtc.c ****     
 680:Drivers/STM32F0xx_HAL_Driver/Src/stm32f0xx_hal_rtc.c ****     /* Process Unlocked */ 
 681:Drivers/STM32F0xx_HAL_Driver/Src/stm32f0xx_hal_rtc.c ****     __HAL_UNLOCK(hrtc);
 682:Drivers/STM32F0xx_HAL_Driver/Src/stm32f0xx_hal_rtc.c ****     
 683:Drivers/STM32F0xx_HAL_Driver/Src/stm32f0xx_hal_rtc.c ****     return HAL_OK;    
 684:Drivers/STM32F0xx_HAL_Driver/Src/stm32f0xx_hal_rtc.c ****   }
 685:Drivers/STM32F0xx_HAL_Driver/Src/stm32f0xx_hal_rtc.c **** }
 686:Drivers/STM32F0xx_HAL_Driver/Src/stm32f0xx_hal_rtc.c **** 
 687:Drivers/STM32F0xx_HAL_Driver/Src/stm32f0xx_hal_rtc.c **** /**
 688:Drivers/STM32F0xx_HAL_Driver/Src/stm32f0xx_hal_rtc.c ****   * @brief  Get RTC current date.
 689:Drivers/STM32F0xx_HAL_Driver/Src/stm32f0xx_hal_rtc.c ****   * @param  hrtc RTC handle
 690:Drivers/STM32F0xx_HAL_Driver/Src/stm32f0xx_hal_rtc.c ****   * @param  sDate Pointer to Date structure
 691:Drivers/STM32F0xx_HAL_Driver/Src/stm32f0xx_hal_rtc.c ****   * @param  Format Specifies the format of the entered parameters.
 692:Drivers/STM32F0xx_HAL_Driver/Src/stm32f0xx_hal_rtc.c ****   *          This parameter can be one of the following values:
 693:Drivers/STM32F0xx_HAL_Driver/Src/stm32f0xx_hal_rtc.c ****   *            @arg RTC_FORMAT_BIN :  Binary data format 
ARM GAS  /var/folders/vr/85797ndx6jd_r3n_lsprlrj40000gn/T//ccWMqnSu.s 			page 16


 694:Drivers/STM32F0xx_HAL_Driver/Src/stm32f0xx_hal_rtc.c ****   *            @arg RTC_FORMAT_BCD :  BCD data format
 695:Drivers/STM32F0xx_HAL_Driver/Src/stm32f0xx_hal_rtc.c ****   * @note You must call HAL_RTC_GetDate() after HAL_RTC_GetTime() to unlock the values 
 696:Drivers/STM32F0xx_HAL_Driver/Src/stm32f0xx_hal_rtc.c ****   * in the higher-order calendar shadow registers to ensure consistency between the time and date v
 697:Drivers/STM32F0xx_HAL_Driver/Src/stm32f0xx_hal_rtc.c ****   * Reading RTC current time locks the values in calendar shadow registers until Current date is re
 698:Drivers/STM32F0xx_HAL_Driver/Src/stm32f0xx_hal_rtc.c ****   * @retval HAL status
 699:Drivers/STM32F0xx_HAL_Driver/Src/stm32f0xx_hal_rtc.c ****   */
 700:Drivers/STM32F0xx_HAL_Driver/Src/stm32f0xx_hal_rtc.c **** HAL_StatusTypeDef HAL_RTC_GetDate(RTC_HandleTypeDef *hrtc, RTC_DateTypeDef *sDate, uint32_t Format)
 701:Drivers/STM32F0xx_HAL_Driver/Src/stm32f0xx_hal_rtc.c **** {
 702:Drivers/STM32F0xx_HAL_Driver/Src/stm32f0xx_hal_rtc.c ****   uint32_t datetmpreg = 0;
 703:Drivers/STM32F0xx_HAL_Driver/Src/stm32f0xx_hal_rtc.c **** 
 704:Drivers/STM32F0xx_HAL_Driver/Src/stm32f0xx_hal_rtc.c ****   /* Check the parameters */
 705:Drivers/STM32F0xx_HAL_Driver/Src/stm32f0xx_hal_rtc.c ****   assert_param(IS_RTC_FORMAT(Format));
 706:Drivers/STM32F0xx_HAL_Driver/Src/stm32f0xx_hal_rtc.c ****           
 707:Drivers/STM32F0xx_HAL_Driver/Src/stm32f0xx_hal_rtc.c ****   /* Get the DR register */
 708:Drivers/STM32F0xx_HAL_Driver/Src/stm32f0xx_hal_rtc.c ****   datetmpreg = (uint32_t)(hrtc->Instance->DR & RTC_DR_RESERVED_MASK); 
 709:Drivers/STM32F0xx_HAL_Driver/Src/stm32f0xx_hal_rtc.c **** 
 710:Drivers/STM32F0xx_HAL_Driver/Src/stm32f0xx_hal_rtc.c ****   /* Fill the structure fields with the read parameters */
 711:Drivers/STM32F0xx_HAL_Driver/Src/stm32f0xx_hal_rtc.c ****   sDate->Year = (uint8_t)((datetmpreg & (RTC_DR_YT | RTC_DR_YU)) >> 16U);
 712:Drivers/STM32F0xx_HAL_Driver/Src/stm32f0xx_hal_rtc.c ****   sDate->Month = (uint8_t)((datetmpreg & (RTC_DR_MT | RTC_DR_MU)) >> 8U);
 713:Drivers/STM32F0xx_HAL_Driver/Src/stm32f0xx_hal_rtc.c ****   sDate->Date = (uint8_t)(datetmpreg & (RTC_DR_DT | RTC_DR_DU));
 714:Drivers/STM32F0xx_HAL_Driver/Src/stm32f0xx_hal_rtc.c ****   sDate->WeekDay = (uint8_t)((datetmpreg & (RTC_DR_WDU)) >> 13U); 
 715:Drivers/STM32F0xx_HAL_Driver/Src/stm32f0xx_hal_rtc.c **** 
 716:Drivers/STM32F0xx_HAL_Driver/Src/stm32f0xx_hal_rtc.c ****   /* Check the input parameters format */
 717:Drivers/STM32F0xx_HAL_Driver/Src/stm32f0xx_hal_rtc.c ****   if(Format == RTC_FORMAT_BIN)
 718:Drivers/STM32F0xx_HAL_Driver/Src/stm32f0xx_hal_rtc.c ****   {    
 719:Drivers/STM32F0xx_HAL_Driver/Src/stm32f0xx_hal_rtc.c ****     /* Convert the date structure parameters to Binary format */
 720:Drivers/STM32F0xx_HAL_Driver/Src/stm32f0xx_hal_rtc.c ****     sDate->Year = (uint8_t)RTC_Bcd2ToByte(sDate->Year);
 721:Drivers/STM32F0xx_HAL_Driver/Src/stm32f0xx_hal_rtc.c ****     sDate->Month = (uint8_t)RTC_Bcd2ToByte(sDate->Month);
 722:Drivers/STM32F0xx_HAL_Driver/Src/stm32f0xx_hal_rtc.c ****     sDate->Date = (uint8_t)RTC_Bcd2ToByte(sDate->Date);  
 723:Drivers/STM32F0xx_HAL_Driver/Src/stm32f0xx_hal_rtc.c ****   }
 724:Drivers/STM32F0xx_HAL_Driver/Src/stm32f0xx_hal_rtc.c ****   return HAL_OK;
 725:Drivers/STM32F0xx_HAL_Driver/Src/stm32f0xx_hal_rtc.c **** }
 726:Drivers/STM32F0xx_HAL_Driver/Src/stm32f0xx_hal_rtc.c **** 
 727:Drivers/STM32F0xx_HAL_Driver/Src/stm32f0xx_hal_rtc.c **** /**
 728:Drivers/STM32F0xx_HAL_Driver/Src/stm32f0xx_hal_rtc.c ****   * @}
 729:Drivers/STM32F0xx_HAL_Driver/Src/stm32f0xx_hal_rtc.c ****   */
 730:Drivers/STM32F0xx_HAL_Driver/Src/stm32f0xx_hal_rtc.c **** 
 731:Drivers/STM32F0xx_HAL_Driver/Src/stm32f0xx_hal_rtc.c **** /** @addtogroup RTC_Exported_Functions_Group3
 732:Drivers/STM32F0xx_HAL_Driver/Src/stm32f0xx_hal_rtc.c ****  *  @brief   RTC Alarm functions
 733:Drivers/STM32F0xx_HAL_Driver/Src/stm32f0xx_hal_rtc.c ****  *
 734:Drivers/STM32F0xx_HAL_Driver/Src/stm32f0xx_hal_rtc.c **** @verbatim   
 735:Drivers/STM32F0xx_HAL_Driver/Src/stm32f0xx_hal_rtc.c ****  ===============================================================================
 736:Drivers/STM32F0xx_HAL_Driver/Src/stm32f0xx_hal_rtc.c ****                  ##### RTC Alarm functions #####
 737:Drivers/STM32F0xx_HAL_Driver/Src/stm32f0xx_hal_rtc.c ****  ===============================================================================  
 738:Drivers/STM32F0xx_HAL_Driver/Src/stm32f0xx_hal_rtc.c ****  
 739:Drivers/STM32F0xx_HAL_Driver/Src/stm32f0xx_hal_rtc.c ****  [..] This section provides functions allowing to configure Alarm feature
 740:Drivers/STM32F0xx_HAL_Driver/Src/stm32f0xx_hal_rtc.c **** 
 741:Drivers/STM32F0xx_HAL_Driver/Src/stm32f0xx_hal_rtc.c **** @endverbatim
 742:Drivers/STM32F0xx_HAL_Driver/Src/stm32f0xx_hal_rtc.c ****   * @{
 743:Drivers/STM32F0xx_HAL_Driver/Src/stm32f0xx_hal_rtc.c ****   */
 744:Drivers/STM32F0xx_HAL_Driver/Src/stm32f0xx_hal_rtc.c **** /**
 745:Drivers/STM32F0xx_HAL_Driver/Src/stm32f0xx_hal_rtc.c ****   * @brief  Set the specified RTC Alarm.
 746:Drivers/STM32F0xx_HAL_Driver/Src/stm32f0xx_hal_rtc.c ****   * @param  hrtc RTC handle
 747:Drivers/STM32F0xx_HAL_Driver/Src/stm32f0xx_hal_rtc.c ****   * @param  sAlarm Pointer to Alarm structure
 748:Drivers/STM32F0xx_HAL_Driver/Src/stm32f0xx_hal_rtc.c ****   * @param  Format Specifies the format of the entered parameters.
 749:Drivers/STM32F0xx_HAL_Driver/Src/stm32f0xx_hal_rtc.c ****   *          This parameter can be one of the following values:
 750:Drivers/STM32F0xx_HAL_Driver/Src/stm32f0xx_hal_rtc.c ****   *             @arg RTC_FORMAT_BIN: Binary data format 
ARM GAS  /var/folders/vr/85797ndx6jd_r3n_lsprlrj40000gn/T//ccWMqnSu.s 			page 17


 751:Drivers/STM32F0xx_HAL_Driver/Src/stm32f0xx_hal_rtc.c ****   *             @arg RTC_FORMAT_BCD: BCD data format
 752:Drivers/STM32F0xx_HAL_Driver/Src/stm32f0xx_hal_rtc.c ****   * @retval HAL status
 753:Drivers/STM32F0xx_HAL_Driver/Src/stm32f0xx_hal_rtc.c ****   */
 754:Drivers/STM32F0xx_HAL_Driver/Src/stm32f0xx_hal_rtc.c **** HAL_StatusTypeDef HAL_RTC_SetAlarm(RTC_HandleTypeDef *hrtc, RTC_AlarmTypeDef *sAlarm, uint32_t Form
 755:Drivers/STM32F0xx_HAL_Driver/Src/stm32f0xx_hal_rtc.c **** {
 756:Drivers/STM32F0xx_HAL_Driver/Src/stm32f0xx_hal_rtc.c ****   uint32_t tickstart = 0U;
 757:Drivers/STM32F0xx_HAL_Driver/Src/stm32f0xx_hal_rtc.c ****   uint32_t tmpreg = 0U, subsecondtmpreg = 0U;
 758:Drivers/STM32F0xx_HAL_Driver/Src/stm32f0xx_hal_rtc.c ****   
 759:Drivers/STM32F0xx_HAL_Driver/Src/stm32f0xx_hal_rtc.c ****   /* Check the parameters */
 760:Drivers/STM32F0xx_HAL_Driver/Src/stm32f0xx_hal_rtc.c ****   assert_param(IS_RTC_FORMAT(Format));
 761:Drivers/STM32F0xx_HAL_Driver/Src/stm32f0xx_hal_rtc.c ****   assert_param(IS_RTC_ALARM(sAlarm->Alarm));
 762:Drivers/STM32F0xx_HAL_Driver/Src/stm32f0xx_hal_rtc.c ****   assert_param(IS_RTC_ALARM_MASK(sAlarm->AlarmMask));
 763:Drivers/STM32F0xx_HAL_Driver/Src/stm32f0xx_hal_rtc.c ****   assert_param(IS_RTC_ALARM_DATE_WEEKDAY_SEL(sAlarm->AlarmDateWeekDaySel));
 764:Drivers/STM32F0xx_HAL_Driver/Src/stm32f0xx_hal_rtc.c ****   assert_param(IS_RTC_ALARM_SUB_SECOND_VALUE(sAlarm->AlarmTime.SubSeconds));
 765:Drivers/STM32F0xx_HAL_Driver/Src/stm32f0xx_hal_rtc.c ****   assert_param(IS_RTC_ALARM_SUB_SECOND_MASK(sAlarm->AlarmSubSecondMask));
 766:Drivers/STM32F0xx_HAL_Driver/Src/stm32f0xx_hal_rtc.c ****   
 767:Drivers/STM32F0xx_HAL_Driver/Src/stm32f0xx_hal_rtc.c ****   /* Process Locked */ 
 768:Drivers/STM32F0xx_HAL_Driver/Src/stm32f0xx_hal_rtc.c ****   __HAL_LOCK(hrtc);
 769:Drivers/STM32F0xx_HAL_Driver/Src/stm32f0xx_hal_rtc.c ****   
 770:Drivers/STM32F0xx_HAL_Driver/Src/stm32f0xx_hal_rtc.c ****   hrtc->State = HAL_RTC_STATE_BUSY;
 771:Drivers/STM32F0xx_HAL_Driver/Src/stm32f0xx_hal_rtc.c ****   
 772:Drivers/STM32F0xx_HAL_Driver/Src/stm32f0xx_hal_rtc.c ****   if(Format == RTC_FORMAT_BIN)
 773:Drivers/STM32F0xx_HAL_Driver/Src/stm32f0xx_hal_rtc.c ****   {
 774:Drivers/STM32F0xx_HAL_Driver/Src/stm32f0xx_hal_rtc.c ****     if((hrtc->Instance->CR & RTC_CR_FMT) != (uint32_t)RESET)
 775:Drivers/STM32F0xx_HAL_Driver/Src/stm32f0xx_hal_rtc.c ****     {
 776:Drivers/STM32F0xx_HAL_Driver/Src/stm32f0xx_hal_rtc.c ****       assert_param(IS_RTC_HOUR12(sAlarm->AlarmTime.Hours));
 777:Drivers/STM32F0xx_HAL_Driver/Src/stm32f0xx_hal_rtc.c ****       assert_param(IS_RTC_HOURFORMAT12(sAlarm->AlarmTime.TimeFormat));
 778:Drivers/STM32F0xx_HAL_Driver/Src/stm32f0xx_hal_rtc.c ****     } 
 779:Drivers/STM32F0xx_HAL_Driver/Src/stm32f0xx_hal_rtc.c ****     else
 780:Drivers/STM32F0xx_HAL_Driver/Src/stm32f0xx_hal_rtc.c ****     {
 781:Drivers/STM32F0xx_HAL_Driver/Src/stm32f0xx_hal_rtc.c ****       sAlarm->AlarmTime.TimeFormat = 0x00U;
 782:Drivers/STM32F0xx_HAL_Driver/Src/stm32f0xx_hal_rtc.c ****       assert_param(IS_RTC_HOUR24(sAlarm->AlarmTime.Hours));
 783:Drivers/STM32F0xx_HAL_Driver/Src/stm32f0xx_hal_rtc.c ****     }
 784:Drivers/STM32F0xx_HAL_Driver/Src/stm32f0xx_hal_rtc.c ****     assert_param(IS_RTC_MINUTES(sAlarm->AlarmTime.Minutes));
 785:Drivers/STM32F0xx_HAL_Driver/Src/stm32f0xx_hal_rtc.c ****     assert_param(IS_RTC_SECONDS(sAlarm->AlarmTime.Seconds));
 786:Drivers/STM32F0xx_HAL_Driver/Src/stm32f0xx_hal_rtc.c ****     
 787:Drivers/STM32F0xx_HAL_Driver/Src/stm32f0xx_hal_rtc.c ****     if(sAlarm->AlarmDateWeekDaySel == RTC_ALARMDATEWEEKDAYSEL_DATE)
 788:Drivers/STM32F0xx_HAL_Driver/Src/stm32f0xx_hal_rtc.c ****     {
 789:Drivers/STM32F0xx_HAL_Driver/Src/stm32f0xx_hal_rtc.c ****       assert_param(IS_RTC_ALARM_DATE_WEEKDAY_DATE(sAlarm->AlarmDateWeekDay));
 790:Drivers/STM32F0xx_HAL_Driver/Src/stm32f0xx_hal_rtc.c ****     }
 791:Drivers/STM32F0xx_HAL_Driver/Src/stm32f0xx_hal_rtc.c ****     else
 792:Drivers/STM32F0xx_HAL_Driver/Src/stm32f0xx_hal_rtc.c ****     {
 793:Drivers/STM32F0xx_HAL_Driver/Src/stm32f0xx_hal_rtc.c ****       assert_param(IS_RTC_ALARM_DATE_WEEKDAY_WEEKDAY(sAlarm->AlarmDateWeekDay));
 794:Drivers/STM32F0xx_HAL_Driver/Src/stm32f0xx_hal_rtc.c ****     }
 795:Drivers/STM32F0xx_HAL_Driver/Src/stm32f0xx_hal_rtc.c ****     
 796:Drivers/STM32F0xx_HAL_Driver/Src/stm32f0xx_hal_rtc.c ****     tmpreg = (((uint32_t)RTC_ByteToBcd2(sAlarm->AlarmTime.Hours) << 16U) | \
 797:Drivers/STM32F0xx_HAL_Driver/Src/stm32f0xx_hal_rtc.c ****               ((uint32_t)RTC_ByteToBcd2(sAlarm->AlarmTime.Minutes) << 8U) | \
 798:Drivers/STM32F0xx_HAL_Driver/Src/stm32f0xx_hal_rtc.c ****               ((uint32_t)RTC_ByteToBcd2(sAlarm->AlarmTime.Seconds)) | \
 799:Drivers/STM32F0xx_HAL_Driver/Src/stm32f0xx_hal_rtc.c ****               ((uint32_t)(sAlarm->AlarmTime.TimeFormat) << 16U) | \
 800:Drivers/STM32F0xx_HAL_Driver/Src/stm32f0xx_hal_rtc.c ****               ((uint32_t)RTC_ByteToBcd2(sAlarm->AlarmDateWeekDay) << 24U) | \
 801:Drivers/STM32F0xx_HAL_Driver/Src/stm32f0xx_hal_rtc.c ****               ((uint32_t)sAlarm->AlarmDateWeekDaySel) | \
 802:Drivers/STM32F0xx_HAL_Driver/Src/stm32f0xx_hal_rtc.c ****               ((uint32_t)sAlarm->AlarmMask)); 
 803:Drivers/STM32F0xx_HAL_Driver/Src/stm32f0xx_hal_rtc.c ****   }
 804:Drivers/STM32F0xx_HAL_Driver/Src/stm32f0xx_hal_rtc.c ****   else
 805:Drivers/STM32F0xx_HAL_Driver/Src/stm32f0xx_hal_rtc.c ****   {
 806:Drivers/STM32F0xx_HAL_Driver/Src/stm32f0xx_hal_rtc.c ****     if((hrtc->Instance->CR & RTC_CR_FMT) != (uint32_t)RESET)
 807:Drivers/STM32F0xx_HAL_Driver/Src/stm32f0xx_hal_rtc.c ****     {
ARM GAS  /var/folders/vr/85797ndx6jd_r3n_lsprlrj40000gn/T//ccWMqnSu.s 			page 18


 808:Drivers/STM32F0xx_HAL_Driver/Src/stm32f0xx_hal_rtc.c ****       tmpreg = RTC_Bcd2ToByte(sAlarm->AlarmTime.Hours);
 809:Drivers/STM32F0xx_HAL_Driver/Src/stm32f0xx_hal_rtc.c ****       assert_param(IS_RTC_HOUR12(tmpreg));
 810:Drivers/STM32F0xx_HAL_Driver/Src/stm32f0xx_hal_rtc.c ****       assert_param(IS_RTC_HOURFORMAT12(sAlarm->AlarmTime.TimeFormat));
 811:Drivers/STM32F0xx_HAL_Driver/Src/stm32f0xx_hal_rtc.c ****     } 
 812:Drivers/STM32F0xx_HAL_Driver/Src/stm32f0xx_hal_rtc.c ****     else
 813:Drivers/STM32F0xx_HAL_Driver/Src/stm32f0xx_hal_rtc.c ****     {
 814:Drivers/STM32F0xx_HAL_Driver/Src/stm32f0xx_hal_rtc.c ****       sAlarm->AlarmTime.TimeFormat = 0x00U;
 815:Drivers/STM32F0xx_HAL_Driver/Src/stm32f0xx_hal_rtc.c ****       assert_param(IS_RTC_HOUR24(RTC_Bcd2ToByte(sAlarm->AlarmTime.Hours)));
 816:Drivers/STM32F0xx_HAL_Driver/Src/stm32f0xx_hal_rtc.c ****     }
 817:Drivers/STM32F0xx_HAL_Driver/Src/stm32f0xx_hal_rtc.c ****     
 818:Drivers/STM32F0xx_HAL_Driver/Src/stm32f0xx_hal_rtc.c ****     assert_param(IS_RTC_MINUTES(RTC_Bcd2ToByte(sAlarm->AlarmTime.Minutes)));
 819:Drivers/STM32F0xx_HAL_Driver/Src/stm32f0xx_hal_rtc.c ****     assert_param(IS_RTC_SECONDS(RTC_Bcd2ToByte(sAlarm->AlarmTime.Seconds)));
 820:Drivers/STM32F0xx_HAL_Driver/Src/stm32f0xx_hal_rtc.c ****     
 821:Drivers/STM32F0xx_HAL_Driver/Src/stm32f0xx_hal_rtc.c ****     if(sAlarm->AlarmDateWeekDaySel == RTC_ALARMDATEWEEKDAYSEL_DATE)
 822:Drivers/STM32F0xx_HAL_Driver/Src/stm32f0xx_hal_rtc.c ****     {
 823:Drivers/STM32F0xx_HAL_Driver/Src/stm32f0xx_hal_rtc.c ****       tmpreg = RTC_Bcd2ToByte(sAlarm->AlarmDateWeekDay);
 824:Drivers/STM32F0xx_HAL_Driver/Src/stm32f0xx_hal_rtc.c ****       assert_param(IS_RTC_ALARM_DATE_WEEKDAY_DATE(tmpreg));    
 825:Drivers/STM32F0xx_HAL_Driver/Src/stm32f0xx_hal_rtc.c ****     }
 826:Drivers/STM32F0xx_HAL_Driver/Src/stm32f0xx_hal_rtc.c ****     else
 827:Drivers/STM32F0xx_HAL_Driver/Src/stm32f0xx_hal_rtc.c ****     {
 828:Drivers/STM32F0xx_HAL_Driver/Src/stm32f0xx_hal_rtc.c ****       tmpreg = RTC_Bcd2ToByte(sAlarm->AlarmDateWeekDay);
 829:Drivers/STM32F0xx_HAL_Driver/Src/stm32f0xx_hal_rtc.c ****       assert_param(IS_RTC_ALARM_DATE_WEEKDAY_WEEKDAY(tmpreg));      
 830:Drivers/STM32F0xx_HAL_Driver/Src/stm32f0xx_hal_rtc.c ****     }  
 831:Drivers/STM32F0xx_HAL_Driver/Src/stm32f0xx_hal_rtc.c ****     
 832:Drivers/STM32F0xx_HAL_Driver/Src/stm32f0xx_hal_rtc.c ****     tmpreg = (((uint32_t)(sAlarm->AlarmTime.Hours) << 16U) | \
 833:Drivers/STM32F0xx_HAL_Driver/Src/stm32f0xx_hal_rtc.c ****               ((uint32_t)(sAlarm->AlarmTime.Minutes) << 8U) | \
 834:Drivers/STM32F0xx_HAL_Driver/Src/stm32f0xx_hal_rtc.c ****               ((uint32_t) sAlarm->AlarmTime.Seconds) | \
 835:Drivers/STM32F0xx_HAL_Driver/Src/stm32f0xx_hal_rtc.c ****               ((uint32_t)(sAlarm->AlarmTime.TimeFormat) << 16U) | \
 836:Drivers/STM32F0xx_HAL_Driver/Src/stm32f0xx_hal_rtc.c ****               ((uint32_t)(sAlarm->AlarmDateWeekDay) << 24U) | \
 837:Drivers/STM32F0xx_HAL_Driver/Src/stm32f0xx_hal_rtc.c ****               ((uint32_t)sAlarm->AlarmDateWeekDaySel) | \
 838:Drivers/STM32F0xx_HAL_Driver/Src/stm32f0xx_hal_rtc.c ****               ((uint32_t)sAlarm->AlarmMask));   
 839:Drivers/STM32F0xx_HAL_Driver/Src/stm32f0xx_hal_rtc.c ****   }
 840:Drivers/STM32F0xx_HAL_Driver/Src/stm32f0xx_hal_rtc.c ****   
 841:Drivers/STM32F0xx_HAL_Driver/Src/stm32f0xx_hal_rtc.c ****   /* Configure the Alarm A Sub Second registers */
 842:Drivers/STM32F0xx_HAL_Driver/Src/stm32f0xx_hal_rtc.c ****   subsecondtmpreg = (uint32_t)((uint32_t)(sAlarm->AlarmTime.SubSeconds) | (uint32_t)(sAlarm->AlarmS
 843:Drivers/STM32F0xx_HAL_Driver/Src/stm32f0xx_hal_rtc.c ****   
 844:Drivers/STM32F0xx_HAL_Driver/Src/stm32f0xx_hal_rtc.c ****   /* Disable the write protection for RTC registers */
 845:Drivers/STM32F0xx_HAL_Driver/Src/stm32f0xx_hal_rtc.c ****   __HAL_RTC_WRITEPROTECTION_DISABLE(hrtc);
 846:Drivers/STM32F0xx_HAL_Driver/Src/stm32f0xx_hal_rtc.c **** 
 847:Drivers/STM32F0xx_HAL_Driver/Src/stm32f0xx_hal_rtc.c ****   /* Disable the Alarm A interrupt */
 848:Drivers/STM32F0xx_HAL_Driver/Src/stm32f0xx_hal_rtc.c ****   __HAL_RTC_ALARMA_DISABLE(hrtc);
 849:Drivers/STM32F0xx_HAL_Driver/Src/stm32f0xx_hal_rtc.c **** 
 850:Drivers/STM32F0xx_HAL_Driver/Src/stm32f0xx_hal_rtc.c ****   /* In case of interrupt mode is used, the interrupt source must disabled */ 
 851:Drivers/STM32F0xx_HAL_Driver/Src/stm32f0xx_hal_rtc.c ****   __HAL_RTC_ALARM_DISABLE_IT(hrtc, RTC_IT_ALRA);
 852:Drivers/STM32F0xx_HAL_Driver/Src/stm32f0xx_hal_rtc.c ****          
 853:Drivers/STM32F0xx_HAL_Driver/Src/stm32f0xx_hal_rtc.c ****   tickstart = HAL_GetTick();
 854:Drivers/STM32F0xx_HAL_Driver/Src/stm32f0xx_hal_rtc.c ****   /* Wait till RTC ALRAWF flag is set and if Time out is reached exit */
 855:Drivers/STM32F0xx_HAL_Driver/Src/stm32f0xx_hal_rtc.c ****   while(__HAL_RTC_ALARM_GET_FLAG(hrtc, RTC_FLAG_ALRAWF) == RESET)
 856:Drivers/STM32F0xx_HAL_Driver/Src/stm32f0xx_hal_rtc.c ****   {
 857:Drivers/STM32F0xx_HAL_Driver/Src/stm32f0xx_hal_rtc.c ****     if((HAL_GetTick()-tickstart) > RTC_TIMEOUT_VALUE)
 858:Drivers/STM32F0xx_HAL_Driver/Src/stm32f0xx_hal_rtc.c ****     {
 859:Drivers/STM32F0xx_HAL_Driver/Src/stm32f0xx_hal_rtc.c ****       /* Enable the write protection for RTC registers */
 860:Drivers/STM32F0xx_HAL_Driver/Src/stm32f0xx_hal_rtc.c ****       __HAL_RTC_WRITEPROTECTION_ENABLE(hrtc);
 861:Drivers/STM32F0xx_HAL_Driver/Src/stm32f0xx_hal_rtc.c **** 
 862:Drivers/STM32F0xx_HAL_Driver/Src/stm32f0xx_hal_rtc.c ****       hrtc->State = HAL_RTC_STATE_TIMEOUT; 
 863:Drivers/STM32F0xx_HAL_Driver/Src/stm32f0xx_hal_rtc.c **** 
 864:Drivers/STM32F0xx_HAL_Driver/Src/stm32f0xx_hal_rtc.c ****       /* Process Unlocked */ 
ARM GAS  /var/folders/vr/85797ndx6jd_r3n_lsprlrj40000gn/T//ccWMqnSu.s 			page 19


 865:Drivers/STM32F0xx_HAL_Driver/Src/stm32f0xx_hal_rtc.c ****       __HAL_UNLOCK(hrtc);
 866:Drivers/STM32F0xx_HAL_Driver/Src/stm32f0xx_hal_rtc.c ****         
 867:Drivers/STM32F0xx_HAL_Driver/Src/stm32f0xx_hal_rtc.c ****       return HAL_TIMEOUT;
 868:Drivers/STM32F0xx_HAL_Driver/Src/stm32f0xx_hal_rtc.c ****     }
 869:Drivers/STM32F0xx_HAL_Driver/Src/stm32f0xx_hal_rtc.c ****   }
 870:Drivers/STM32F0xx_HAL_Driver/Src/stm32f0xx_hal_rtc.c ****     
 871:Drivers/STM32F0xx_HAL_Driver/Src/stm32f0xx_hal_rtc.c ****   hrtc->Instance->ALRMAR = (uint32_t)tmpreg;
 872:Drivers/STM32F0xx_HAL_Driver/Src/stm32f0xx_hal_rtc.c ****   /* Configure the Alarm A Sub Second register */
 873:Drivers/STM32F0xx_HAL_Driver/Src/stm32f0xx_hal_rtc.c ****   hrtc->Instance->ALRMASSR = subsecondtmpreg;
 874:Drivers/STM32F0xx_HAL_Driver/Src/stm32f0xx_hal_rtc.c ****   /* Configure the Alarm state: Enable Alarm */
 875:Drivers/STM32F0xx_HAL_Driver/Src/stm32f0xx_hal_rtc.c ****   __HAL_RTC_ALARMA_ENABLE(hrtc);
 876:Drivers/STM32F0xx_HAL_Driver/Src/stm32f0xx_hal_rtc.c ****   
 877:Drivers/STM32F0xx_HAL_Driver/Src/stm32f0xx_hal_rtc.c ****   /* Enable the write protection for RTC registers */
 878:Drivers/STM32F0xx_HAL_Driver/Src/stm32f0xx_hal_rtc.c ****   __HAL_RTC_WRITEPROTECTION_ENABLE(hrtc);   
 879:Drivers/STM32F0xx_HAL_Driver/Src/stm32f0xx_hal_rtc.c ****   
 880:Drivers/STM32F0xx_HAL_Driver/Src/stm32f0xx_hal_rtc.c ****   /* Change RTC state */
 881:Drivers/STM32F0xx_HAL_Driver/Src/stm32f0xx_hal_rtc.c ****   hrtc->State = HAL_RTC_STATE_READY; 
 882:Drivers/STM32F0xx_HAL_Driver/Src/stm32f0xx_hal_rtc.c ****   
 883:Drivers/STM32F0xx_HAL_Driver/Src/stm32f0xx_hal_rtc.c ****   /* Process Unlocked */ 
 884:Drivers/STM32F0xx_HAL_Driver/Src/stm32f0xx_hal_rtc.c ****   __HAL_UNLOCK(hrtc);
 885:Drivers/STM32F0xx_HAL_Driver/Src/stm32f0xx_hal_rtc.c ****   
 886:Drivers/STM32F0xx_HAL_Driver/Src/stm32f0xx_hal_rtc.c ****   return HAL_OK;
 887:Drivers/STM32F0xx_HAL_Driver/Src/stm32f0xx_hal_rtc.c **** }
 888:Drivers/STM32F0xx_HAL_Driver/Src/stm32f0xx_hal_rtc.c **** 
 889:Drivers/STM32F0xx_HAL_Driver/Src/stm32f0xx_hal_rtc.c **** /**
 890:Drivers/STM32F0xx_HAL_Driver/Src/stm32f0xx_hal_rtc.c ****   * @brief  Set the specified RTC Alarm with Interrupt.
 891:Drivers/STM32F0xx_HAL_Driver/Src/stm32f0xx_hal_rtc.c ****   * @param  hrtc RTC handle
 892:Drivers/STM32F0xx_HAL_Driver/Src/stm32f0xx_hal_rtc.c ****   * @param  sAlarm Pointer to Alarm structure
 893:Drivers/STM32F0xx_HAL_Driver/Src/stm32f0xx_hal_rtc.c ****   * @param  Format Specifies the format of the entered parameters.
 894:Drivers/STM32F0xx_HAL_Driver/Src/stm32f0xx_hal_rtc.c ****   *          This parameter can be one of the following values:
 895:Drivers/STM32F0xx_HAL_Driver/Src/stm32f0xx_hal_rtc.c ****   *             @arg RTC_FORMAT_BIN: Binary data format 
 896:Drivers/STM32F0xx_HAL_Driver/Src/stm32f0xx_hal_rtc.c ****   *             @arg RTC_FORMAT_BCD: BCD data format
 897:Drivers/STM32F0xx_HAL_Driver/Src/stm32f0xx_hal_rtc.c ****   * @note   The Alarm register can only be written when the corresponding Alarm
 898:Drivers/STM32F0xx_HAL_Driver/Src/stm32f0xx_hal_rtc.c ****   *         is disabled (Use the HAL_RTC_DeactivateAlarm()).   
 899:Drivers/STM32F0xx_HAL_Driver/Src/stm32f0xx_hal_rtc.c ****   * @note   The HAL_RTC_SetTime() must be called before enabling the Alarm feature.   
 900:Drivers/STM32F0xx_HAL_Driver/Src/stm32f0xx_hal_rtc.c ****   * @retval HAL status
 901:Drivers/STM32F0xx_HAL_Driver/Src/stm32f0xx_hal_rtc.c ****   */
 902:Drivers/STM32F0xx_HAL_Driver/Src/stm32f0xx_hal_rtc.c **** HAL_StatusTypeDef HAL_RTC_SetAlarm_IT(RTC_HandleTypeDef *hrtc, RTC_AlarmTypeDef *sAlarm, uint32_t F
 903:Drivers/STM32F0xx_HAL_Driver/Src/stm32f0xx_hal_rtc.c **** {
 904:Drivers/STM32F0xx_HAL_Driver/Src/stm32f0xx_hal_rtc.c ****   uint32_t tickstart = 0U;
 905:Drivers/STM32F0xx_HAL_Driver/Src/stm32f0xx_hal_rtc.c ****   uint32_t tmpreg = 0U, subsecondtmpreg = 0U;
 906:Drivers/STM32F0xx_HAL_Driver/Src/stm32f0xx_hal_rtc.c ****   
 907:Drivers/STM32F0xx_HAL_Driver/Src/stm32f0xx_hal_rtc.c ****   /* Check the parameters */
 908:Drivers/STM32F0xx_HAL_Driver/Src/stm32f0xx_hal_rtc.c ****   assert_param(IS_RTC_FORMAT(Format));
 909:Drivers/STM32F0xx_HAL_Driver/Src/stm32f0xx_hal_rtc.c ****   assert_param(IS_RTC_ALARM(sAlarm->Alarm));
 910:Drivers/STM32F0xx_HAL_Driver/Src/stm32f0xx_hal_rtc.c ****   assert_param(IS_RTC_ALARM_MASK(sAlarm->AlarmMask));
 911:Drivers/STM32F0xx_HAL_Driver/Src/stm32f0xx_hal_rtc.c ****   assert_param(IS_RTC_ALARM_DATE_WEEKDAY_SEL(sAlarm->AlarmDateWeekDaySel));
 912:Drivers/STM32F0xx_HAL_Driver/Src/stm32f0xx_hal_rtc.c ****   assert_param(IS_RTC_ALARM_SUB_SECOND_VALUE(sAlarm->AlarmTime.SubSeconds));
 913:Drivers/STM32F0xx_HAL_Driver/Src/stm32f0xx_hal_rtc.c ****   assert_param(IS_RTC_ALARM_SUB_SECOND_MASK(sAlarm->AlarmSubSecondMask));
 914:Drivers/STM32F0xx_HAL_Driver/Src/stm32f0xx_hal_rtc.c ****       
 915:Drivers/STM32F0xx_HAL_Driver/Src/stm32f0xx_hal_rtc.c ****   /* Process Locked */ 
 916:Drivers/STM32F0xx_HAL_Driver/Src/stm32f0xx_hal_rtc.c ****   __HAL_LOCK(hrtc);
 917:Drivers/STM32F0xx_HAL_Driver/Src/stm32f0xx_hal_rtc.c ****   
 918:Drivers/STM32F0xx_HAL_Driver/Src/stm32f0xx_hal_rtc.c ****   hrtc->State = HAL_RTC_STATE_BUSY;
 919:Drivers/STM32F0xx_HAL_Driver/Src/stm32f0xx_hal_rtc.c ****   
 920:Drivers/STM32F0xx_HAL_Driver/Src/stm32f0xx_hal_rtc.c ****   if(Format == RTC_FORMAT_BIN)
 921:Drivers/STM32F0xx_HAL_Driver/Src/stm32f0xx_hal_rtc.c ****   {
ARM GAS  /var/folders/vr/85797ndx6jd_r3n_lsprlrj40000gn/T//ccWMqnSu.s 			page 20


 922:Drivers/STM32F0xx_HAL_Driver/Src/stm32f0xx_hal_rtc.c ****     if((hrtc->Instance->CR & RTC_CR_FMT) != (uint32_t)RESET)
 923:Drivers/STM32F0xx_HAL_Driver/Src/stm32f0xx_hal_rtc.c ****     {
 924:Drivers/STM32F0xx_HAL_Driver/Src/stm32f0xx_hal_rtc.c ****       assert_param(IS_RTC_HOUR12(sAlarm->AlarmTime.Hours));
 925:Drivers/STM32F0xx_HAL_Driver/Src/stm32f0xx_hal_rtc.c ****       assert_param(IS_RTC_HOURFORMAT12(sAlarm->AlarmTime.TimeFormat));
 926:Drivers/STM32F0xx_HAL_Driver/Src/stm32f0xx_hal_rtc.c ****     } 
 927:Drivers/STM32F0xx_HAL_Driver/Src/stm32f0xx_hal_rtc.c ****     else
 928:Drivers/STM32F0xx_HAL_Driver/Src/stm32f0xx_hal_rtc.c ****     {
 929:Drivers/STM32F0xx_HAL_Driver/Src/stm32f0xx_hal_rtc.c ****       sAlarm->AlarmTime.TimeFormat = 0x00U;
 930:Drivers/STM32F0xx_HAL_Driver/Src/stm32f0xx_hal_rtc.c ****       assert_param(IS_RTC_HOUR24(sAlarm->AlarmTime.Hours));
 931:Drivers/STM32F0xx_HAL_Driver/Src/stm32f0xx_hal_rtc.c ****     }
 932:Drivers/STM32F0xx_HAL_Driver/Src/stm32f0xx_hal_rtc.c ****     assert_param(IS_RTC_MINUTES(sAlarm->AlarmTime.Minutes));
 933:Drivers/STM32F0xx_HAL_Driver/Src/stm32f0xx_hal_rtc.c ****     assert_param(IS_RTC_SECONDS(sAlarm->AlarmTime.Seconds));
 934:Drivers/STM32F0xx_HAL_Driver/Src/stm32f0xx_hal_rtc.c ****     
 935:Drivers/STM32F0xx_HAL_Driver/Src/stm32f0xx_hal_rtc.c ****     if(sAlarm->AlarmDateWeekDaySel == RTC_ALARMDATEWEEKDAYSEL_DATE)
 936:Drivers/STM32F0xx_HAL_Driver/Src/stm32f0xx_hal_rtc.c ****     {
 937:Drivers/STM32F0xx_HAL_Driver/Src/stm32f0xx_hal_rtc.c ****       assert_param(IS_RTC_ALARM_DATE_WEEKDAY_DATE(sAlarm->AlarmDateWeekDay));
 938:Drivers/STM32F0xx_HAL_Driver/Src/stm32f0xx_hal_rtc.c ****     }
 939:Drivers/STM32F0xx_HAL_Driver/Src/stm32f0xx_hal_rtc.c ****     else
 940:Drivers/STM32F0xx_HAL_Driver/Src/stm32f0xx_hal_rtc.c ****     {
 941:Drivers/STM32F0xx_HAL_Driver/Src/stm32f0xx_hal_rtc.c ****       assert_param(IS_RTC_ALARM_DATE_WEEKDAY_WEEKDAY(sAlarm->AlarmDateWeekDay));
 942:Drivers/STM32F0xx_HAL_Driver/Src/stm32f0xx_hal_rtc.c ****     }
 943:Drivers/STM32F0xx_HAL_Driver/Src/stm32f0xx_hal_rtc.c ****     tmpreg = (((uint32_t)RTC_ByteToBcd2(sAlarm->AlarmTime.Hours) << 16U) | \
 944:Drivers/STM32F0xx_HAL_Driver/Src/stm32f0xx_hal_rtc.c ****               ((uint32_t)RTC_ByteToBcd2(sAlarm->AlarmTime.Minutes) << 8U) | \
 945:Drivers/STM32F0xx_HAL_Driver/Src/stm32f0xx_hal_rtc.c ****               ((uint32_t)RTC_ByteToBcd2(sAlarm->AlarmTime.Seconds)) | \
 946:Drivers/STM32F0xx_HAL_Driver/Src/stm32f0xx_hal_rtc.c ****               ((uint32_t)(sAlarm->AlarmTime.TimeFormat) << 16U) | \
 947:Drivers/STM32F0xx_HAL_Driver/Src/stm32f0xx_hal_rtc.c ****               ((uint32_t)RTC_ByteToBcd2(sAlarm->AlarmDateWeekDay) << 24U) | \
 948:Drivers/STM32F0xx_HAL_Driver/Src/stm32f0xx_hal_rtc.c ****               ((uint32_t)sAlarm->AlarmDateWeekDaySel) | \
 949:Drivers/STM32F0xx_HAL_Driver/Src/stm32f0xx_hal_rtc.c ****               ((uint32_t)sAlarm->AlarmMask)); 
 950:Drivers/STM32F0xx_HAL_Driver/Src/stm32f0xx_hal_rtc.c ****   }
 951:Drivers/STM32F0xx_HAL_Driver/Src/stm32f0xx_hal_rtc.c ****   else
 952:Drivers/STM32F0xx_HAL_Driver/Src/stm32f0xx_hal_rtc.c ****   {
 953:Drivers/STM32F0xx_HAL_Driver/Src/stm32f0xx_hal_rtc.c ****     if((hrtc->Instance->CR & RTC_CR_FMT) != (uint32_t)RESET)
 954:Drivers/STM32F0xx_HAL_Driver/Src/stm32f0xx_hal_rtc.c ****     {
 955:Drivers/STM32F0xx_HAL_Driver/Src/stm32f0xx_hal_rtc.c ****       tmpreg = RTC_Bcd2ToByte(sAlarm->AlarmTime.Hours);
 956:Drivers/STM32F0xx_HAL_Driver/Src/stm32f0xx_hal_rtc.c ****       assert_param(IS_RTC_HOUR12(tmpreg));
 957:Drivers/STM32F0xx_HAL_Driver/Src/stm32f0xx_hal_rtc.c ****       assert_param(IS_RTC_HOURFORMAT12(sAlarm->AlarmTime.TimeFormat));
 958:Drivers/STM32F0xx_HAL_Driver/Src/stm32f0xx_hal_rtc.c ****     } 
 959:Drivers/STM32F0xx_HAL_Driver/Src/stm32f0xx_hal_rtc.c ****     else
 960:Drivers/STM32F0xx_HAL_Driver/Src/stm32f0xx_hal_rtc.c ****     {
 961:Drivers/STM32F0xx_HAL_Driver/Src/stm32f0xx_hal_rtc.c ****       sAlarm->AlarmTime.TimeFormat = 0x00U;
 962:Drivers/STM32F0xx_HAL_Driver/Src/stm32f0xx_hal_rtc.c ****       assert_param(IS_RTC_HOUR24(RTC_Bcd2ToByte(sAlarm->AlarmTime.Hours)));
 963:Drivers/STM32F0xx_HAL_Driver/Src/stm32f0xx_hal_rtc.c ****     }
 964:Drivers/STM32F0xx_HAL_Driver/Src/stm32f0xx_hal_rtc.c ****     
 965:Drivers/STM32F0xx_HAL_Driver/Src/stm32f0xx_hal_rtc.c ****     assert_param(IS_RTC_MINUTES(RTC_Bcd2ToByte(sAlarm->AlarmTime.Minutes)));
 966:Drivers/STM32F0xx_HAL_Driver/Src/stm32f0xx_hal_rtc.c ****     assert_param(IS_RTC_SECONDS(RTC_Bcd2ToByte(sAlarm->AlarmTime.Seconds)));
 967:Drivers/STM32F0xx_HAL_Driver/Src/stm32f0xx_hal_rtc.c ****     
 968:Drivers/STM32F0xx_HAL_Driver/Src/stm32f0xx_hal_rtc.c ****     if(sAlarm->AlarmDateWeekDaySel == RTC_ALARMDATEWEEKDAYSEL_DATE)
 969:Drivers/STM32F0xx_HAL_Driver/Src/stm32f0xx_hal_rtc.c ****     {
 970:Drivers/STM32F0xx_HAL_Driver/Src/stm32f0xx_hal_rtc.c ****       tmpreg = RTC_Bcd2ToByte(sAlarm->AlarmDateWeekDay);
 971:Drivers/STM32F0xx_HAL_Driver/Src/stm32f0xx_hal_rtc.c ****       assert_param(IS_RTC_ALARM_DATE_WEEKDAY_DATE(tmpreg));    
 972:Drivers/STM32F0xx_HAL_Driver/Src/stm32f0xx_hal_rtc.c ****     }
 973:Drivers/STM32F0xx_HAL_Driver/Src/stm32f0xx_hal_rtc.c ****     else
 974:Drivers/STM32F0xx_HAL_Driver/Src/stm32f0xx_hal_rtc.c ****     {
 975:Drivers/STM32F0xx_HAL_Driver/Src/stm32f0xx_hal_rtc.c ****       tmpreg = RTC_Bcd2ToByte(sAlarm->AlarmDateWeekDay);
 976:Drivers/STM32F0xx_HAL_Driver/Src/stm32f0xx_hal_rtc.c ****       assert_param(IS_RTC_ALARM_DATE_WEEKDAY_WEEKDAY(tmpreg));      
 977:Drivers/STM32F0xx_HAL_Driver/Src/stm32f0xx_hal_rtc.c ****     }
 978:Drivers/STM32F0xx_HAL_Driver/Src/stm32f0xx_hal_rtc.c ****     tmpreg = (((uint32_t)(sAlarm->AlarmTime.Hours) << 16U) | \
ARM GAS  /var/folders/vr/85797ndx6jd_r3n_lsprlrj40000gn/T//ccWMqnSu.s 			page 21


 979:Drivers/STM32F0xx_HAL_Driver/Src/stm32f0xx_hal_rtc.c ****               ((uint32_t)(sAlarm->AlarmTime.Minutes) << 8U) | \
 980:Drivers/STM32F0xx_HAL_Driver/Src/stm32f0xx_hal_rtc.c ****               ((uint32_t) sAlarm->AlarmTime.Seconds) | \
 981:Drivers/STM32F0xx_HAL_Driver/Src/stm32f0xx_hal_rtc.c ****               ((uint32_t)(sAlarm->AlarmTime.TimeFormat) << 16U) | \
 982:Drivers/STM32F0xx_HAL_Driver/Src/stm32f0xx_hal_rtc.c ****               ((uint32_t)(sAlarm->AlarmDateWeekDay) << 24U) | \
 983:Drivers/STM32F0xx_HAL_Driver/Src/stm32f0xx_hal_rtc.c ****               ((uint32_t)sAlarm->AlarmDateWeekDaySel) | \
 984:Drivers/STM32F0xx_HAL_Driver/Src/stm32f0xx_hal_rtc.c ****               ((uint32_t)sAlarm->AlarmMask));     
 985:Drivers/STM32F0xx_HAL_Driver/Src/stm32f0xx_hal_rtc.c ****   }
 986:Drivers/STM32F0xx_HAL_Driver/Src/stm32f0xx_hal_rtc.c ****   /* Configure the Alarm A Sub Second registers */
 987:Drivers/STM32F0xx_HAL_Driver/Src/stm32f0xx_hal_rtc.c ****   subsecondtmpreg = (uint32_t)((uint32_t)(sAlarm->AlarmTime.SubSeconds) | (uint32_t)(sAlarm->AlarmS
 988:Drivers/STM32F0xx_HAL_Driver/Src/stm32f0xx_hal_rtc.c ****   
 989:Drivers/STM32F0xx_HAL_Driver/Src/stm32f0xx_hal_rtc.c ****   /* Disable the write protection for RTC registers */
 990:Drivers/STM32F0xx_HAL_Driver/Src/stm32f0xx_hal_rtc.c ****   __HAL_RTC_WRITEPROTECTION_DISABLE(hrtc);
 991:Drivers/STM32F0xx_HAL_Driver/Src/stm32f0xx_hal_rtc.c ****   
 992:Drivers/STM32F0xx_HAL_Driver/Src/stm32f0xx_hal_rtc.c ****   /* Disable the Alarm A interrupt */
 993:Drivers/STM32F0xx_HAL_Driver/Src/stm32f0xx_hal_rtc.c ****   __HAL_RTC_ALARMA_DISABLE(hrtc);
 994:Drivers/STM32F0xx_HAL_Driver/Src/stm32f0xx_hal_rtc.c **** 
 995:Drivers/STM32F0xx_HAL_Driver/Src/stm32f0xx_hal_rtc.c ****   /* Clear flag alarm A */
 996:Drivers/STM32F0xx_HAL_Driver/Src/stm32f0xx_hal_rtc.c ****   __HAL_RTC_ALARM_CLEAR_FLAG(hrtc, RTC_FLAG_ALRAF);
 997:Drivers/STM32F0xx_HAL_Driver/Src/stm32f0xx_hal_rtc.c **** 
 998:Drivers/STM32F0xx_HAL_Driver/Src/stm32f0xx_hal_rtc.c ****   tickstart = HAL_GetTick();
 999:Drivers/STM32F0xx_HAL_Driver/Src/stm32f0xx_hal_rtc.c ****   
1000:Drivers/STM32F0xx_HAL_Driver/Src/stm32f0xx_hal_rtc.c ****   /* Wait till RTC ALRAWF flag is set and if Time out is reached exit */
1001:Drivers/STM32F0xx_HAL_Driver/Src/stm32f0xx_hal_rtc.c ****   while(__HAL_RTC_ALARM_GET_FLAG(hrtc, RTC_FLAG_ALRAWF) == RESET)
1002:Drivers/STM32F0xx_HAL_Driver/Src/stm32f0xx_hal_rtc.c ****   {
1003:Drivers/STM32F0xx_HAL_Driver/Src/stm32f0xx_hal_rtc.c ****     if((HAL_GetTick()-tickstart) > RTC_TIMEOUT_VALUE)
1004:Drivers/STM32F0xx_HAL_Driver/Src/stm32f0xx_hal_rtc.c ****     {
1005:Drivers/STM32F0xx_HAL_Driver/Src/stm32f0xx_hal_rtc.c ****       /* Enable the write protection for RTC registers */
1006:Drivers/STM32F0xx_HAL_Driver/Src/stm32f0xx_hal_rtc.c ****       __HAL_RTC_WRITEPROTECTION_ENABLE(hrtc);
1007:Drivers/STM32F0xx_HAL_Driver/Src/stm32f0xx_hal_rtc.c ****         
1008:Drivers/STM32F0xx_HAL_Driver/Src/stm32f0xx_hal_rtc.c ****       hrtc->State = HAL_RTC_STATE_TIMEOUT; 
1009:Drivers/STM32F0xx_HAL_Driver/Src/stm32f0xx_hal_rtc.c ****         
1010:Drivers/STM32F0xx_HAL_Driver/Src/stm32f0xx_hal_rtc.c ****       /* Process Unlocked */ 
1011:Drivers/STM32F0xx_HAL_Driver/Src/stm32f0xx_hal_rtc.c ****       __HAL_UNLOCK(hrtc);
1012:Drivers/STM32F0xx_HAL_Driver/Src/stm32f0xx_hal_rtc.c ****         
1013:Drivers/STM32F0xx_HAL_Driver/Src/stm32f0xx_hal_rtc.c ****       return HAL_TIMEOUT;
1014:Drivers/STM32F0xx_HAL_Driver/Src/stm32f0xx_hal_rtc.c ****     }  
1015:Drivers/STM32F0xx_HAL_Driver/Src/stm32f0xx_hal_rtc.c ****   }
1016:Drivers/STM32F0xx_HAL_Driver/Src/stm32f0xx_hal_rtc.c ****     
1017:Drivers/STM32F0xx_HAL_Driver/Src/stm32f0xx_hal_rtc.c ****   hrtc->Instance->ALRMAR = (uint32_t)tmpreg;
1018:Drivers/STM32F0xx_HAL_Driver/Src/stm32f0xx_hal_rtc.c ****   /* Configure the Alarm A Sub Second register */
1019:Drivers/STM32F0xx_HAL_Driver/Src/stm32f0xx_hal_rtc.c ****   hrtc->Instance->ALRMASSR = subsecondtmpreg;
1020:Drivers/STM32F0xx_HAL_Driver/Src/stm32f0xx_hal_rtc.c ****   /* Configure the Alarm state: Enable Alarm */
1021:Drivers/STM32F0xx_HAL_Driver/Src/stm32f0xx_hal_rtc.c ****   __HAL_RTC_ALARMA_ENABLE(hrtc);
1022:Drivers/STM32F0xx_HAL_Driver/Src/stm32f0xx_hal_rtc.c ****   /* Configure the Alarm interrupt */
1023:Drivers/STM32F0xx_HAL_Driver/Src/stm32f0xx_hal_rtc.c ****   __HAL_RTC_ALARM_ENABLE_IT(hrtc,RTC_IT_ALRA);
1024:Drivers/STM32F0xx_HAL_Driver/Src/stm32f0xx_hal_rtc.c **** 
1025:Drivers/STM32F0xx_HAL_Driver/Src/stm32f0xx_hal_rtc.c ****   /* RTC Alarm Interrupt Configuration: EXTI configuration */
1026:Drivers/STM32F0xx_HAL_Driver/Src/stm32f0xx_hal_rtc.c ****   __HAL_RTC_ALARM_EXTI_ENABLE_IT();
1027:Drivers/STM32F0xx_HAL_Driver/Src/stm32f0xx_hal_rtc.c ****   
1028:Drivers/STM32F0xx_HAL_Driver/Src/stm32f0xx_hal_rtc.c ****   __HAL_RTC_ALARM_EXTI_ENABLE_RISING_EDGE();
1029:Drivers/STM32F0xx_HAL_Driver/Src/stm32f0xx_hal_rtc.c ****   
1030:Drivers/STM32F0xx_HAL_Driver/Src/stm32f0xx_hal_rtc.c ****   /* Enable the write protection for RTC registers */
1031:Drivers/STM32F0xx_HAL_Driver/Src/stm32f0xx_hal_rtc.c ****   __HAL_RTC_WRITEPROTECTION_ENABLE(hrtc);  
1032:Drivers/STM32F0xx_HAL_Driver/Src/stm32f0xx_hal_rtc.c ****   
1033:Drivers/STM32F0xx_HAL_Driver/Src/stm32f0xx_hal_rtc.c ****   hrtc->State = HAL_RTC_STATE_READY; 
1034:Drivers/STM32F0xx_HAL_Driver/Src/stm32f0xx_hal_rtc.c ****   
1035:Drivers/STM32F0xx_HAL_Driver/Src/stm32f0xx_hal_rtc.c ****   /* Process Unlocked */ 
ARM GAS  /var/folders/vr/85797ndx6jd_r3n_lsprlrj40000gn/T//ccWMqnSu.s 			page 22


1036:Drivers/STM32F0xx_HAL_Driver/Src/stm32f0xx_hal_rtc.c ****   __HAL_UNLOCK(hrtc);  
1037:Drivers/STM32F0xx_HAL_Driver/Src/stm32f0xx_hal_rtc.c ****   
1038:Drivers/STM32F0xx_HAL_Driver/Src/stm32f0xx_hal_rtc.c ****   return HAL_OK;
1039:Drivers/STM32F0xx_HAL_Driver/Src/stm32f0xx_hal_rtc.c **** }
1040:Drivers/STM32F0xx_HAL_Driver/Src/stm32f0xx_hal_rtc.c **** 
1041:Drivers/STM32F0xx_HAL_Driver/Src/stm32f0xx_hal_rtc.c **** /**
1042:Drivers/STM32F0xx_HAL_Driver/Src/stm32f0xx_hal_rtc.c ****   * @brief  Deactivate the specified RTC Alarm.
1043:Drivers/STM32F0xx_HAL_Driver/Src/stm32f0xx_hal_rtc.c ****   * @param  hrtc RTC handle
1044:Drivers/STM32F0xx_HAL_Driver/Src/stm32f0xx_hal_rtc.c ****   * @param  Alarm Specifies the Alarm.
1045:Drivers/STM32F0xx_HAL_Driver/Src/stm32f0xx_hal_rtc.c ****   *          This parameter can be one of the following values:
1046:Drivers/STM32F0xx_HAL_Driver/Src/stm32f0xx_hal_rtc.c ****   *            @arg RTC_ALARM_A:  AlarmA
1047:Drivers/STM32F0xx_HAL_Driver/Src/stm32f0xx_hal_rtc.c ****   * @retval HAL status
1048:Drivers/STM32F0xx_HAL_Driver/Src/stm32f0xx_hal_rtc.c ****   */
1049:Drivers/STM32F0xx_HAL_Driver/Src/stm32f0xx_hal_rtc.c **** HAL_StatusTypeDef HAL_RTC_DeactivateAlarm(RTC_HandleTypeDef *hrtc, uint32_t Alarm)
1050:Drivers/STM32F0xx_HAL_Driver/Src/stm32f0xx_hal_rtc.c **** {
1051:Drivers/STM32F0xx_HAL_Driver/Src/stm32f0xx_hal_rtc.c ****   uint32_t tickstart = 0U;
1052:Drivers/STM32F0xx_HAL_Driver/Src/stm32f0xx_hal_rtc.c ****   
1053:Drivers/STM32F0xx_HAL_Driver/Src/stm32f0xx_hal_rtc.c ****   /* Check the parameters */
1054:Drivers/STM32F0xx_HAL_Driver/Src/stm32f0xx_hal_rtc.c ****   assert_param(IS_RTC_ALARM(Alarm));
1055:Drivers/STM32F0xx_HAL_Driver/Src/stm32f0xx_hal_rtc.c ****   
1056:Drivers/STM32F0xx_HAL_Driver/Src/stm32f0xx_hal_rtc.c ****   /* Process Locked */ 
1057:Drivers/STM32F0xx_HAL_Driver/Src/stm32f0xx_hal_rtc.c ****   __HAL_LOCK(hrtc);
1058:Drivers/STM32F0xx_HAL_Driver/Src/stm32f0xx_hal_rtc.c ****   
1059:Drivers/STM32F0xx_HAL_Driver/Src/stm32f0xx_hal_rtc.c ****   hrtc->State = HAL_RTC_STATE_BUSY;
1060:Drivers/STM32F0xx_HAL_Driver/Src/stm32f0xx_hal_rtc.c ****   
1061:Drivers/STM32F0xx_HAL_Driver/Src/stm32f0xx_hal_rtc.c ****   /* Disable the write protection for RTC registers */
1062:Drivers/STM32F0xx_HAL_Driver/Src/stm32f0xx_hal_rtc.c ****   __HAL_RTC_WRITEPROTECTION_DISABLE(hrtc);
1063:Drivers/STM32F0xx_HAL_Driver/Src/stm32f0xx_hal_rtc.c ****   
1064:Drivers/STM32F0xx_HAL_Driver/Src/stm32f0xx_hal_rtc.c ****   __HAL_RTC_ALARMA_DISABLE(hrtc);
1065:Drivers/STM32F0xx_HAL_Driver/Src/stm32f0xx_hal_rtc.c ****     
1066:Drivers/STM32F0xx_HAL_Driver/Src/stm32f0xx_hal_rtc.c ****   /* In case of interrupt mode is used, the interrupt source must disabled */ 
1067:Drivers/STM32F0xx_HAL_Driver/Src/stm32f0xx_hal_rtc.c ****   __HAL_RTC_ALARM_DISABLE_IT(hrtc, RTC_IT_ALRA);
1068:Drivers/STM32F0xx_HAL_Driver/Src/stm32f0xx_hal_rtc.c ****     
1069:Drivers/STM32F0xx_HAL_Driver/Src/stm32f0xx_hal_rtc.c ****   tickstart = HAL_GetTick();
1070:Drivers/STM32F0xx_HAL_Driver/Src/stm32f0xx_hal_rtc.c ****     
1071:Drivers/STM32F0xx_HAL_Driver/Src/stm32f0xx_hal_rtc.c ****   /* Wait till RTC ALRxWF flag is set and if Time out is reached exit */
1072:Drivers/STM32F0xx_HAL_Driver/Src/stm32f0xx_hal_rtc.c ****   while(__HAL_RTC_ALARM_GET_FLAG(hrtc, RTC_FLAG_ALRAWF) == RESET)
1073:Drivers/STM32F0xx_HAL_Driver/Src/stm32f0xx_hal_rtc.c ****   {
1074:Drivers/STM32F0xx_HAL_Driver/Src/stm32f0xx_hal_rtc.c ****     if((HAL_GetTick()-tickstart) > RTC_TIMEOUT_VALUE)
1075:Drivers/STM32F0xx_HAL_Driver/Src/stm32f0xx_hal_rtc.c ****     { 
1076:Drivers/STM32F0xx_HAL_Driver/Src/stm32f0xx_hal_rtc.c ****       /* Enable the write protection for RTC registers */
1077:Drivers/STM32F0xx_HAL_Driver/Src/stm32f0xx_hal_rtc.c ****       __HAL_RTC_WRITEPROTECTION_ENABLE(hrtc);
1078:Drivers/STM32F0xx_HAL_Driver/Src/stm32f0xx_hal_rtc.c ****         
1079:Drivers/STM32F0xx_HAL_Driver/Src/stm32f0xx_hal_rtc.c ****       hrtc->State = HAL_RTC_STATE_TIMEOUT; 
1080:Drivers/STM32F0xx_HAL_Driver/Src/stm32f0xx_hal_rtc.c ****         
1081:Drivers/STM32F0xx_HAL_Driver/Src/stm32f0xx_hal_rtc.c ****       /* Process Unlocked */ 
1082:Drivers/STM32F0xx_HAL_Driver/Src/stm32f0xx_hal_rtc.c ****       __HAL_UNLOCK(hrtc);
1083:Drivers/STM32F0xx_HAL_Driver/Src/stm32f0xx_hal_rtc.c ****         
1084:Drivers/STM32F0xx_HAL_Driver/Src/stm32f0xx_hal_rtc.c ****       return HAL_TIMEOUT;
1085:Drivers/STM32F0xx_HAL_Driver/Src/stm32f0xx_hal_rtc.c ****     }      
1086:Drivers/STM32F0xx_HAL_Driver/Src/stm32f0xx_hal_rtc.c ****   }
1087:Drivers/STM32F0xx_HAL_Driver/Src/stm32f0xx_hal_rtc.c ****   /* Enable the write protection for RTC registers */
1088:Drivers/STM32F0xx_HAL_Driver/Src/stm32f0xx_hal_rtc.c ****   __HAL_RTC_WRITEPROTECTION_ENABLE(hrtc);
1089:Drivers/STM32F0xx_HAL_Driver/Src/stm32f0xx_hal_rtc.c ****   
1090:Drivers/STM32F0xx_HAL_Driver/Src/stm32f0xx_hal_rtc.c ****   hrtc->State = HAL_RTC_STATE_READY; 
1091:Drivers/STM32F0xx_HAL_Driver/Src/stm32f0xx_hal_rtc.c ****   
1092:Drivers/STM32F0xx_HAL_Driver/Src/stm32f0xx_hal_rtc.c ****   /* Process Unlocked */ 
ARM GAS  /var/folders/vr/85797ndx6jd_r3n_lsprlrj40000gn/T//ccWMqnSu.s 			page 23


1093:Drivers/STM32F0xx_HAL_Driver/Src/stm32f0xx_hal_rtc.c ****   __HAL_UNLOCK(hrtc);  
1094:Drivers/STM32F0xx_HAL_Driver/Src/stm32f0xx_hal_rtc.c ****   
1095:Drivers/STM32F0xx_HAL_Driver/Src/stm32f0xx_hal_rtc.c ****   return HAL_OK; 
1096:Drivers/STM32F0xx_HAL_Driver/Src/stm32f0xx_hal_rtc.c **** }
1097:Drivers/STM32F0xx_HAL_Driver/Src/stm32f0xx_hal_rtc.c ****            
1098:Drivers/STM32F0xx_HAL_Driver/Src/stm32f0xx_hal_rtc.c **** /**
1099:Drivers/STM32F0xx_HAL_Driver/Src/stm32f0xx_hal_rtc.c ****   * @brief  Get the RTC Alarm value and masks.
1100:Drivers/STM32F0xx_HAL_Driver/Src/stm32f0xx_hal_rtc.c ****   * @param  hrtc RTC handle
1101:Drivers/STM32F0xx_HAL_Driver/Src/stm32f0xx_hal_rtc.c ****   * @param  sAlarm Pointer to Date structure
1102:Drivers/STM32F0xx_HAL_Driver/Src/stm32f0xx_hal_rtc.c ****   * @param  Alarm Specifies the Alarm.
1103:Drivers/STM32F0xx_HAL_Driver/Src/stm32f0xx_hal_rtc.c ****   *          This parameter can be one of the following values:
1104:Drivers/STM32F0xx_HAL_Driver/Src/stm32f0xx_hal_rtc.c ****   *             @arg RTC_ALARM_A: AlarmA
1105:Drivers/STM32F0xx_HAL_Driver/Src/stm32f0xx_hal_rtc.c ****   * @param  Format Specifies the format of the entered parameters.
1106:Drivers/STM32F0xx_HAL_Driver/Src/stm32f0xx_hal_rtc.c ****   *          This parameter can be one of the following values:
1107:Drivers/STM32F0xx_HAL_Driver/Src/stm32f0xx_hal_rtc.c ****   *             @arg RTC_FORMAT_BIN: Binary data format 
1108:Drivers/STM32F0xx_HAL_Driver/Src/stm32f0xx_hal_rtc.c ****   *             @arg RTC_FORMAT_BCD: BCD data format
1109:Drivers/STM32F0xx_HAL_Driver/Src/stm32f0xx_hal_rtc.c ****   * @retval HAL status
1110:Drivers/STM32F0xx_HAL_Driver/Src/stm32f0xx_hal_rtc.c ****   */
1111:Drivers/STM32F0xx_HAL_Driver/Src/stm32f0xx_hal_rtc.c **** HAL_StatusTypeDef HAL_RTC_GetAlarm(RTC_HandleTypeDef *hrtc, RTC_AlarmTypeDef *sAlarm, uint32_t Alar
1112:Drivers/STM32F0xx_HAL_Driver/Src/stm32f0xx_hal_rtc.c **** {
1113:Drivers/STM32F0xx_HAL_Driver/Src/stm32f0xx_hal_rtc.c ****   uint32_t tmpreg = 0U, subsecondtmpreg = 0U;
1114:Drivers/STM32F0xx_HAL_Driver/Src/stm32f0xx_hal_rtc.c ****   
1115:Drivers/STM32F0xx_HAL_Driver/Src/stm32f0xx_hal_rtc.c ****   /* Check the parameters */
1116:Drivers/STM32F0xx_HAL_Driver/Src/stm32f0xx_hal_rtc.c ****   assert_param(IS_RTC_FORMAT(Format));
1117:Drivers/STM32F0xx_HAL_Driver/Src/stm32f0xx_hal_rtc.c ****   assert_param(IS_RTC_ALARM(Alarm));
1118:Drivers/STM32F0xx_HAL_Driver/Src/stm32f0xx_hal_rtc.c ****   
1119:Drivers/STM32F0xx_HAL_Driver/Src/stm32f0xx_hal_rtc.c ****   sAlarm->Alarm = RTC_ALARM_A;
1120:Drivers/STM32F0xx_HAL_Driver/Src/stm32f0xx_hal_rtc.c ****     
1121:Drivers/STM32F0xx_HAL_Driver/Src/stm32f0xx_hal_rtc.c ****   tmpreg = (uint32_t)(hrtc->Instance->ALRMAR);
1122:Drivers/STM32F0xx_HAL_Driver/Src/stm32f0xx_hal_rtc.c ****   subsecondtmpreg = (uint32_t)((hrtc->Instance->ALRMASSR ) & RTC_ALRMASSR_SS);
1123:Drivers/STM32F0xx_HAL_Driver/Src/stm32f0xx_hal_rtc.c ****     
1124:Drivers/STM32F0xx_HAL_Driver/Src/stm32f0xx_hal_rtc.c ****   /* Fill the structure with the read parameters */
1125:Drivers/STM32F0xx_HAL_Driver/Src/stm32f0xx_hal_rtc.c ****   sAlarm->AlarmTime.Hours = (uint32_t)((tmpreg & (RTC_ALRMAR_HT | RTC_ALRMAR_HU)) >> 16U);
1126:Drivers/STM32F0xx_HAL_Driver/Src/stm32f0xx_hal_rtc.c ****   sAlarm->AlarmTime.Minutes = (uint32_t)((tmpreg & (RTC_ALRMAR_MNT | RTC_ALRMAR_MNU)) >> 8U);
1127:Drivers/STM32F0xx_HAL_Driver/Src/stm32f0xx_hal_rtc.c ****   sAlarm->AlarmTime.Seconds = (uint32_t)(tmpreg & (RTC_ALRMAR_ST | RTC_ALRMAR_SU));
1128:Drivers/STM32F0xx_HAL_Driver/Src/stm32f0xx_hal_rtc.c ****   sAlarm->AlarmTime.TimeFormat = (uint32_t)((tmpreg & RTC_ALRMAR_PM) >> 16U);
1129:Drivers/STM32F0xx_HAL_Driver/Src/stm32f0xx_hal_rtc.c ****   sAlarm->AlarmTime.SubSeconds = (uint32_t) subsecondtmpreg;
1130:Drivers/STM32F0xx_HAL_Driver/Src/stm32f0xx_hal_rtc.c ****   sAlarm->AlarmDateWeekDay = (uint32_t)((tmpreg & (RTC_ALRMAR_DT | RTC_ALRMAR_DU)) >> 24U);
1131:Drivers/STM32F0xx_HAL_Driver/Src/stm32f0xx_hal_rtc.c ****   sAlarm->AlarmDateWeekDaySel = (uint32_t)(tmpreg & RTC_ALRMAR_WDSEL);
1132:Drivers/STM32F0xx_HAL_Driver/Src/stm32f0xx_hal_rtc.c ****   sAlarm->AlarmMask = (uint32_t)(tmpreg & RTC_ALARMMASK_ALL);
1133:Drivers/STM32F0xx_HAL_Driver/Src/stm32f0xx_hal_rtc.c ****     
1134:Drivers/STM32F0xx_HAL_Driver/Src/stm32f0xx_hal_rtc.c ****   if(Format == RTC_FORMAT_BIN)
1135:Drivers/STM32F0xx_HAL_Driver/Src/stm32f0xx_hal_rtc.c ****   {
1136:Drivers/STM32F0xx_HAL_Driver/Src/stm32f0xx_hal_rtc.c ****     sAlarm->AlarmTime.Hours = RTC_Bcd2ToByte(sAlarm->AlarmTime.Hours);
1137:Drivers/STM32F0xx_HAL_Driver/Src/stm32f0xx_hal_rtc.c ****     sAlarm->AlarmTime.Minutes = RTC_Bcd2ToByte(sAlarm->AlarmTime.Minutes);
1138:Drivers/STM32F0xx_HAL_Driver/Src/stm32f0xx_hal_rtc.c ****     sAlarm->AlarmTime.Seconds = RTC_Bcd2ToByte(sAlarm->AlarmTime.Seconds);
1139:Drivers/STM32F0xx_HAL_Driver/Src/stm32f0xx_hal_rtc.c ****     sAlarm->AlarmDateWeekDay = RTC_Bcd2ToByte(sAlarm->AlarmDateWeekDay);
1140:Drivers/STM32F0xx_HAL_Driver/Src/stm32f0xx_hal_rtc.c ****   }  
1141:Drivers/STM32F0xx_HAL_Driver/Src/stm32f0xx_hal_rtc.c ****     
1142:Drivers/STM32F0xx_HAL_Driver/Src/stm32f0xx_hal_rtc.c ****   return HAL_OK;
1143:Drivers/STM32F0xx_HAL_Driver/Src/stm32f0xx_hal_rtc.c **** }
1144:Drivers/STM32F0xx_HAL_Driver/Src/stm32f0xx_hal_rtc.c **** 
1145:Drivers/STM32F0xx_HAL_Driver/Src/stm32f0xx_hal_rtc.c **** /**
1146:Drivers/STM32F0xx_HAL_Driver/Src/stm32f0xx_hal_rtc.c ****   * @brief  Handle Alarm interrupt request.
1147:Drivers/STM32F0xx_HAL_Driver/Src/stm32f0xx_hal_rtc.c ****   * @param  hrtc RTC handle
1148:Drivers/STM32F0xx_HAL_Driver/Src/stm32f0xx_hal_rtc.c ****   * @retval None
1149:Drivers/STM32F0xx_HAL_Driver/Src/stm32f0xx_hal_rtc.c ****   */
ARM GAS  /var/folders/vr/85797ndx6jd_r3n_lsprlrj40000gn/T//ccWMqnSu.s 			page 24


1150:Drivers/STM32F0xx_HAL_Driver/Src/stm32f0xx_hal_rtc.c **** void HAL_RTC_AlarmIRQHandler(RTC_HandleTypeDef* hrtc)
1151:Drivers/STM32F0xx_HAL_Driver/Src/stm32f0xx_hal_rtc.c **** {  
1152:Drivers/STM32F0xx_HAL_Driver/Src/stm32f0xx_hal_rtc.c ****   /* Get the AlarmA interrupt source enable status */
1153:Drivers/STM32F0xx_HAL_Driver/Src/stm32f0xx_hal_rtc.c ****   if(__HAL_RTC_ALARM_GET_IT_SOURCE(hrtc, RTC_IT_ALRA) != RESET)
1154:Drivers/STM32F0xx_HAL_Driver/Src/stm32f0xx_hal_rtc.c ****   {
1155:Drivers/STM32F0xx_HAL_Driver/Src/stm32f0xx_hal_rtc.c ****     /* Get the pending status of the AlarmA Interrupt */
1156:Drivers/STM32F0xx_HAL_Driver/Src/stm32f0xx_hal_rtc.c ****     if(__HAL_RTC_ALARM_GET_FLAG(hrtc, RTC_FLAG_ALRAF) != RESET)
1157:Drivers/STM32F0xx_HAL_Driver/Src/stm32f0xx_hal_rtc.c ****     {
1158:Drivers/STM32F0xx_HAL_Driver/Src/stm32f0xx_hal_rtc.c ****       /* AlarmA callback */
1159:Drivers/STM32F0xx_HAL_Driver/Src/stm32f0xx_hal_rtc.c ****       HAL_RTC_AlarmAEventCallback(hrtc);
1160:Drivers/STM32F0xx_HAL_Driver/Src/stm32f0xx_hal_rtc.c **** 
1161:Drivers/STM32F0xx_HAL_Driver/Src/stm32f0xx_hal_rtc.c ****       /* Clear the AlarmA interrupt pending bit */
1162:Drivers/STM32F0xx_HAL_Driver/Src/stm32f0xx_hal_rtc.c ****       __HAL_RTC_ALARM_CLEAR_FLAG(hrtc, RTC_FLAG_ALRAF);
1163:Drivers/STM32F0xx_HAL_Driver/Src/stm32f0xx_hal_rtc.c ****     }
1164:Drivers/STM32F0xx_HAL_Driver/Src/stm32f0xx_hal_rtc.c ****   }
1165:Drivers/STM32F0xx_HAL_Driver/Src/stm32f0xx_hal_rtc.c ****   
1166:Drivers/STM32F0xx_HAL_Driver/Src/stm32f0xx_hal_rtc.c ****   /* Clear the EXTI's line Flag for RTC Alarm */
1167:Drivers/STM32F0xx_HAL_Driver/Src/stm32f0xx_hal_rtc.c ****   __HAL_RTC_ALARM_EXTI_CLEAR_FLAG();
1168:Drivers/STM32F0xx_HAL_Driver/Src/stm32f0xx_hal_rtc.c ****   
1169:Drivers/STM32F0xx_HAL_Driver/Src/stm32f0xx_hal_rtc.c ****   /* Change RTC state */
1170:Drivers/STM32F0xx_HAL_Driver/Src/stm32f0xx_hal_rtc.c ****   hrtc->State = HAL_RTC_STATE_READY; 
1171:Drivers/STM32F0xx_HAL_Driver/Src/stm32f0xx_hal_rtc.c **** }
1172:Drivers/STM32F0xx_HAL_Driver/Src/stm32f0xx_hal_rtc.c **** 
1173:Drivers/STM32F0xx_HAL_Driver/Src/stm32f0xx_hal_rtc.c **** /**
1174:Drivers/STM32F0xx_HAL_Driver/Src/stm32f0xx_hal_rtc.c ****   * @brief  Alarm A callback.
1175:Drivers/STM32F0xx_HAL_Driver/Src/stm32f0xx_hal_rtc.c ****   * @param  hrtc RTC handle
1176:Drivers/STM32F0xx_HAL_Driver/Src/stm32f0xx_hal_rtc.c ****   * @retval None
1177:Drivers/STM32F0xx_HAL_Driver/Src/stm32f0xx_hal_rtc.c ****   */
1178:Drivers/STM32F0xx_HAL_Driver/Src/stm32f0xx_hal_rtc.c **** __weak void HAL_RTC_AlarmAEventCallback(RTC_HandleTypeDef *hrtc)
1179:Drivers/STM32F0xx_HAL_Driver/Src/stm32f0xx_hal_rtc.c **** {
1180:Drivers/STM32F0xx_HAL_Driver/Src/stm32f0xx_hal_rtc.c ****   /* Prevent unused argument(s) compilation warning */
1181:Drivers/STM32F0xx_HAL_Driver/Src/stm32f0xx_hal_rtc.c ****   UNUSED(hrtc);
1182:Drivers/STM32F0xx_HAL_Driver/Src/stm32f0xx_hal_rtc.c **** 
1183:Drivers/STM32F0xx_HAL_Driver/Src/stm32f0xx_hal_rtc.c ****   /* NOTE : This function should not be modified, when the callback is needed,
1184:Drivers/STM32F0xx_HAL_Driver/Src/stm32f0xx_hal_rtc.c ****             the HAL_RTC_AlarmAEventCallback could be implemented in the user file
1185:Drivers/STM32F0xx_HAL_Driver/Src/stm32f0xx_hal_rtc.c ****    */
1186:Drivers/STM32F0xx_HAL_Driver/Src/stm32f0xx_hal_rtc.c **** }
1187:Drivers/STM32F0xx_HAL_Driver/Src/stm32f0xx_hal_rtc.c **** 
1188:Drivers/STM32F0xx_HAL_Driver/Src/stm32f0xx_hal_rtc.c **** /**
1189:Drivers/STM32F0xx_HAL_Driver/Src/stm32f0xx_hal_rtc.c ****   * @brief  Handle AlarmA Polling request.
1190:Drivers/STM32F0xx_HAL_Driver/Src/stm32f0xx_hal_rtc.c ****   * @param  hrtc RTC handle
1191:Drivers/STM32F0xx_HAL_Driver/Src/stm32f0xx_hal_rtc.c ****   * @param  Timeout Timeout duration
1192:Drivers/STM32F0xx_HAL_Driver/Src/stm32f0xx_hal_rtc.c ****   * @retval HAL status
1193:Drivers/STM32F0xx_HAL_Driver/Src/stm32f0xx_hal_rtc.c ****   */
1194:Drivers/STM32F0xx_HAL_Driver/Src/stm32f0xx_hal_rtc.c **** HAL_StatusTypeDef HAL_RTC_PollForAlarmAEvent(RTC_HandleTypeDef *hrtc, uint32_t Timeout)
1195:Drivers/STM32F0xx_HAL_Driver/Src/stm32f0xx_hal_rtc.c **** {
1196:Drivers/STM32F0xx_HAL_Driver/Src/stm32f0xx_hal_rtc.c **** 
1197:Drivers/STM32F0xx_HAL_Driver/Src/stm32f0xx_hal_rtc.c ****   uint32_t tickstart = HAL_GetTick();   
1198:Drivers/STM32F0xx_HAL_Driver/Src/stm32f0xx_hal_rtc.c ****   
1199:Drivers/STM32F0xx_HAL_Driver/Src/stm32f0xx_hal_rtc.c ****   while(__HAL_RTC_ALARM_GET_FLAG(hrtc, RTC_FLAG_ALRAF) == RESET)
1200:Drivers/STM32F0xx_HAL_Driver/Src/stm32f0xx_hal_rtc.c ****   {
1201:Drivers/STM32F0xx_HAL_Driver/Src/stm32f0xx_hal_rtc.c ****     if(Timeout != HAL_MAX_DELAY)
1202:Drivers/STM32F0xx_HAL_Driver/Src/stm32f0xx_hal_rtc.c ****     {
1203:Drivers/STM32F0xx_HAL_Driver/Src/stm32f0xx_hal_rtc.c ****       if((Timeout == 0U) || ((HAL_GetTick() - tickstart) > Timeout))
1204:Drivers/STM32F0xx_HAL_Driver/Src/stm32f0xx_hal_rtc.c ****       {
1205:Drivers/STM32F0xx_HAL_Driver/Src/stm32f0xx_hal_rtc.c ****         hrtc->State = HAL_RTC_STATE_TIMEOUT;
1206:Drivers/STM32F0xx_HAL_Driver/Src/stm32f0xx_hal_rtc.c ****         return HAL_TIMEOUT;
ARM GAS  /var/folders/vr/85797ndx6jd_r3n_lsprlrj40000gn/T//ccWMqnSu.s 			page 25


1207:Drivers/STM32F0xx_HAL_Driver/Src/stm32f0xx_hal_rtc.c ****       }
1208:Drivers/STM32F0xx_HAL_Driver/Src/stm32f0xx_hal_rtc.c ****     }
1209:Drivers/STM32F0xx_HAL_Driver/Src/stm32f0xx_hal_rtc.c ****   }
1210:Drivers/STM32F0xx_HAL_Driver/Src/stm32f0xx_hal_rtc.c ****   
1211:Drivers/STM32F0xx_HAL_Driver/Src/stm32f0xx_hal_rtc.c ****   /* Clear the Alarm interrupt pending bit */
1212:Drivers/STM32F0xx_HAL_Driver/Src/stm32f0xx_hal_rtc.c ****   __HAL_RTC_ALARM_CLEAR_FLAG(hrtc, RTC_FLAG_ALRAF);
1213:Drivers/STM32F0xx_HAL_Driver/Src/stm32f0xx_hal_rtc.c ****   
1214:Drivers/STM32F0xx_HAL_Driver/Src/stm32f0xx_hal_rtc.c ****   /* Change RTC state */
1215:Drivers/STM32F0xx_HAL_Driver/Src/stm32f0xx_hal_rtc.c ****   hrtc->State = HAL_RTC_STATE_READY; 
1216:Drivers/STM32F0xx_HAL_Driver/Src/stm32f0xx_hal_rtc.c ****   
1217:Drivers/STM32F0xx_HAL_Driver/Src/stm32f0xx_hal_rtc.c ****   return HAL_OK;  
1218:Drivers/STM32F0xx_HAL_Driver/Src/stm32f0xx_hal_rtc.c **** }
1219:Drivers/STM32F0xx_HAL_Driver/Src/stm32f0xx_hal_rtc.c **** 
1220:Drivers/STM32F0xx_HAL_Driver/Src/stm32f0xx_hal_rtc.c **** /**
1221:Drivers/STM32F0xx_HAL_Driver/Src/stm32f0xx_hal_rtc.c ****   * @}
1222:Drivers/STM32F0xx_HAL_Driver/Src/stm32f0xx_hal_rtc.c ****   */
1223:Drivers/STM32F0xx_HAL_Driver/Src/stm32f0xx_hal_rtc.c **** 
1224:Drivers/STM32F0xx_HAL_Driver/Src/stm32f0xx_hal_rtc.c **** /** @addtogroup RTC_Exported_Functions_Group4
1225:Drivers/STM32F0xx_HAL_Driver/Src/stm32f0xx_hal_rtc.c ****  *  @brief   Peripheral Control functions 
1226:Drivers/STM32F0xx_HAL_Driver/Src/stm32f0xx_hal_rtc.c ****  *
1227:Drivers/STM32F0xx_HAL_Driver/Src/stm32f0xx_hal_rtc.c **** @verbatim   
1228:Drivers/STM32F0xx_HAL_Driver/Src/stm32f0xx_hal_rtc.c ****  ===============================================================================
1229:Drivers/STM32F0xx_HAL_Driver/Src/stm32f0xx_hal_rtc.c ****                      ##### Peripheral Control functions #####
1230:Drivers/STM32F0xx_HAL_Driver/Src/stm32f0xx_hal_rtc.c ****  ===============================================================================  
1231:Drivers/STM32F0xx_HAL_Driver/Src/stm32f0xx_hal_rtc.c ****     [..]
1232:Drivers/STM32F0xx_HAL_Driver/Src/stm32f0xx_hal_rtc.c ****     This subsection provides functions allowing to
1233:Drivers/STM32F0xx_HAL_Driver/Src/stm32f0xx_hal_rtc.c ****       (+) Wait for RTC Time and Date Synchronization
1234:Drivers/STM32F0xx_HAL_Driver/Src/stm32f0xx_hal_rtc.c **** 
1235:Drivers/STM32F0xx_HAL_Driver/Src/stm32f0xx_hal_rtc.c **** @endverbatim
1236:Drivers/STM32F0xx_HAL_Driver/Src/stm32f0xx_hal_rtc.c ****   * @{
1237:Drivers/STM32F0xx_HAL_Driver/Src/stm32f0xx_hal_rtc.c ****   */
1238:Drivers/STM32F0xx_HAL_Driver/Src/stm32f0xx_hal_rtc.c **** 
1239:Drivers/STM32F0xx_HAL_Driver/Src/stm32f0xx_hal_rtc.c **** /**
1240:Drivers/STM32F0xx_HAL_Driver/Src/stm32f0xx_hal_rtc.c ****   * @brief  Wait until the RTC Time and Date registers (RTC_TR and RTC_DR) are
1241:Drivers/STM32F0xx_HAL_Driver/Src/stm32f0xx_hal_rtc.c ****   *         synchronized with RTC APB clock.
1242:Drivers/STM32F0xx_HAL_Driver/Src/stm32f0xx_hal_rtc.c ****   * @note   The RTC Resynchronization mode is write protected, use the 
1243:Drivers/STM32F0xx_HAL_Driver/Src/stm32f0xx_hal_rtc.c ****   *         __HAL_RTC_WRITEPROTECTION_DISABLE() before calling this function. 
1244:Drivers/STM32F0xx_HAL_Driver/Src/stm32f0xx_hal_rtc.c ****   * @note   To read the calendar through the shadow registers after Calendar 
1245:Drivers/STM32F0xx_HAL_Driver/Src/stm32f0xx_hal_rtc.c ****   *         initialization, calendar update or after wakeup from low power modes
1246:Drivers/STM32F0xx_HAL_Driver/Src/stm32f0xx_hal_rtc.c ****   *         the software must first clear the RSF flag.
1247:Drivers/STM32F0xx_HAL_Driver/Src/stm32f0xx_hal_rtc.c ****   *         The software must then wait until it is set again before reading
1248:Drivers/STM32F0xx_HAL_Driver/Src/stm32f0xx_hal_rtc.c ****   *         the calendar, which means that the calendar registers have been
1249:Drivers/STM32F0xx_HAL_Driver/Src/stm32f0xx_hal_rtc.c ****   *         correctly copied into the RTC_TR and RTC_DR shadow registers.
1250:Drivers/STM32F0xx_HAL_Driver/Src/stm32f0xx_hal_rtc.c ****   * @param  hrtc RTC handle
1251:Drivers/STM32F0xx_HAL_Driver/Src/stm32f0xx_hal_rtc.c ****   * @retval HAL status
1252:Drivers/STM32F0xx_HAL_Driver/Src/stm32f0xx_hal_rtc.c ****   */
1253:Drivers/STM32F0xx_HAL_Driver/Src/stm32f0xx_hal_rtc.c **** HAL_StatusTypeDef HAL_RTC_WaitForSynchro(RTC_HandleTypeDef* hrtc)
1254:Drivers/STM32F0xx_HAL_Driver/Src/stm32f0xx_hal_rtc.c **** {
1255:Drivers/STM32F0xx_HAL_Driver/Src/stm32f0xx_hal_rtc.c ****   uint32_t tickstart = 0U;
1256:Drivers/STM32F0xx_HAL_Driver/Src/stm32f0xx_hal_rtc.c **** 
1257:Drivers/STM32F0xx_HAL_Driver/Src/stm32f0xx_hal_rtc.c ****   /* Clear RSF flag */
1258:Drivers/STM32F0xx_HAL_Driver/Src/stm32f0xx_hal_rtc.c ****   hrtc->Instance->ISR &= (uint32_t)RTC_RSF_MASK;
1259:Drivers/STM32F0xx_HAL_Driver/Src/stm32f0xx_hal_rtc.c **** 
1260:Drivers/STM32F0xx_HAL_Driver/Src/stm32f0xx_hal_rtc.c ****   tickstart = HAL_GetTick();
1261:Drivers/STM32F0xx_HAL_Driver/Src/stm32f0xx_hal_rtc.c **** 
1262:Drivers/STM32F0xx_HAL_Driver/Src/stm32f0xx_hal_rtc.c ****   /* Wait the registers to be synchronised */
1263:Drivers/STM32F0xx_HAL_Driver/Src/stm32f0xx_hal_rtc.c ****   while((hrtc->Instance->ISR & RTC_ISR_RSF) == (uint32_t)RESET)
ARM GAS  /var/folders/vr/85797ndx6jd_r3n_lsprlrj40000gn/T//ccWMqnSu.s 			page 26


1264:Drivers/STM32F0xx_HAL_Driver/Src/stm32f0xx_hal_rtc.c ****   {
1265:Drivers/STM32F0xx_HAL_Driver/Src/stm32f0xx_hal_rtc.c ****     if((HAL_GetTick()-tickstart) > RTC_TIMEOUT_VALUE)
1266:Drivers/STM32F0xx_HAL_Driver/Src/stm32f0xx_hal_rtc.c ****     {       
1267:Drivers/STM32F0xx_HAL_Driver/Src/stm32f0xx_hal_rtc.c ****       return HAL_TIMEOUT;
1268:Drivers/STM32F0xx_HAL_Driver/Src/stm32f0xx_hal_rtc.c ****     } 
1269:Drivers/STM32F0xx_HAL_Driver/Src/stm32f0xx_hal_rtc.c ****   }
1270:Drivers/STM32F0xx_HAL_Driver/Src/stm32f0xx_hal_rtc.c **** 
1271:Drivers/STM32F0xx_HAL_Driver/Src/stm32f0xx_hal_rtc.c ****   return HAL_OK;
1272:Drivers/STM32F0xx_HAL_Driver/Src/stm32f0xx_hal_rtc.c **** }
1273:Drivers/STM32F0xx_HAL_Driver/Src/stm32f0xx_hal_rtc.c **** 
1274:Drivers/STM32F0xx_HAL_Driver/Src/stm32f0xx_hal_rtc.c **** /**
1275:Drivers/STM32F0xx_HAL_Driver/Src/stm32f0xx_hal_rtc.c ****   * @}
1276:Drivers/STM32F0xx_HAL_Driver/Src/stm32f0xx_hal_rtc.c ****   */
1277:Drivers/STM32F0xx_HAL_Driver/Src/stm32f0xx_hal_rtc.c **** 
1278:Drivers/STM32F0xx_HAL_Driver/Src/stm32f0xx_hal_rtc.c **** /** @addtogroup RTC_Exported_Functions_Group5
1279:Drivers/STM32F0xx_HAL_Driver/Src/stm32f0xx_hal_rtc.c ****  *  @brief   Peripheral State functions 
1280:Drivers/STM32F0xx_HAL_Driver/Src/stm32f0xx_hal_rtc.c ****  *
1281:Drivers/STM32F0xx_HAL_Driver/Src/stm32f0xx_hal_rtc.c **** @verbatim   
1282:Drivers/STM32F0xx_HAL_Driver/Src/stm32f0xx_hal_rtc.c ****  ===============================================================================
1283:Drivers/STM32F0xx_HAL_Driver/Src/stm32f0xx_hal_rtc.c ****                      ##### Peripheral State functions #####
1284:Drivers/STM32F0xx_HAL_Driver/Src/stm32f0xx_hal_rtc.c ****  ===============================================================================  
1285:Drivers/STM32F0xx_HAL_Driver/Src/stm32f0xx_hal_rtc.c ****     [..]
1286:Drivers/STM32F0xx_HAL_Driver/Src/stm32f0xx_hal_rtc.c ****     This subsection provides functions allowing to
1287:Drivers/STM32F0xx_HAL_Driver/Src/stm32f0xx_hal_rtc.c ****       (+) Get RTC state
1288:Drivers/STM32F0xx_HAL_Driver/Src/stm32f0xx_hal_rtc.c **** 
1289:Drivers/STM32F0xx_HAL_Driver/Src/stm32f0xx_hal_rtc.c **** @endverbatim
1290:Drivers/STM32F0xx_HAL_Driver/Src/stm32f0xx_hal_rtc.c ****   * @{
1291:Drivers/STM32F0xx_HAL_Driver/Src/stm32f0xx_hal_rtc.c ****   */
1292:Drivers/STM32F0xx_HAL_Driver/Src/stm32f0xx_hal_rtc.c **** /**
1293:Drivers/STM32F0xx_HAL_Driver/Src/stm32f0xx_hal_rtc.c ****   * @brief  Return the RTC handle state.
1294:Drivers/STM32F0xx_HAL_Driver/Src/stm32f0xx_hal_rtc.c ****   * @param  hrtc RTC handle
1295:Drivers/STM32F0xx_HAL_Driver/Src/stm32f0xx_hal_rtc.c ****   * @retval HAL state
1296:Drivers/STM32F0xx_HAL_Driver/Src/stm32f0xx_hal_rtc.c ****   */
1297:Drivers/STM32F0xx_HAL_Driver/Src/stm32f0xx_hal_rtc.c **** HAL_RTCStateTypeDef HAL_RTC_GetState(RTC_HandleTypeDef* hrtc)
1298:Drivers/STM32F0xx_HAL_Driver/Src/stm32f0xx_hal_rtc.c **** {
1299:Drivers/STM32F0xx_HAL_Driver/Src/stm32f0xx_hal_rtc.c ****   /* Return RTC handle state */
1300:Drivers/STM32F0xx_HAL_Driver/Src/stm32f0xx_hal_rtc.c ****   return hrtc->State;
1301:Drivers/STM32F0xx_HAL_Driver/Src/stm32f0xx_hal_rtc.c **** }
1302:Drivers/STM32F0xx_HAL_Driver/Src/stm32f0xx_hal_rtc.c **** 
1303:Drivers/STM32F0xx_HAL_Driver/Src/stm32f0xx_hal_rtc.c **** /**
1304:Drivers/STM32F0xx_HAL_Driver/Src/stm32f0xx_hal_rtc.c ****   * @}
1305:Drivers/STM32F0xx_HAL_Driver/Src/stm32f0xx_hal_rtc.c ****   */
1306:Drivers/STM32F0xx_HAL_Driver/Src/stm32f0xx_hal_rtc.c **** 
1307:Drivers/STM32F0xx_HAL_Driver/Src/stm32f0xx_hal_rtc.c **** /**
1308:Drivers/STM32F0xx_HAL_Driver/Src/stm32f0xx_hal_rtc.c ****   * @}
1309:Drivers/STM32F0xx_HAL_Driver/Src/stm32f0xx_hal_rtc.c ****   */
1310:Drivers/STM32F0xx_HAL_Driver/Src/stm32f0xx_hal_rtc.c **** 
1311:Drivers/STM32F0xx_HAL_Driver/Src/stm32f0xx_hal_rtc.c **** /** @addtogroup RTC_Private_Functions
1312:Drivers/STM32F0xx_HAL_Driver/Src/stm32f0xx_hal_rtc.c ****   * @{
1313:Drivers/STM32F0xx_HAL_Driver/Src/stm32f0xx_hal_rtc.c ****   */
1314:Drivers/STM32F0xx_HAL_Driver/Src/stm32f0xx_hal_rtc.c **** /**
1315:Drivers/STM32F0xx_HAL_Driver/Src/stm32f0xx_hal_rtc.c ****   * @brief  Enter the RTC Initialization mode.
1316:Drivers/STM32F0xx_HAL_Driver/Src/stm32f0xx_hal_rtc.c ****   * @note   The RTC Initialization mode is write protected, use the
1317:Drivers/STM32F0xx_HAL_Driver/Src/stm32f0xx_hal_rtc.c ****   *         __HAL_RTC_WRITEPROTECTION_DISABLE() before calling this function.
1318:Drivers/STM32F0xx_HAL_Driver/Src/stm32f0xx_hal_rtc.c ****   * @param  hrtc RTC handle
1319:Drivers/STM32F0xx_HAL_Driver/Src/stm32f0xx_hal_rtc.c ****   * @retval HAL status
1320:Drivers/STM32F0xx_HAL_Driver/Src/stm32f0xx_hal_rtc.c ****   */
ARM GAS  /var/folders/vr/85797ndx6jd_r3n_lsprlrj40000gn/T//ccWMqnSu.s 			page 27


1321:Drivers/STM32F0xx_HAL_Driver/Src/stm32f0xx_hal_rtc.c **** HAL_StatusTypeDef RTC_EnterInitMode(RTC_HandleTypeDef* hrtc)
1322:Drivers/STM32F0xx_HAL_Driver/Src/stm32f0xx_hal_rtc.c **** {
1323:Drivers/STM32F0xx_HAL_Driver/Src/stm32f0xx_hal_rtc.c ****   uint32_t tickstart = 0U;
1324:Drivers/STM32F0xx_HAL_Driver/Src/stm32f0xx_hal_rtc.c ****   
1325:Drivers/STM32F0xx_HAL_Driver/Src/stm32f0xx_hal_rtc.c ****   /* Check if the Initialization mode is set */
1326:Drivers/STM32F0xx_HAL_Driver/Src/stm32f0xx_hal_rtc.c ****   if((hrtc->Instance->ISR & RTC_ISR_INITF) == (uint32_t)RESET)
1327:Drivers/STM32F0xx_HAL_Driver/Src/stm32f0xx_hal_rtc.c ****   {
1328:Drivers/STM32F0xx_HAL_Driver/Src/stm32f0xx_hal_rtc.c ****     /* Set the Initialization mode */
1329:Drivers/STM32F0xx_HAL_Driver/Src/stm32f0xx_hal_rtc.c ****     hrtc->Instance->ISR = (uint32_t)RTC_INIT_MASK;
1330:Drivers/STM32F0xx_HAL_Driver/Src/stm32f0xx_hal_rtc.c ****     
1331:Drivers/STM32F0xx_HAL_Driver/Src/stm32f0xx_hal_rtc.c ****     tickstart = HAL_GetTick();
1332:Drivers/STM32F0xx_HAL_Driver/Src/stm32f0xx_hal_rtc.c ****     
1333:Drivers/STM32F0xx_HAL_Driver/Src/stm32f0xx_hal_rtc.c ****     /* Wait till RTC is in INIT state and if Time out is reached exit */
1334:Drivers/STM32F0xx_HAL_Driver/Src/stm32f0xx_hal_rtc.c ****     while((hrtc->Instance->ISR & RTC_ISR_INITF) == (uint32_t)RESET)
1335:Drivers/STM32F0xx_HAL_Driver/Src/stm32f0xx_hal_rtc.c ****     {
1336:Drivers/STM32F0xx_HAL_Driver/Src/stm32f0xx_hal_rtc.c ****       if((HAL_GetTick()-tickstart) > RTC_TIMEOUT_VALUE)
1337:Drivers/STM32F0xx_HAL_Driver/Src/stm32f0xx_hal_rtc.c ****       {       
1338:Drivers/STM32F0xx_HAL_Driver/Src/stm32f0xx_hal_rtc.c ****         return HAL_TIMEOUT;
1339:Drivers/STM32F0xx_HAL_Driver/Src/stm32f0xx_hal_rtc.c ****       } 
1340:Drivers/STM32F0xx_HAL_Driver/Src/stm32f0xx_hal_rtc.c ****     }
1341:Drivers/STM32F0xx_HAL_Driver/Src/stm32f0xx_hal_rtc.c ****   }
1342:Drivers/STM32F0xx_HAL_Driver/Src/stm32f0xx_hal_rtc.c ****   
1343:Drivers/STM32F0xx_HAL_Driver/Src/stm32f0xx_hal_rtc.c ****   return HAL_OK;  
1344:Drivers/STM32F0xx_HAL_Driver/Src/stm32f0xx_hal_rtc.c **** }
1345:Drivers/STM32F0xx_HAL_Driver/Src/stm32f0xx_hal_rtc.c **** 
1346:Drivers/STM32F0xx_HAL_Driver/Src/stm32f0xx_hal_rtc.c **** 
1347:Drivers/STM32F0xx_HAL_Driver/Src/stm32f0xx_hal_rtc.c **** /**
1348:Drivers/STM32F0xx_HAL_Driver/Src/stm32f0xx_hal_rtc.c ****   * @brief  Convert a 2 digit decimal to BCD format.
1349:Drivers/STM32F0xx_HAL_Driver/Src/stm32f0xx_hal_rtc.c ****   * @param  Value Byte to be converted
1350:Drivers/STM32F0xx_HAL_Driver/Src/stm32f0xx_hal_rtc.c ****   * @retval Converted byte
1351:Drivers/STM32F0xx_HAL_Driver/Src/stm32f0xx_hal_rtc.c ****   */
1352:Drivers/STM32F0xx_HAL_Driver/Src/stm32f0xx_hal_rtc.c **** uint8_t RTC_ByteToBcd2(uint8_t Value)
1353:Drivers/STM32F0xx_HAL_Driver/Src/stm32f0xx_hal_rtc.c **** {
1354:Drivers/STM32F0xx_HAL_Driver/Src/stm32f0xx_hal_rtc.c ****   uint32_t bcdhigh = 0U;
1355:Drivers/STM32F0xx_HAL_Driver/Src/stm32f0xx_hal_rtc.c ****   
1356:Drivers/STM32F0xx_HAL_Driver/Src/stm32f0xx_hal_rtc.c ****   while(Value >= 10U)
1357:Drivers/STM32F0xx_HAL_Driver/Src/stm32f0xx_hal_rtc.c ****   {
1358:Drivers/STM32F0xx_HAL_Driver/Src/stm32f0xx_hal_rtc.c ****     bcdhigh++;
1359:Drivers/STM32F0xx_HAL_Driver/Src/stm32f0xx_hal_rtc.c ****     Value -= 10U;
1360:Drivers/STM32F0xx_HAL_Driver/Src/stm32f0xx_hal_rtc.c ****   }
1361:Drivers/STM32F0xx_HAL_Driver/Src/stm32f0xx_hal_rtc.c ****   
1362:Drivers/STM32F0xx_HAL_Driver/Src/stm32f0xx_hal_rtc.c ****   return  ((uint8_t)(bcdhigh << 4U) | Value);
1363:Drivers/STM32F0xx_HAL_Driver/Src/stm32f0xx_hal_rtc.c **** }
1364:Drivers/STM32F0xx_HAL_Driver/Src/stm32f0xx_hal_rtc.c **** 
1365:Drivers/STM32F0xx_HAL_Driver/Src/stm32f0xx_hal_rtc.c **** /**
1366:Drivers/STM32F0xx_HAL_Driver/Src/stm32f0xx_hal_rtc.c ****   * @brief  Convert from 2 digit BCD to Binary.
1367:Drivers/STM32F0xx_HAL_Driver/Src/stm32f0xx_hal_rtc.c ****   * @param  Value BCD value to be converted
1368:Drivers/STM32F0xx_HAL_Driver/Src/stm32f0xx_hal_rtc.c ****   * @retval Converted word
1369:Drivers/STM32F0xx_HAL_Driver/Src/stm32f0xx_hal_rtc.c ****   */
1370:Drivers/STM32F0xx_HAL_Driver/Src/stm32f0xx_hal_rtc.c **** uint8_t RTC_Bcd2ToByte(uint8_t Value)
 147              		.loc 1 1370 9 view .LVU37
 148              	.LBB69:
1371:Drivers/STM32F0xx_HAL_Driver/Src/stm32f0xx_hal_rtc.c **** {
1372:Drivers/STM32F0xx_HAL_Driver/Src/stm32f0xx_hal_rtc.c ****   uint32_t tmp = 0U;
 149              		.loc 1 1372 3 view .LVU38
1373:Drivers/STM32F0xx_HAL_Driver/Src/stm32f0xx_hal_rtc.c ****   tmp = ((uint8_t)(Value & (uint8_t)0xF0U) >> (uint8_t)0x4U) * 10U;
 150              		.loc 1 1373 3 view .LVU39
ARM GAS  /var/folders/vr/85797ndx6jd_r3n_lsprlrj40000gn/T//ccWMqnSu.s 			page 28


1374:Drivers/STM32F0xx_HAL_Driver/Src/stm32f0xx_hal_rtc.c ****   return (tmp + (Value & (uint8_t)0x0FU));
 151              		.loc 1 1374 3 view .LVU40
 152              		.loc 1 1374 24 is_stmt 0 view .LVU41
 153 0032 0F26     		movs	r6, #15
1373:Drivers/STM32F0xx_HAL_Driver/Src/stm32f0xx_hal_rtc.c ****   tmp = ((uint8_t)(Value & (uint8_t)0xF0U) >> (uint8_t)0x4U) * 10U;
 154              		.loc 1 1373 44 view .LVU42
 155 0034 0009     		lsrs	r0, r0, #4
1373:Drivers/STM32F0xx_HAL_Driver/Src/stm32f0xx_hal_rtc.c ****   tmp = ((uint8_t)(Value & (uint8_t)0xF0U) >> (uint8_t)0x4U) * 10U;
 156              		.loc 1 1373 7 view .LVU43
 157 0036 8200     		lsls	r2, r0, #2
 158              	.LVL6:
1373:Drivers/STM32F0xx_HAL_Driver/Src/stm32f0xx_hal_rtc.c ****   tmp = ((uint8_t)(Value & (uint8_t)0xF0U) >> (uint8_t)0x4U) * 10U;
 159              		.loc 1 1373 7 view .LVU44
 160 0038 1018     		adds	r0, r2, r0
 161 003a 4000     		lsls	r0, r0, #1
 162              		.loc 1 1374 24 view .LVU45
 163 003c 3540     		ands	r5, r6
 164              		.loc 1 1374 15 view .LVU46
 165 003e 4519     		adds	r5, r0, r5
 166              	.LBE69:
 167              	.LBE68:
 168              	.LBB70:
 169              	.LBB71:
1373:Drivers/STM32F0xx_HAL_Driver/Src/stm32f0xx_hal_rtc.c ****   tmp = ((uint8_t)(Value & (uint8_t)0xF0U) >> (uint8_t)0x4U) * 10U;
 170              		.loc 1 1373 44 view .LVU47
 171 0040 1809     		lsrs	r0, r3, #4
1373:Drivers/STM32F0xx_HAL_Driver/Src/stm32f0xx_hal_rtc.c ****   tmp = ((uint8_t)(Value & (uint8_t)0xF0U) >> (uint8_t)0x4U) * 10U;
 172              		.loc 1 1373 7 view .LVU48
 173 0042 8200     		lsls	r2, r0, #2
 174 0044 1218     		adds	r2, r2, r0
 175 0046 5200     		lsls	r2, r2, #1
 176              		.loc 1 1374 24 view .LVU49
 177 0048 3340     		ands	r3, r6
 178              		.loc 1 1374 15 view .LVU50
 179 004a D318     		adds	r3, r2, r3
 180              	.LBE71:
 181              	.LBE70:
 182              	.LBB73:
 183              	.LBB74:
1373:Drivers/STM32F0xx_HAL_Driver/Src/stm32f0xx_hal_rtc.c ****   tmp = ((uint8_t)(Value & (uint8_t)0xF0U) >> (uint8_t)0x4U) * 10U;
 184              		.loc 1 1373 44 view .LVU51
 185 004c 2209     		lsrs	r2, r4, #4
 186              	.LBE74:
 187              	.LBE73:
 572:Drivers/STM32F0xx_HAL_Driver/Src/stm32f0xx_hal_rtc.c ****     sTime->Seconds = (uint8_t)RTC_Bcd2ToByte(sTime->Seconds);  
 188              		.loc 1 572 20 view .LVU52
 189 004e 4B70     		strb	r3, [r1, #1]
 190              	.LBB77:
 191              	.LBB75:
1373:Drivers/STM32F0xx_HAL_Driver/Src/stm32f0xx_hal_rtc.c ****   tmp = ((uint8_t)(Value & (uint8_t)0xF0U) >> (uint8_t)0x4U) * 10U;
 192              		.loc 1 1373 7 view .LVU53
 193 0050 9300     		lsls	r3, r2, #2
 194 0052 9B18     		adds	r3, r3, r2
 195 0054 5B00     		lsls	r3, r3, #1
 196              		.loc 1 1374 24 view .LVU54
 197 0056 3440     		ands	r4, r6
 198              		.loc 1 1374 15 view .LVU55
ARM GAS  /var/folders/vr/85797ndx6jd_r3n_lsprlrj40000gn/T//ccWMqnSu.s 			page 29


 199 0058 1C19     		adds	r4, r3, r4
 200              	.LBE75:
 201              	.LBE77:
 571:Drivers/STM32F0xx_HAL_Driver/Src/stm32f0xx_hal_rtc.c ****     sTime->Minutes = (uint8_t)RTC_Bcd2ToByte(sTime->Minutes);
 202              		.loc 1 571 18 view .LVU56
 203 005a 0D70     		strb	r5, [r1]
 572:Drivers/STM32F0xx_HAL_Driver/Src/stm32f0xx_hal_rtc.c ****     sTime->Seconds = (uint8_t)RTC_Bcd2ToByte(sTime->Seconds);  
 204              		.loc 1 572 5 is_stmt 1 view .LVU57
 205              	.LBB78:
 206              	.LBI70:
1370:Drivers/STM32F0xx_HAL_Driver/Src/stm32f0xx_hal_rtc.c **** {
 207              		.loc 1 1370 9 view .LVU58
 208              	.LBB72:
1372:Drivers/STM32F0xx_HAL_Driver/Src/stm32f0xx_hal_rtc.c ****   tmp = ((uint8_t)(Value & (uint8_t)0xF0U) >> (uint8_t)0x4U) * 10U;
 209              		.loc 1 1372 3 view .LVU59
 210              	.LVL7:
1373:Drivers/STM32F0xx_HAL_Driver/Src/stm32f0xx_hal_rtc.c ****   return (tmp + (Value & (uint8_t)0x0FU));
 211              		.loc 1 1373 3 view .LVU60
 212              		.loc 1 1374 3 view .LVU61
 213              	.LBE72:
 214              	.LBE78:
 573:Drivers/STM32F0xx_HAL_Driver/Src/stm32f0xx_hal_rtc.c ****   }
 215              		.loc 1 573 5 view .LVU62
 216              	.LBB79:
 217              	.LBI73:
1370:Drivers/STM32F0xx_HAL_Driver/Src/stm32f0xx_hal_rtc.c **** {
 218              		.loc 1 1370 9 view .LVU63
 219              	.LBB76:
1372:Drivers/STM32F0xx_HAL_Driver/Src/stm32f0xx_hal_rtc.c ****   tmp = ((uint8_t)(Value & (uint8_t)0xF0U) >> (uint8_t)0x4U) * 10U;
 220              		.loc 1 1372 3 view .LVU64
1373:Drivers/STM32F0xx_HAL_Driver/Src/stm32f0xx_hal_rtc.c ****   return (tmp + (Value & (uint8_t)0x0FU));
 221              		.loc 1 1373 3 view .LVU65
 222              		.loc 1 1374 3 view .LVU66
 223              	.LBE76:
 224              	.LBE79:
 573:Drivers/STM32F0xx_HAL_Driver/Src/stm32f0xx_hal_rtc.c ****   }
 225              		.loc 1 573 20 is_stmt 0 view .LVU67
 226 005c 8C70     		strb	r4, [r1, #2]
 227              	.L5:
 576:Drivers/STM32F0xx_HAL_Driver/Src/stm32f0xx_hal_rtc.c **** }
 228              		.loc 1 576 3 is_stmt 1 view .LVU68
 577:Drivers/STM32F0xx_HAL_Driver/Src/stm32f0xx_hal_rtc.c **** 
 229              		.loc 1 577 1 is_stmt 0 view .LVU69
 230 005e 0020     		movs	r0, #0
 231              		@ sp needed
 232 0060 70BD     		pop	{r4, r5, r6, pc}
 233              	.L7:
 234 0062 C046     		.align	2
 235              	.L6:
 236 0064 7F7F7F00 		.word	8355711
 237              		.cfi_endproc
 238              	.LFE42:
 240              		.section	.text.HAL_RTC_GetDate,"ax",%progbits
 241              		.align	1
 242              		.p2align 2,,3
 243              		.global	HAL_RTC_GetDate
 244              		.syntax unified
ARM GAS  /var/folders/vr/85797ndx6jd_r3n_lsprlrj40000gn/T//ccWMqnSu.s 			page 30


 245              		.code	16
 246              		.thumb_func
 247              		.fpu softvfp
 249              	HAL_RTC_GetDate:
 250              	.LVL8:
 251              	.LFB44:
 701:Drivers/STM32F0xx_HAL_Driver/Src/stm32f0xx_hal_rtc.c ****   uint32_t datetmpreg = 0;
 252              		.loc 1 701 1 is_stmt 1 view -0
 253              		.cfi_startproc
 254              		@ args = 0, pretend = 0, frame = 0
 255              		@ frame_needed = 0, uses_anonymous_args = 0
 702:Drivers/STM32F0xx_HAL_Driver/Src/stm32f0xx_hal_rtc.c **** 
 256              		.loc 1 702 3 view .LVU71
 705:Drivers/STM32F0xx_HAL_Driver/Src/stm32f0xx_hal_rtc.c ****           
 257              		.loc 1 705 3 view .LVU72
 708:Drivers/STM32F0xx_HAL_Driver/Src/stm32f0xx_hal_rtc.c **** 
 258              		.loc 1 708 3 view .LVU73
 708:Drivers/STM32F0xx_HAL_Driver/Src/stm32f0xx_hal_rtc.c **** 
 259              		.loc 1 708 31 is_stmt 0 view .LVU74
 260 0000 0368     		ldr	r3, [r0]
 708:Drivers/STM32F0xx_HAL_Driver/Src/stm32f0xx_hal_rtc.c **** 
 261              		.loc 1 708 14 view .LVU75
 262 0002 1548     		ldr	r0, .L10
 263              	.LVL9:
 708:Drivers/STM32F0xx_HAL_Driver/Src/stm32f0xx_hal_rtc.c **** 
 264              		.loc 1 708 41 view .LVU76
 265 0004 5B68     		ldr	r3, [r3, #4]
 701:Drivers/STM32F0xx_HAL_Driver/Src/stm32f0xx_hal_rtc.c ****   uint32_t datetmpreg = 0;
 266              		.loc 1 701 1 view .LVU77
 267 0006 F0B5     		push	{r4, r5, r6, r7, lr}
 268              	.LCFI1:
 269              		.cfi_def_cfa_offset 20
 270              		.cfi_offset 4, -20
 271              		.cfi_offset 5, -16
 272              		.cfi_offset 6, -12
 273              		.cfi_offset 7, -8
 274              		.cfi_offset 14, -4
 708:Drivers/STM32F0xx_HAL_Driver/Src/stm32f0xx_hal_rtc.c **** 
 275              		.loc 1 708 14 view .LVU78
 276 0008 0340     		ands	r3, r0
 277              	.LVL10:
 711:Drivers/STM32F0xx_HAL_Driver/Src/stm32f0xx_hal_rtc.c ****   sDate->Month = (uint8_t)((datetmpreg & (RTC_DR_MT | RTC_DR_MU)) >> 8U);
 278              		.loc 1 711 3 is_stmt 1 view .LVU79
 712:Drivers/STM32F0xx_HAL_Driver/Src/stm32f0xx_hal_rtc.c ****   sDate->Date = (uint8_t)(datetmpreg & (RTC_DR_DT | RTC_DR_DU));
 279              		.loc 1 712 18 is_stmt 0 view .LVU80
 280 000a 1F20     		movs	r0, #31
 712:Drivers/STM32F0xx_HAL_Driver/Src/stm32f0xx_hal_rtc.c ****   sDate->Date = (uint8_t)(datetmpreg & (RTC_DR_DT | RTC_DR_DU));
 281              		.loc 1 712 67 view .LVU81
 282 000c 1D0A     		lsrs	r5, r3, #8
 711:Drivers/STM32F0xx_HAL_Driver/Src/stm32f0xx_hal_rtc.c ****   sDate->Month = (uint8_t)((datetmpreg & (RTC_DR_MT | RTC_DR_MU)) >> 8U);
 283              		.loc 1 711 17 view .LVU82
 284 000e 1F0C     		lsrs	r7, r3, #16
 713:Drivers/STM32F0xx_HAL_Driver/Src/stm32f0xx_hal_rtc.c ****   sDate->WeekDay = (uint8_t)((datetmpreg & (RTC_DR_WDU)) >> 13U); 
 285              		.loc 1 713 17 view .LVU83
 286 0010 DCB2     		uxtb	r4, r3
 712:Drivers/STM32F0xx_HAL_Driver/Src/stm32f0xx_hal_rtc.c ****   sDate->Date = (uint8_t)(datetmpreg & (RTC_DR_DT | RTC_DR_DU));
 287              		.loc 1 712 18 view .LVU84
ARM GAS  /var/folders/vr/85797ndx6jd_r3n_lsprlrj40000gn/T//ccWMqnSu.s 			page 31


 288 0012 EDB2     		uxtb	r5, r5
 714:Drivers/STM32F0xx_HAL_Driver/Src/stm32f0xx_hal_rtc.c **** 
 289              		.loc 1 714 20 view .LVU85
 290 0014 1B04     		lsls	r3, r3, #16
 291              	.LVL11:
 712:Drivers/STM32F0xx_HAL_Driver/Src/stm32f0xx_hal_rtc.c ****   sDate->Date = (uint8_t)(datetmpreg & (RTC_DR_DT | RTC_DR_DU));
 292              		.loc 1 712 18 view .LVU86
 293 0016 2840     		ands	r0, r5
 714:Drivers/STM32F0xx_HAL_Driver/Src/stm32f0xx_hal_rtc.c **** 
 294              		.loc 1 714 20 view .LVU87
 295 0018 5B0F     		lsrs	r3, r3, #29
 711:Drivers/STM32F0xx_HAL_Driver/Src/stm32f0xx_hal_rtc.c ****   sDate->Month = (uint8_t)((datetmpreg & (RTC_DR_MT | RTC_DR_MU)) >> 8U);
 296              		.loc 1 711 15 view .LVU88
 297 001a CF70     		strb	r7, [r1, #3]
 712:Drivers/STM32F0xx_HAL_Driver/Src/stm32f0xx_hal_rtc.c ****   sDate->Date = (uint8_t)(datetmpreg & (RTC_DR_DT | RTC_DR_DU));
 298              		.loc 1 712 3 is_stmt 1 view .LVU89
 712:Drivers/STM32F0xx_HAL_Driver/Src/stm32f0xx_hal_rtc.c ****   sDate->Date = (uint8_t)(datetmpreg & (RTC_DR_DT | RTC_DR_DU));
 299              		.loc 1 712 16 is_stmt 0 view .LVU90
 300 001c 4870     		strb	r0, [r1, #1]
 713:Drivers/STM32F0xx_HAL_Driver/Src/stm32f0xx_hal_rtc.c ****   sDate->WeekDay = (uint8_t)((datetmpreg & (RTC_DR_WDU)) >> 13U); 
 301              		.loc 1 713 3 is_stmt 1 view .LVU91
 713:Drivers/STM32F0xx_HAL_Driver/Src/stm32f0xx_hal_rtc.c ****   sDate->WeekDay = (uint8_t)((datetmpreg & (RTC_DR_WDU)) >> 13U); 
 302              		.loc 1 713 15 is_stmt 0 view .LVU92
 303 001e 8C70     		strb	r4, [r1, #2]
 714:Drivers/STM32F0xx_HAL_Driver/Src/stm32f0xx_hal_rtc.c **** 
 304              		.loc 1 714 3 is_stmt 1 view .LVU93
 714:Drivers/STM32F0xx_HAL_Driver/Src/stm32f0xx_hal_rtc.c **** 
 305              		.loc 1 714 18 is_stmt 0 view .LVU94
 306 0020 0B70     		strb	r3, [r1]
 717:Drivers/STM32F0xx_HAL_Driver/Src/stm32f0xx_hal_rtc.c ****   {    
 307              		.loc 1 717 3 is_stmt 1 view .LVU95
 717:Drivers/STM32F0xx_HAL_Driver/Src/stm32f0xx_hal_rtc.c ****   {    
 308              		.loc 1 717 5 is_stmt 0 view .LVU96
 309 0022 002A     		cmp	r2, #0
 310 0024 15D1     		bne	.L9
 720:Drivers/STM32F0xx_HAL_Driver/Src/stm32f0xx_hal_rtc.c ****     sDate->Month = (uint8_t)RTC_Bcd2ToByte(sDate->Month);
 311              		.loc 1 720 5 is_stmt 1 view .LVU97
 312              	.LVL12:
 313              	.LBB80:
 314              	.LBI80:
1370:Drivers/STM32F0xx_HAL_Driver/Src/stm32f0xx_hal_rtc.c **** {
 315              		.loc 1 1370 9 view .LVU98
 316              	.LBB81:
1372:Drivers/STM32F0xx_HAL_Driver/Src/stm32f0xx_hal_rtc.c ****   tmp = ((uint8_t)(Value & (uint8_t)0xF0U) >> (uint8_t)0x4U) * 10U;
 317              		.loc 1 1372 3 view .LVU99
1373:Drivers/STM32F0xx_HAL_Driver/Src/stm32f0xx_hal_rtc.c ****   return (tmp + (Value & (uint8_t)0x0FU));
 318              		.loc 1 1373 3 view .LVU100
 319              		.loc 1 1374 3 view .LVU101
 320              		.loc 1 1374 24 is_stmt 0 view .LVU102
 321 0026 0F26     		movs	r6, #15
1373:Drivers/STM32F0xx_HAL_Driver/Src/stm32f0xx_hal_rtc.c ****   return (tmp + (Value & (uint8_t)0x0FU));
 322              		.loc 1 1373 44 view .LVU103
 323 0028 3A09     		lsrs	r2, r7, #4
 324              	.LVL13:
1373:Drivers/STM32F0xx_HAL_Driver/Src/stm32f0xx_hal_rtc.c ****   return (tmp + (Value & (uint8_t)0x0FU));
 325              		.loc 1 1373 7 view .LVU104
 326 002a 9300     		lsls	r3, r2, #2
ARM GAS  /var/folders/vr/85797ndx6jd_r3n_lsprlrj40000gn/T//ccWMqnSu.s 			page 32


 327 002c 9B18     		adds	r3, r3, r2
 328              	.LBE81:
 329              	.LBE80:
 330              	.LBB83:
 331              	.LBB84:
1373:Drivers/STM32F0xx_HAL_Driver/Src/stm32f0xx_hal_rtc.c ****   return (tmp + (Value & (uint8_t)0x0FU));
 332              		.loc 1 1373 44 view .LVU105
 333 002e 0209     		lsrs	r2, r0, #4
1373:Drivers/STM32F0xx_HAL_Driver/Src/stm32f0xx_hal_rtc.c ****   return (tmp + (Value & (uint8_t)0x0FU));
 334              		.loc 1 1373 7 view .LVU106
 335 0030 9000     		lsls	r0, r2, #2
 336              	.LBE84:
 337              	.LBE83:
 338              	.LBB89:
 339              	.LBB82:
 340 0032 5B00     		lsls	r3, r3, #1
 341              		.loc 1 1374 24 view .LVU107
 342 0034 3740     		ands	r7, r6
 343              		.loc 1 1374 15 view .LVU108
 344 0036 DB19     		adds	r3, r3, r7
 345              	.LBE82:
 346              	.LBE89:
 347              	.LBB90:
 348              	.LBB85:
1373:Drivers/STM32F0xx_HAL_Driver/Src/stm32f0xx_hal_rtc.c ****   return (tmp + (Value & (uint8_t)0x0FU));
 349              		.loc 1 1373 7 view .LVU109
 350 0038 8018     		adds	r0, r0, r2
 351              	.LBE85:
 352              	.LBE90:
 353              	.LBB91:
 354              	.LBB92:
1373:Drivers/STM32F0xx_HAL_Driver/Src/stm32f0xx_hal_rtc.c ****   return (tmp + (Value & (uint8_t)0x0FU));
 355              		.loc 1 1373 44 view .LVU110
 356 003a 2209     		lsrs	r2, r4, #4
 357              	.LBE92:
 358              	.LBE91:
 720:Drivers/STM32F0xx_HAL_Driver/Src/stm32f0xx_hal_rtc.c ****     sDate->Month = (uint8_t)RTC_Bcd2ToByte(sDate->Month);
 359              		.loc 1 720 17 view .LVU111
 360 003c CB70     		strb	r3, [r1, #3]
 721:Drivers/STM32F0xx_HAL_Driver/Src/stm32f0xx_hal_rtc.c ****     sDate->Date = (uint8_t)RTC_Bcd2ToByte(sDate->Date);  
 361              		.loc 1 721 5 is_stmt 1 view .LVU112
 362              	.LBB97:
 363              	.LBI83:
1370:Drivers/STM32F0xx_HAL_Driver/Src/stm32f0xx_hal_rtc.c **** {
 364              		.loc 1 1370 9 view .LVU113
 365              	.LBB86:
1372:Drivers/STM32F0xx_HAL_Driver/Src/stm32f0xx_hal_rtc.c ****   tmp = ((uint8_t)(Value & (uint8_t)0xF0U) >> (uint8_t)0x4U) * 10U;
 366              		.loc 1 1372 3 view .LVU114
 367              	.LVL14:
1373:Drivers/STM32F0xx_HAL_Driver/Src/stm32f0xx_hal_rtc.c ****   return (tmp + (Value & (uint8_t)0x0FU));
 368              		.loc 1 1373 3 view .LVU115
 369              		.loc 1 1374 3 view .LVU116
 370              	.LBE86:
 371              	.LBE97:
 372              	.LBB98:
 373              	.LBB93:
1373:Drivers/STM32F0xx_HAL_Driver/Src/stm32f0xx_hal_rtc.c ****   return (tmp + (Value & (uint8_t)0x0FU));
ARM GAS  /var/folders/vr/85797ndx6jd_r3n_lsprlrj40000gn/T//ccWMqnSu.s 			page 33


 374              		.loc 1 1373 7 is_stmt 0 view .LVU117
 375 003e 9300     		lsls	r3, r2, #2
 376 0040 9B18     		adds	r3, r3, r2
 377              	.LBE93:
 378              	.LBE98:
 379              	.LBB99:
 380              	.LBB87:
 381 0042 4000     		lsls	r0, r0, #1
 382              		.loc 1 1374 24 view .LVU118
 383 0044 3540     		ands	r5, r6
 384              	.LBE87:
 385              	.LBE99:
 386              	.LBB100:
 387              	.LBB94:
1373:Drivers/STM32F0xx_HAL_Driver/Src/stm32f0xx_hal_rtc.c ****   return (tmp + (Value & (uint8_t)0x0FU));
 388              		.loc 1 1373 7 view .LVU119
 389 0046 5B00     		lsls	r3, r3, #1
 390              		.loc 1 1374 24 view .LVU120
 391 0048 3440     		ands	r4, r6
 392              	.LBE94:
 393              	.LBE100:
 394              	.LBB101:
 395              	.LBB88:
 396              		.loc 1 1374 15 view .LVU121
 397 004a 4019     		adds	r0, r0, r5
 398              	.LBE88:
 399              	.LBE101:
 400              	.LBB102:
 401              	.LBB95:
 402 004c 1B19     		adds	r3, r3, r4
 403              	.LBE95:
 404              	.LBE102:
 721:Drivers/STM32F0xx_HAL_Driver/Src/stm32f0xx_hal_rtc.c ****     sDate->Date = (uint8_t)RTC_Bcd2ToByte(sDate->Date);  
 405              		.loc 1 721 18 view .LVU122
 406 004e 4870     		strb	r0, [r1, #1]
 722:Drivers/STM32F0xx_HAL_Driver/Src/stm32f0xx_hal_rtc.c ****   }
 407              		.loc 1 722 5 is_stmt 1 view .LVU123
 408              	.LBB103:
 409              	.LBI91:
1370:Drivers/STM32F0xx_HAL_Driver/Src/stm32f0xx_hal_rtc.c **** {
 410              		.loc 1 1370 9 view .LVU124
 411              	.LBB96:
1372:Drivers/STM32F0xx_HAL_Driver/Src/stm32f0xx_hal_rtc.c ****   tmp = ((uint8_t)(Value & (uint8_t)0xF0U) >> (uint8_t)0x4U) * 10U;
 412              		.loc 1 1372 3 view .LVU125
 413              	.LVL15:
1373:Drivers/STM32F0xx_HAL_Driver/Src/stm32f0xx_hal_rtc.c ****   return (tmp + (Value & (uint8_t)0x0FU));
 414              		.loc 1 1373 3 view .LVU126
 415              		.loc 1 1374 3 view .LVU127
 416              	.LBE96:
 417              	.LBE103:
 722:Drivers/STM32F0xx_HAL_Driver/Src/stm32f0xx_hal_rtc.c ****   }
 418              		.loc 1 722 17 is_stmt 0 view .LVU128
 419 0050 8B70     		strb	r3, [r1, #2]
 420              	.L9:
 724:Drivers/STM32F0xx_HAL_Driver/Src/stm32f0xx_hal_rtc.c **** }
 421              		.loc 1 724 3 is_stmt 1 view .LVU129
 725:Drivers/STM32F0xx_HAL_Driver/Src/stm32f0xx_hal_rtc.c **** 
ARM GAS  /var/folders/vr/85797ndx6jd_r3n_lsprlrj40000gn/T//ccWMqnSu.s 			page 34


 422              		.loc 1 725 1 is_stmt 0 view .LVU130
 423 0052 0020     		movs	r0, #0
 424              		@ sp needed
 425 0054 F0BD     		pop	{r4, r5, r6, r7, pc}
 426              	.L11:
 427 0056 C046     		.align	2
 428              	.L10:
 429 0058 3FFFFF00 		.word	16777023
 430              		.cfi_endproc
 431              	.LFE44:
 433              		.section	.text.HAL_RTC_SetAlarm,"ax",%progbits
 434              		.align	1
 435              		.p2align 2,,3
 436              		.global	HAL_RTC_SetAlarm
 437              		.syntax unified
 438              		.code	16
 439              		.thumb_func
 440              		.fpu softvfp
 442              	HAL_RTC_SetAlarm:
 443              	.LVL16:
 444              	.LFB45:
 755:Drivers/STM32F0xx_HAL_Driver/Src/stm32f0xx_hal_rtc.c ****   uint32_t tickstart = 0U;
 445              		.loc 1 755 1 is_stmt 1 view -0
 446              		.cfi_startproc
 447              		@ args = 0, pretend = 0, frame = 0
 448              		@ frame_needed = 0, uses_anonymous_args = 0
 756:Drivers/STM32F0xx_HAL_Driver/Src/stm32f0xx_hal_rtc.c ****   uint32_t tmpreg = 0U, subsecondtmpreg = 0U;
 449              		.loc 1 756 3 view .LVU132
 757:Drivers/STM32F0xx_HAL_Driver/Src/stm32f0xx_hal_rtc.c ****   
 450              		.loc 1 757 3 view .LVU133
 760:Drivers/STM32F0xx_HAL_Driver/Src/stm32f0xx_hal_rtc.c ****   assert_param(IS_RTC_ALARM(sAlarm->Alarm));
 451              		.loc 1 760 3 view .LVU134
 761:Drivers/STM32F0xx_HAL_Driver/Src/stm32f0xx_hal_rtc.c ****   assert_param(IS_RTC_ALARM_MASK(sAlarm->AlarmMask));
 452              		.loc 1 761 3 view .LVU135
 762:Drivers/STM32F0xx_HAL_Driver/Src/stm32f0xx_hal_rtc.c ****   assert_param(IS_RTC_ALARM_DATE_WEEKDAY_SEL(sAlarm->AlarmDateWeekDaySel));
 453              		.loc 1 762 3 view .LVU136
 763:Drivers/STM32F0xx_HAL_Driver/Src/stm32f0xx_hal_rtc.c ****   assert_param(IS_RTC_ALARM_SUB_SECOND_VALUE(sAlarm->AlarmTime.SubSeconds));
 454              		.loc 1 763 3 view .LVU137
 764:Drivers/STM32F0xx_HAL_Driver/Src/stm32f0xx_hal_rtc.c ****   assert_param(IS_RTC_ALARM_SUB_SECOND_MASK(sAlarm->AlarmSubSecondMask));
 455              		.loc 1 764 3 view .LVU138
 765:Drivers/STM32F0xx_HAL_Driver/Src/stm32f0xx_hal_rtc.c ****   
 456              		.loc 1 765 3 view .LVU139
 768:Drivers/STM32F0xx_HAL_Driver/Src/stm32f0xx_hal_rtc.c ****   
 457              		.loc 1 768 3 view .LVU140
 768:Drivers/STM32F0xx_HAL_Driver/Src/stm32f0xx_hal_rtc.c ****   
 458              		.loc 1 768 3 view .LVU141
 755:Drivers/STM32F0xx_HAL_Driver/Src/stm32f0xx_hal_rtc.c ****   uint32_t tickstart = 0U;
 459              		.loc 1 755 1 is_stmt 0 view .LVU142
 460 0000 F8B5     		push	{r3, r4, r5, r6, r7, lr}
 461              	.LCFI2:
 462              		.cfi_def_cfa_offset 24
 463              		.cfi_offset 3, -24
 464              		.cfi_offset 4, -20
 465              		.cfi_offset 5, -16
 466              		.cfi_offset 6, -12
 467              		.cfi_offset 7, -8
 468              		.cfi_offset 14, -4
ARM GAS  /var/folders/vr/85797ndx6jd_r3n_lsprlrj40000gn/T//ccWMqnSu.s 			page 35


 469 0002 4546     		mov	r5, r8
 470 0004 DE46     		mov	lr, fp
 471 0006 5746     		mov	r7, r10
 472 0008 4E46     		mov	r6, r9
 473 000a E0B5     		push	{r5, r6, r7, lr}
 474              	.LCFI3:
 475              		.cfi_def_cfa_offset 40
 476              		.cfi_offset 8, -40
 477              		.cfi_offset 9, -36
 478              		.cfi_offset 10, -32
 479              		.cfi_offset 11, -28
 768:Drivers/STM32F0xx_HAL_Driver/Src/stm32f0xx_hal_rtc.c ****   
 480              		.loc 1 768 3 view .LVU143
 481 000c 037F     		ldrb	r3, [r0, #28]
 755:Drivers/STM32F0xx_HAL_Driver/Src/stm32f0xx_hal_rtc.c ****   uint32_t tickstart = 0U;
 482              		.loc 1 755 1 view .LVU144
 483 000e 0500     		movs	r5, r0
 768:Drivers/STM32F0xx_HAL_Driver/Src/stm32f0xx_hal_rtc.c ****   
 484              		.loc 1 768 3 view .LVU145
 485 0010 012B     		cmp	r3, #1
 486 0012 00D1     		bne	.LCB384
 487 0014 A9E0     		b	.L30	@long jump
 488              	.LCB384:
 768:Drivers/STM32F0xx_HAL_Driver/Src/stm32f0xx_hal_rtc.c ****   
 489              		.loc 1 768 3 is_stmt 1 discriminator 2 view .LVU146
 490 0016 0123     		movs	r3, #1
 491 0018 0468     		ldr	r4, [r0]
 492 001a 0377     		strb	r3, [r0, #28]
 770:Drivers/STM32F0xx_HAL_Driver/Src/stm32f0xx_hal_rtc.c ****   
 493              		.loc 1 770 3 discriminator 2 view .LVU147
 770:Drivers/STM32F0xx_HAL_Driver/Src/stm32f0xx_hal_rtc.c ****   
 494              		.loc 1 770 15 is_stmt 0 discriminator 2 view .LVU148
 495 001c 0133     		adds	r3, r3, #1
 496 001e 4377     		strb	r3, [r0, #29]
 772:Drivers/STM32F0xx_HAL_Driver/Src/stm32f0xx_hal_rtc.c ****   {
 497              		.loc 1 772 3 is_stmt 1 discriminator 2 view .LVU149
 774:Drivers/STM32F0xx_HAL_Driver/Src/stm32f0xx_hal_rtc.c ****     {
 498              		.loc 1 774 23 is_stmt 0 discriminator 2 view .LVU150
 499 0020 A368     		ldr	r3, [r4, #8]
 774:Drivers/STM32F0xx_HAL_Driver/Src/stm32f0xx_hal_rtc.c ****     {
 500              		.loc 1 774 28 discriminator 2 view .LVU151
 501 0022 4026     		movs	r6, #64
 772:Drivers/STM32F0xx_HAL_Driver/Src/stm32f0xx_hal_rtc.c ****   {
 502              		.loc 1 772 5 discriminator 2 view .LVU152
 503 0024 002A     		cmp	r2, #0
 504 0026 4DD0     		beq	.L36
 806:Drivers/STM32F0xx_HAL_Driver/Src/stm32f0xx_hal_rtc.c ****     {
 505              		.loc 1 806 5 is_stmt 1 view .LVU153
 806:Drivers/STM32F0xx_HAL_Driver/Src/stm32f0xx_hal_rtc.c ****     {
 506              		.loc 1 806 28 is_stmt 0 view .LVU154
 507 0028 3340     		ands	r3, r6
 806:Drivers/STM32F0xx_HAL_Driver/Src/stm32f0xx_hal_rtc.c ****     {
 508              		.loc 1 806 7 view .LVU155
 509 002a 00D1     		bne	.LCB400
 510 002c 99E0     		b	.L26	@long jump
 511              	.LCB400:
 512 002e CB78     		ldrb	r3, [r1, #3]
ARM GAS  /var/folders/vr/85797ndx6jd_r3n_lsprlrj40000gn/T//ccWMqnSu.s 			page 36


 513 0030 1B04     		lsls	r3, r3, #16
 514              	.L27:
 815:Drivers/STM32F0xx_HAL_Driver/Src/stm32f0xx_hal_rtc.c ****     }
 515              		.loc 1 815 7 is_stmt 1 view .LVU156
 818:Drivers/STM32F0xx_HAL_Driver/Src/stm32f0xx_hal_rtc.c ****     assert_param(IS_RTC_SECONDS(RTC_Bcd2ToByte(sAlarm->AlarmTime.Seconds)));
 516              		.loc 1 818 5 view .LVU157
 819:Drivers/STM32F0xx_HAL_Driver/Src/stm32f0xx_hal_rtc.c ****     
 517              		.loc 1 819 5 view .LVU158
 821:Drivers/STM32F0xx_HAL_Driver/Src/stm32f0xx_hal_rtc.c ****     {
 518              		.loc 1 821 5 view .LVU159
 828:Drivers/STM32F0xx_HAL_Driver/Src/stm32f0xx_hal_rtc.c ****       assert_param(IS_RTC_ALARM_DATE_WEEKDAY_WEEKDAY(tmpreg));      
 519              		.loc 1 828 7 view .LVU160
 520              	.LVL17:
1372:Drivers/STM32F0xx_HAL_Driver/Src/stm32f0xx_hal_rtc.c ****   tmp = ((uint8_t)(Value & (uint8_t)0xF0U) >> (uint8_t)0x4U) * 10U;
 521              		.loc 1 1372 3 view .LVU161
1373:Drivers/STM32F0xx_HAL_Driver/Src/stm32f0xx_hal_rtc.c ****   return (tmp + (Value & (uint8_t)0x0FU));
 522              		.loc 1 1373 3 view .LVU162
 523              		.loc 1 1374 3 view .LVU163
 829:Drivers/STM32F0xx_HAL_Driver/Src/stm32f0xx_hal_rtc.c ****     }  
 524              		.loc 1 829 7 view .LVU164
 832:Drivers/STM32F0xx_HAL_Driver/Src/stm32f0xx_hal_rtc.c ****               ((uint32_t)(sAlarm->AlarmTime.Minutes) << 8U) | \
 525              		.loc 1 832 5 view .LVU165
 832:Drivers/STM32F0xx_HAL_Driver/Src/stm32f0xx_hal_rtc.c ****               ((uint32_t)(sAlarm->AlarmTime.Minutes) << 8U) | \
 526              		.loc 1 832 12 is_stmt 0 view .LVU166
 527 0032 4A69     		ldr	r2, [r1, #20]
 528              	.LVL18:
 832:Drivers/STM32F0xx_HAL_Driver/Src/stm32f0xx_hal_rtc.c ****               ((uint32_t)(sAlarm->AlarmTime.Minutes) << 8U) | \
 529              		.loc 1 832 12 view .LVU167
 530 0034 CE69     		ldr	r6, [r1, #28]
 531 0036 1643     		orrs	r6, r2
 834:Drivers/STM32F0xx_HAL_Driver/Src/stm32f0xx_hal_rtc.c ****               ((uint32_t)(sAlarm->AlarmTime.TimeFormat) << 16U) | \
 532              		.loc 1 834 16 view .LVU168
 533 0038 8A78     		ldrb	r2, [r1, #2]
 832:Drivers/STM32F0xx_HAL_Driver/Src/stm32f0xx_hal_rtc.c ****               ((uint32_t)(sAlarm->AlarmTime.Minutes) << 8U) | \
 534              		.loc 1 832 12 view .LVU169
 535 003a 1643     		orrs	r6, r2
 832:Drivers/STM32F0xx_HAL_Driver/Src/stm32f0xx_hal_rtc.c ****               ((uint32_t)(sAlarm->AlarmTime.Minutes) << 8U) | \
 536              		.loc 1 832 16 view .LVU170
 537 003c 0A78     		ldrb	r2, [r1]
 832:Drivers/STM32F0xx_HAL_Driver/Src/stm32f0xx_hal_rtc.c ****               ((uint32_t)(sAlarm->AlarmTime.Minutes) << 8U) | \
 538              		.loc 1 832 52 view .LVU171
 539 003e 1204     		lsls	r2, r2, #16
 832:Drivers/STM32F0xx_HAL_Driver/Src/stm32f0xx_hal_rtc.c ****               ((uint32_t)(sAlarm->AlarmTime.Minutes) << 8U) | \
 540              		.loc 1 832 12 view .LVU172
 541 0040 1643     		orrs	r6, r2
 833:Drivers/STM32F0xx_HAL_Driver/Src/stm32f0xx_hal_rtc.c ****               ((uint32_t) sAlarm->AlarmTime.Seconds) | \
 542              		.loc 1 833 16 view .LVU173
 543 0042 4A78     		ldrb	r2, [r1, #1]
 833:Drivers/STM32F0xx_HAL_Driver/Src/stm32f0xx_hal_rtc.c ****               ((uint32_t) sAlarm->AlarmTime.Seconds) | \
 544              		.loc 1 833 54 view .LVU174
 545 0044 1202     		lsls	r2, r2, #8
 832:Drivers/STM32F0xx_HAL_Driver/Src/stm32f0xx_hal_rtc.c ****               ((uint32_t)(sAlarm->AlarmTime.Minutes) << 8U) | \
 546              		.loc 1 832 12 view .LVU175
 547 0046 1643     		orrs	r6, r2
 836:Drivers/STM32F0xx_HAL_Driver/Src/stm32f0xx_hal_rtc.c ****               ((uint32_t)sAlarm->AlarmDateWeekDaySel) | \
 548              		.loc 1 836 33 view .LVU176
 549 0048 2022     		movs	r2, #32
ARM GAS  /var/folders/vr/85797ndx6jd_r3n_lsprlrj40000gn/T//ccWMqnSu.s 			page 37


 836:Drivers/STM32F0xx_HAL_Driver/Src/stm32f0xx_hal_rtc.c ****               ((uint32_t)sAlarm->AlarmDateWeekDaySel) | \
 550              		.loc 1 836 16 view .LVU177
 551 004a 8A5C     		ldrb	r2, [r1, r2]
 836:Drivers/STM32F0xx_HAL_Driver/Src/stm32f0xx_hal_rtc.c ****               ((uint32_t)sAlarm->AlarmDateWeekDaySel) | \
 552              		.loc 1 836 53 view .LVU178
 553 004c 1206     		lsls	r2, r2, #24
 832:Drivers/STM32F0xx_HAL_Driver/Src/stm32f0xx_hal_rtc.c ****               ((uint32_t)(sAlarm->AlarmTime.Minutes) << 8U) | \
 554              		.loc 1 832 12 view .LVU179
 555 004e 1643     		orrs	r6, r2
 556 0050 1E43     		orrs	r6, r3
 557 0052 B046     		mov	r8, r6
 558              	.LVL19:
 559              	.L25:
 842:Drivers/STM32F0xx_HAL_Driver/Src/stm32f0xx_hal_rtc.c ****   
 560              		.loc 1 842 3 is_stmt 1 view .LVU180
 842:Drivers/STM32F0xx_HAL_Driver/Src/stm32f0xx_hal_rtc.c ****   
 561              		.loc 1 842 60 is_stmt 0 view .LVU181
 562 0054 4B68     		ldr	r3, [r1, #4]
 848:Drivers/STM32F0xx_HAL_Driver/Src/stm32f0xx_hal_rtc.c **** 
 563              		.loc 1 848 3 view .LVU182
 564 0056 464A     		ldr	r2, .L38
 842:Drivers/STM32F0xx_HAL_Driver/Src/stm32f0xx_hal_rtc.c ****   
 565              		.loc 1 842 60 view .LVU183
 566 0058 9A46     		mov	r10, r3
 842:Drivers/STM32F0xx_HAL_Driver/Src/stm32f0xx_hal_rtc.c ****   
 567              		.loc 1 842 92 view .LVU184
 568 005a 8B69     		ldr	r3, [r1, #24]
 857:Drivers/STM32F0xx_HAL_Driver/Src/stm32f0xx_hal_rtc.c ****     {
 569              		.loc 1 857 7 view .LVU185
 570 005c FA26     		movs	r6, #250
 842:Drivers/STM32F0xx_HAL_Driver/Src/stm32f0xx_hal_rtc.c ****   
 571              		.loc 1 842 92 view .LVU186
 572 005e 9B46     		mov	fp, r3
 573              	.LVL20:
 845:Drivers/STM32F0xx_HAL_Driver/Src/stm32f0xx_hal_rtc.c **** 
 574              		.loc 1 845 3 is_stmt 1 view .LVU187
 845:Drivers/STM32F0xx_HAL_Driver/Src/stm32f0xx_hal_rtc.c **** 
 575              		.loc 1 845 3 view .LVU188
 576 0060 CA23     		movs	r3, #202
 577              	.LVL21:
 845:Drivers/STM32F0xx_HAL_Driver/Src/stm32f0xx_hal_rtc.c **** 
 578              		.loc 1 845 3 is_stmt 0 view .LVU189
 579 0062 6362     		str	r3, [r4, #36]
 845:Drivers/STM32F0xx_HAL_Driver/Src/stm32f0xx_hal_rtc.c **** 
 580              		.loc 1 845 3 is_stmt 1 view .LVU190
 581 0064 773B     		subs	r3, r3, #119
 582 0066 6362     		str	r3, [r4, #36]
 848:Drivers/STM32F0xx_HAL_Driver/Src/stm32f0xx_hal_rtc.c **** 
 583              		.loc 1 848 3 view .LVU191
 584 0068 A368     		ldr	r3, [r4, #8]
 855:Drivers/STM32F0xx_HAL_Driver/Src/stm32f0xx_hal_rtc.c ****   {
 585              		.loc 1 855 9 is_stmt 0 view .LVU192
 586 006a 0127     		movs	r7, #1
 848:Drivers/STM32F0xx_HAL_Driver/Src/stm32f0xx_hal_rtc.c **** 
 587              		.loc 1 848 3 view .LVU193
 588 006c 1340     		ands	r3, r2
 589 006e A360     		str	r3, [r4, #8]
ARM GAS  /var/folders/vr/85797ndx6jd_r3n_lsprlrj40000gn/T//ccWMqnSu.s 			page 38


 851:Drivers/STM32F0xx_HAL_Driver/Src/stm32f0xx_hal_rtc.c ****          
 590              		.loc 1 851 3 is_stmt 1 view .LVU194
 591 0070 A368     		ldr	r3, [r4, #8]
 592 0072 404A     		ldr	r2, .L38+4
 857:Drivers/STM32F0xx_HAL_Driver/Src/stm32f0xx_hal_rtc.c ****     {
 593              		.loc 1 857 7 is_stmt 0 view .LVU195
 594 0074 B600     		lsls	r6, r6, #2
 851:Drivers/STM32F0xx_HAL_Driver/Src/stm32f0xx_hal_rtc.c ****          
 595              		.loc 1 851 3 view .LVU196
 596 0076 1340     		ands	r3, r2
 597 0078 A360     		str	r3, [r4, #8]
 853:Drivers/STM32F0xx_HAL_Driver/Src/stm32f0xx_hal_rtc.c ****   /* Wait till RTC ALRAWF flag is set and if Time out is reached exit */
 598              		.loc 1 853 3 is_stmt 1 view .LVU197
 853:Drivers/STM32F0xx_HAL_Driver/Src/stm32f0xx_hal_rtc.c ****   /* Wait till RTC ALRAWF flag is set and if Time out is reached exit */
 599              		.loc 1 853 15 is_stmt 0 view .LVU198
 600 007a FFF7FEFF 		bl	HAL_GetTick
 601              	.LVL22:
 853:Drivers/STM32F0xx_HAL_Driver/Src/stm32f0xx_hal_rtc.c ****   /* Wait till RTC ALRAWF flag is set and if Time out is reached exit */
 602              		.loc 1 853 15 view .LVU199
 603 007e 8146     		mov	r9, r0
 604              	.LVL23:
 855:Drivers/STM32F0xx_HAL_Driver/Src/stm32f0xx_hal_rtc.c ****   {
 605              		.loc 1 855 3 is_stmt 1 view .LVU200
 855:Drivers/STM32F0xx_HAL_Driver/Src/stm32f0xx_hal_rtc.c ****   {
 606              		.loc 1 855 8 is_stmt 0 view .LVU201
 607 0080 05E0     		b	.L28
 608              	.LVL24:
 609              	.L29:
 857:Drivers/STM32F0xx_HAL_Driver/Src/stm32f0xx_hal_rtc.c ****     {
 610              		.loc 1 857 5 is_stmt 1 view .LVU202
 857:Drivers/STM32F0xx_HAL_Driver/Src/stm32f0xx_hal_rtc.c ****     {
 611              		.loc 1 857 9 is_stmt 0 view .LVU203
 612 0082 FFF7FEFF 		bl	HAL_GetTick
 613              	.LVL25:
 857:Drivers/STM32F0xx_HAL_Driver/Src/stm32f0xx_hal_rtc.c ****     {
 614              		.loc 1 857 22 view .LVU204
 615 0086 4B46     		mov	r3, r9
 616 0088 C01A     		subs	r0, r0, r3
 857:Drivers/STM32F0xx_HAL_Driver/Src/stm32f0xx_hal_rtc.c ****     {
 617              		.loc 1 857 7 view .LVU205
 618 008a B042     		cmp	r0, r6
 619 008c 61D8     		bhi	.L37
 620              	.L28:
 855:Drivers/STM32F0xx_HAL_Driver/Src/stm32f0xx_hal_rtc.c ****   {
 621              		.loc 1 855 9 view .LVU206
 622 008e 2B68     		ldr	r3, [r5]
 623 0090 DC68     		ldr	r4, [r3, #12]
 624 0092 3C40     		ands	r4, r7
 855:Drivers/STM32F0xx_HAL_Driver/Src/stm32f0xx_hal_rtc.c ****   {
 625              		.loc 1 855 8 view .LVU207
 626 0094 F5D0     		beq	.L29
 871:Drivers/STM32F0xx_HAL_Driver/Src/stm32f0xx_hal_rtc.c ****   /* Configure the Alarm A Sub Second register */
 627              		.loc 1 871 3 is_stmt 1 view .LVU208
 871:Drivers/STM32F0xx_HAL_Driver/Src/stm32f0xx_hal_rtc.c ****   /* Configure the Alarm A Sub Second register */
 628              		.loc 1 871 26 is_stmt 0 view .LVU209
 629 0096 4246     		mov	r2, r8
 842:Drivers/STM32F0xx_HAL_Driver/Src/stm32f0xx_hal_rtc.c ****   
ARM GAS  /var/folders/vr/85797ndx6jd_r3n_lsprlrj40000gn/T//ccWMqnSu.s 			page 39


 630              		.loc 1 842 19 view .LVU210
 631 0098 5946     		mov	r1, fp
 871:Drivers/STM32F0xx_HAL_Driver/Src/stm32f0xx_hal_rtc.c ****   /* Configure the Alarm A Sub Second register */
 632              		.loc 1 871 26 view .LVU211
 633 009a DA61     		str	r2, [r3, #28]
 873:Drivers/STM32F0xx_HAL_Driver/Src/stm32f0xx_hal_rtc.c ****   /* Configure the Alarm state: Enable Alarm */
 634              		.loc 1 873 3 is_stmt 1 view .LVU212
 842:Drivers/STM32F0xx_HAL_Driver/Src/stm32f0xx_hal_rtc.c ****   
 635              		.loc 1 842 19 is_stmt 0 view .LVU213
 636 009c 5246     		mov	r2, r10
 637 009e 0A43     		orrs	r2, r1
 873:Drivers/STM32F0xx_HAL_Driver/Src/stm32f0xx_hal_rtc.c ****   /* Configure the Alarm state: Enable Alarm */
 638              		.loc 1 873 28 view .LVU214
 639 00a0 5A64     		str	r2, [r3, #68]
 875:Drivers/STM32F0xx_HAL_Driver/Src/stm32f0xx_hal_rtc.c ****   
 640              		.loc 1 875 3 is_stmt 1 view .LVU215
 641 00a2 8022     		movs	r2, #128
 642 00a4 9968     		ldr	r1, [r3, #8]
 643 00a6 5200     		lsls	r2, r2, #1
 644 00a8 0A43     		orrs	r2, r1
 645 00aa 9A60     		str	r2, [r3, #8]
 878:Drivers/STM32F0xx_HAL_Driver/Src/stm32f0xx_hal_rtc.c ****   
 646              		.loc 1 878 3 view .LVU216
 878:Drivers/STM32F0xx_HAL_Driver/Src/stm32f0xx_hal_rtc.c ****   
 647              		.loc 1 878 3 view .LVU217
 648 00ac FF22     		movs	r2, #255
 649 00ae 5A62     		str	r2, [r3, #36]
 881:Drivers/STM32F0xx_HAL_Driver/Src/stm32f0xx_hal_rtc.c ****   
 650              		.loc 1 881 3 view .LVU218
 884:Drivers/STM32F0xx_HAL_Driver/Src/stm32f0xx_hal_rtc.c ****   
 651              		.loc 1 884 3 is_stmt 0 view .LVU219
 652 00b0 0023     		movs	r3, #0
 886:Drivers/STM32F0xx_HAL_Driver/Src/stm32f0xx_hal_rtc.c **** }
 653              		.loc 1 886 10 view .LVU220
 654 00b2 0020     		movs	r0, #0
 881:Drivers/STM32F0xx_HAL_Driver/Src/stm32f0xx_hal_rtc.c ****   
 655              		.loc 1 881 15 view .LVU221
 656 00b4 6F77     		strb	r7, [r5, #29]
 884:Drivers/STM32F0xx_HAL_Driver/Src/stm32f0xx_hal_rtc.c ****   
 657              		.loc 1 884 3 is_stmt 1 view .LVU222
 884:Drivers/STM32F0xx_HAL_Driver/Src/stm32f0xx_hal_rtc.c ****   
 658              		.loc 1 884 3 view .LVU223
 659 00b6 2B77     		strb	r3, [r5, #28]
 886:Drivers/STM32F0xx_HAL_Driver/Src/stm32f0xx_hal_rtc.c **** }
 660              		.loc 1 886 3 view .LVU224
 661              	.LVL26:
 662              	.L13:
 887:Drivers/STM32F0xx_HAL_Driver/Src/stm32f0xx_hal_rtc.c **** 
 663              		.loc 1 887 1 is_stmt 0 view .LVU225
 664              		@ sp needed
 665              	.LVL27:
 887:Drivers/STM32F0xx_HAL_Driver/Src/stm32f0xx_hal_rtc.c **** 
 666              		.loc 1 887 1 view .LVU226
 667 00b8 3CBC     		pop	{r2, r3, r4, r5}
 668 00ba 9046     		mov	r8, r2
 669 00bc 9946     		mov	r9, r3
 670 00be A246     		mov	r10, r4
ARM GAS  /var/folders/vr/85797ndx6jd_r3n_lsprlrj40000gn/T//ccWMqnSu.s 			page 40


 671 00c0 AB46     		mov	fp, r5
 672 00c2 F8BD     		pop	{r3, r4, r5, r6, r7, pc}
 673              	.LVL28:
 674              	.L36:
 774:Drivers/STM32F0xx_HAL_Driver/Src/stm32f0xx_hal_rtc.c ****     {
 675              		.loc 1 774 5 is_stmt 1 view .LVU227
 774:Drivers/STM32F0xx_HAL_Driver/Src/stm32f0xx_hal_rtc.c ****     {
 676              		.loc 1 774 28 is_stmt 0 view .LVU228
 677 00c4 1E40     		ands	r6, r3
 774:Drivers/STM32F0xx_HAL_Driver/Src/stm32f0xx_hal_rtc.c ****     {
 678              		.loc 1 774 7 view .LVU229
 679 00c6 4ED0     		beq	.L15
 680 00c8 CE78     		ldrb	r6, [r1, #3]
 681 00ca 3604     		lsls	r6, r6, #16
 682              	.L16:
 782:Drivers/STM32F0xx_HAL_Driver/Src/stm32f0xx_hal_rtc.c ****     }
 683              		.loc 1 782 7 is_stmt 1 view .LVU230
 784:Drivers/STM32F0xx_HAL_Driver/Src/stm32f0xx_hal_rtc.c ****     assert_param(IS_RTC_SECONDS(sAlarm->AlarmTime.Seconds));
 684              		.loc 1 784 5 view .LVU231
 785:Drivers/STM32F0xx_HAL_Driver/Src/stm32f0xx_hal_rtc.c ****     
 685              		.loc 1 785 5 view .LVU232
 787:Drivers/STM32F0xx_HAL_Driver/Src/stm32f0xx_hal_rtc.c ****     {
 686              		.loc 1 787 5 view .LVU233
 787:Drivers/STM32F0xx_HAL_Driver/Src/stm32f0xx_hal_rtc.c ****     {
 687              		.loc 1 787 14 is_stmt 0 view .LVU234
 688 00cc CB69     		ldr	r3, [r1, #28]
 796:Drivers/STM32F0xx_HAL_Driver/Src/stm32f0xx_hal_rtc.c ****               ((uint32_t)RTC_ByteToBcd2(sAlarm->AlarmTime.Minutes) << 8U) | \
 689              		.loc 1 796 26 view .LVU235
 690 00ce 0878     		ldrb	r0, [r1]
 691              	.LVL29:
 787:Drivers/STM32F0xx_HAL_Driver/Src/stm32f0xx_hal_rtc.c ****     {
 692              		.loc 1 787 14 view .LVU236
 693 00d0 9846     		mov	r8, r3
 793:Drivers/STM32F0xx_HAL_Driver/Src/stm32f0xx_hal_rtc.c ****     }
 694              		.loc 1 793 7 is_stmt 1 view .LVU237
 796:Drivers/STM32F0xx_HAL_Driver/Src/stm32f0xx_hal_rtc.c ****               ((uint32_t)RTC_ByteToBcd2(sAlarm->AlarmTime.Minutes) << 8U) | \
 695              		.loc 1 796 5 view .LVU238
 696              	.LVL30:
 697              	.LBB104:
 698              	.LBI104:
1352:Drivers/STM32F0xx_HAL_Driver/Src/stm32f0xx_hal_rtc.c **** {
 699              		.loc 1 1352 9 view .LVU239
 700              	.LBB105:
1354:Drivers/STM32F0xx_HAL_Driver/Src/stm32f0xx_hal_rtc.c ****   
 701              		.loc 1 1354 3 view .LVU240
1356:Drivers/STM32F0xx_HAL_Driver/Src/stm32f0xx_hal_rtc.c ****   {
 702              		.loc 1 1356 3 view .LVU241
1356:Drivers/STM32F0xx_HAL_Driver/Src/stm32f0xx_hal_rtc.c ****   {
 703              		.loc 1 1356 8 is_stmt 0 view .LVU242
 704 00d2 0928     		cmp	r0, #9
 705 00d4 08D9     		bls	.L17
1354:Drivers/STM32F0xx_HAL_Driver/Src/stm32f0xx_hal_rtc.c ****   
 706              		.loc 1 1354 12 view .LVU243
 707 00d6 0023     		movs	r3, #0
 708              	.LVL31:
 709              	.L18:
1358:Drivers/STM32F0xx_HAL_Driver/Src/stm32f0xx_hal_rtc.c ****     Value -= 10U;
ARM GAS  /var/folders/vr/85797ndx6jd_r3n_lsprlrj40000gn/T//ccWMqnSu.s 			page 41


 710              		.loc 1 1358 5 is_stmt 1 view .LVU244
1359:Drivers/STM32F0xx_HAL_Driver/Src/stm32f0xx_hal_rtc.c ****   }
 711              		.loc 1 1359 11 is_stmt 0 view .LVU245
 712 00d8 0A38     		subs	r0, r0, #10
 713              	.LVL32:
1359:Drivers/STM32F0xx_HAL_Driver/Src/stm32f0xx_hal_rtc.c ****   }
 714              		.loc 1 1359 11 view .LVU246
 715 00da C0B2     		uxtb	r0, r0
1358:Drivers/STM32F0xx_HAL_Driver/Src/stm32f0xx_hal_rtc.c ****     Value -= 10U;
 716              		.loc 1 1358 12 view .LVU247
 717 00dc 0133     		adds	r3, r3, #1
 718              	.LVL33:
1359:Drivers/STM32F0xx_HAL_Driver/Src/stm32f0xx_hal_rtc.c ****   }
 719              		.loc 1 1359 5 is_stmt 1 view .LVU248
1356:Drivers/STM32F0xx_HAL_Driver/Src/stm32f0xx_hal_rtc.c ****   {
 720              		.loc 1 1356 8 is_stmt 0 view .LVU249
 721 00de 0928     		cmp	r0, #9
 722 00e0 FAD8     		bhi	.L18
 723 00e2 1B01     		lsls	r3, r3, #4
 724              	.LVL34:
1356:Drivers/STM32F0xx_HAL_Driver/Src/stm32f0xx_hal_rtc.c ****   {
 725              		.loc 1 1356 8 view .LVU250
 726 00e4 1843     		orrs	r0, r3
 727              	.LVL35:
1356:Drivers/STM32F0xx_HAL_Driver/Src/stm32f0xx_hal_rtc.c ****   {
 728              		.loc 1 1356 8 view .LVU251
 729 00e6 C0B2     		uxtb	r0, r0
 730              	.L17:
1362:Drivers/STM32F0xx_HAL_Driver/Src/stm32f0xx_hal_rtc.c **** }
 731              		.loc 1 1362 3 is_stmt 1 view .LVU252
 732              	.LBE105:
 733              	.LBE104:
 796:Drivers/STM32F0xx_HAL_Driver/Src/stm32f0xx_hal_rtc.c ****               ((uint32_t)RTC_ByteToBcd2(sAlarm->AlarmTime.Minutes) << 8U) | \
 734              		.loc 1 796 66 is_stmt 0 view .LVU253
 735 00e8 0304     		lsls	r3, r0, #16
 797:Drivers/STM32F0xx_HAL_Driver/Src/stm32f0xx_hal_rtc.c ****               ((uint32_t)RTC_ByteToBcd2(sAlarm->AlarmTime.Seconds)) | \
 736              		.loc 1 797 26 view .LVU254
 737 00ea 4878     		ldrb	r0, [r1, #1]
 738              	.LVL36:
 739              	.LBB106:
 740              	.LBI106:
1352:Drivers/STM32F0xx_HAL_Driver/Src/stm32f0xx_hal_rtc.c **** {
 741              		.loc 1 1352 9 is_stmt 1 view .LVU255
1352:Drivers/STM32F0xx_HAL_Driver/Src/stm32f0xx_hal_rtc.c **** {
 742              		.loc 1 1352 9 is_stmt 0 view .LVU256
 743              	.LBE106:
 796:Drivers/STM32F0xx_HAL_Driver/Src/stm32f0xx_hal_rtc.c ****               ((uint32_t)RTC_ByteToBcd2(sAlarm->AlarmTime.Minutes) << 8U) | \
 744              		.loc 1 796 66 view .LVU257
 745 00ec 9C46     		mov	ip, r3
 746              	.LBB108:
 747              	.LBB107:
1356:Drivers/STM32F0xx_HAL_Driver/Src/stm32f0xx_hal_rtc.c ****   {
 748              		.loc 1 1356 8 view .LVU258
 749 00ee 0928     		cmp	r0, #9
 750 00f0 08D9     		bls	.L19
1354:Drivers/STM32F0xx_HAL_Driver/Src/stm32f0xx_hal_rtc.c ****   
 751              		.loc 1 1354 12 view .LVU259
ARM GAS  /var/folders/vr/85797ndx6jd_r3n_lsprlrj40000gn/T//ccWMqnSu.s 			page 42


 752 00f2 0023     		movs	r3, #0
 753              	.LVL37:
 754              	.L20:
1358:Drivers/STM32F0xx_HAL_Driver/Src/stm32f0xx_hal_rtc.c ****     Value -= 10U;
 755              		.loc 1 1358 5 is_stmt 1 view .LVU260
1359:Drivers/STM32F0xx_HAL_Driver/Src/stm32f0xx_hal_rtc.c ****   }
 756              		.loc 1 1359 11 is_stmt 0 view .LVU261
 757 00f4 0A38     		subs	r0, r0, #10
 758              	.LVL38:
1359:Drivers/STM32F0xx_HAL_Driver/Src/stm32f0xx_hal_rtc.c ****   }
 759              		.loc 1 1359 11 view .LVU262
 760 00f6 C0B2     		uxtb	r0, r0
1358:Drivers/STM32F0xx_HAL_Driver/Src/stm32f0xx_hal_rtc.c ****     Value -= 10U;
 761              		.loc 1 1358 12 view .LVU263
 762 00f8 0133     		adds	r3, r3, #1
 763              	.LVL39:
1359:Drivers/STM32F0xx_HAL_Driver/Src/stm32f0xx_hal_rtc.c ****   }
 764              		.loc 1 1359 5 is_stmt 1 view .LVU264
1356:Drivers/STM32F0xx_HAL_Driver/Src/stm32f0xx_hal_rtc.c ****   {
 765              		.loc 1 1356 8 is_stmt 0 view .LVU265
 766 00fa 0928     		cmp	r0, #9
 767 00fc FAD8     		bhi	.L20
 768 00fe 1B01     		lsls	r3, r3, #4
 769              	.LVL40:
1356:Drivers/STM32F0xx_HAL_Driver/Src/stm32f0xx_hal_rtc.c ****   {
 770              		.loc 1 1356 8 view .LVU266
 771 0100 1843     		orrs	r0, r3
 772              	.LVL41:
1356:Drivers/STM32F0xx_HAL_Driver/Src/stm32f0xx_hal_rtc.c ****   {
 773              		.loc 1 1356 8 view .LVU267
 774 0102 C0B2     		uxtb	r0, r0
 775              	.L19:
1362:Drivers/STM32F0xx_HAL_Driver/Src/stm32f0xx_hal_rtc.c **** }
 776              		.loc 1 1362 3 is_stmt 1 view .LVU268
 777              	.LBE107:
 778              	.LBE108:
 798:Drivers/STM32F0xx_HAL_Driver/Src/stm32f0xx_hal_rtc.c ****               ((uint32_t)(sAlarm->AlarmTime.TimeFormat) << 16U) | \
 779              		.loc 1 798 26 is_stmt 0 view .LVU269
 780 0104 8F78     		ldrb	r7, [r1, #2]
 781              	.LVL42:
 782              	.LBB109:
 783              	.LBI109:
1352:Drivers/STM32F0xx_HAL_Driver/Src/stm32f0xx_hal_rtc.c **** {
 784              		.loc 1 1352 9 is_stmt 1 view .LVU270
1352:Drivers/STM32F0xx_HAL_Driver/Src/stm32f0xx_hal_rtc.c **** {
 785              		.loc 1 1352 9 is_stmt 0 view .LVU271
 786              	.LBE109:
 797:Drivers/STM32F0xx_HAL_Driver/Src/stm32f0xx_hal_rtc.c ****               ((uint32_t)RTC_ByteToBcd2(sAlarm->AlarmTime.Seconds)) | \
 787              		.loc 1 797 68 view .LVU272
 788 0106 0302     		lsls	r3, r0, #8
 789 0108 9946     		mov	r9, r3
 790              	.LBB111:
 791              	.LBB110:
1356:Drivers/STM32F0xx_HAL_Driver/Src/stm32f0xx_hal_rtc.c ****   {
 792              		.loc 1 1356 8 view .LVU273
 793 010a 092F     		cmp	r7, #9
 794 010c 08D9     		bls	.L21
ARM GAS  /var/folders/vr/85797ndx6jd_r3n_lsprlrj40000gn/T//ccWMqnSu.s 			page 43


1354:Drivers/STM32F0xx_HAL_Driver/Src/stm32f0xx_hal_rtc.c ****   
 795              		.loc 1 1354 12 view .LVU274
 796 010e 0023     		movs	r3, #0
 797              	.LVL43:
 798              	.L22:
1358:Drivers/STM32F0xx_HAL_Driver/Src/stm32f0xx_hal_rtc.c ****     Value -= 10U;
 799              		.loc 1 1358 5 is_stmt 1 view .LVU275
1359:Drivers/STM32F0xx_HAL_Driver/Src/stm32f0xx_hal_rtc.c ****   }
 800              		.loc 1 1359 11 is_stmt 0 view .LVU276
 801 0110 0A3F     		subs	r7, r7, #10
 802              	.LVL44:
1359:Drivers/STM32F0xx_HAL_Driver/Src/stm32f0xx_hal_rtc.c ****   }
 803              		.loc 1 1359 11 view .LVU277
 804 0112 FFB2     		uxtb	r7, r7
1358:Drivers/STM32F0xx_HAL_Driver/Src/stm32f0xx_hal_rtc.c ****     Value -= 10U;
 805              		.loc 1 1358 12 view .LVU278
 806 0114 0133     		adds	r3, r3, #1
 807              	.LVL45:
1359:Drivers/STM32F0xx_HAL_Driver/Src/stm32f0xx_hal_rtc.c ****   }
 808              		.loc 1 1359 5 is_stmt 1 view .LVU279
1356:Drivers/STM32F0xx_HAL_Driver/Src/stm32f0xx_hal_rtc.c ****   {
 809              		.loc 1 1356 8 is_stmt 0 view .LVU280
 810 0116 092F     		cmp	r7, #9
 811 0118 FAD8     		bhi	.L22
 812 011a 1B01     		lsls	r3, r3, #4
 813              	.LVL46:
1356:Drivers/STM32F0xx_HAL_Driver/Src/stm32f0xx_hal_rtc.c ****   {
 814              		.loc 1 1356 8 view .LVU281
 815 011c 1F43     		orrs	r7, r3
 816              	.LVL47:
1356:Drivers/STM32F0xx_HAL_Driver/Src/stm32f0xx_hal_rtc.c ****   {
 817              		.loc 1 1356 8 view .LVU282
 818 011e FFB2     		uxtb	r7, r7
 819              	.L21:
1362:Drivers/STM32F0xx_HAL_Driver/Src/stm32f0xx_hal_rtc.c **** }
 820              		.loc 1 1362 3 is_stmt 1 view .LVU283
 821              	.LBE110:
 822              	.LBE111:
 800:Drivers/STM32F0xx_HAL_Driver/Src/stm32f0xx_hal_rtc.c ****               ((uint32_t)sAlarm->AlarmDateWeekDaySel) | \
 823              		.loc 1 800 26 is_stmt 0 view .LVU284
 824 0120 2023     		movs	r3, #32
 825 0122 CB5C     		ldrb	r3, [r1, r3]
 826              	.LVL48:
 827              	.LBB112:
 828              	.LBI112:
1352:Drivers/STM32F0xx_HAL_Driver/Src/stm32f0xx_hal_rtc.c **** {
 829              		.loc 1 1352 9 is_stmt 1 view .LVU285
 830              	.LBB113:
1356:Drivers/STM32F0xx_HAL_Driver/Src/stm32f0xx_hal_rtc.c ****   {
 831              		.loc 1 1356 8 is_stmt 0 view .LVU286
 832 0124 092B     		cmp	r3, #9
 833 0126 07D9     		bls	.L23
 834              	.LVL49:
 835              	.L24:
1358:Drivers/STM32F0xx_HAL_Driver/Src/stm32f0xx_hal_rtc.c ****     Value -= 10U;
 836              		.loc 1 1358 5 is_stmt 1 view .LVU287
1359:Drivers/STM32F0xx_HAL_Driver/Src/stm32f0xx_hal_rtc.c ****   }
ARM GAS  /var/folders/vr/85797ndx6jd_r3n_lsprlrj40000gn/T//ccWMqnSu.s 			page 44


 837              		.loc 1 1359 11 is_stmt 0 view .LVU288
 838 0128 0A3B     		subs	r3, r3, #10
 839              	.LVL50:
1359:Drivers/STM32F0xx_HAL_Driver/Src/stm32f0xx_hal_rtc.c ****   }
 840              		.loc 1 1359 11 view .LVU289
 841 012a DBB2     		uxtb	r3, r3
1358:Drivers/STM32F0xx_HAL_Driver/Src/stm32f0xx_hal_rtc.c ****     Value -= 10U;
 842              		.loc 1 1358 12 view .LVU290
 843 012c 0132     		adds	r2, r2, #1
 844              	.LVL51:
1359:Drivers/STM32F0xx_HAL_Driver/Src/stm32f0xx_hal_rtc.c ****   }
 845              		.loc 1 1359 5 is_stmt 1 view .LVU291
1356:Drivers/STM32F0xx_HAL_Driver/Src/stm32f0xx_hal_rtc.c ****   {
 846              		.loc 1 1356 8 is_stmt 0 view .LVU292
 847 012e 092B     		cmp	r3, #9
 848 0130 FAD8     		bhi	.L24
 849 0132 1201     		lsls	r2, r2, #4
 850              	.LVL52:
1356:Drivers/STM32F0xx_HAL_Driver/Src/stm32f0xx_hal_rtc.c ****   {
 851              		.loc 1 1356 8 view .LVU293
 852 0134 1343     		orrs	r3, r2
 853              	.LVL53:
1356:Drivers/STM32F0xx_HAL_Driver/Src/stm32f0xx_hal_rtc.c ****   {
 854              		.loc 1 1356 8 view .LVU294
 855 0136 DBB2     		uxtb	r3, r3
 856              	.L23:
1362:Drivers/STM32F0xx_HAL_Driver/Src/stm32f0xx_hal_rtc.c **** }
 857              		.loc 1 1362 3 is_stmt 1 view .LVU295
 858              	.LBE113:
 859              	.LBE112:
 796:Drivers/STM32F0xx_HAL_Driver/Src/stm32f0xx_hal_rtc.c ****               ((uint32_t)RTC_ByteToBcd2(sAlarm->AlarmTime.Minutes) << 8U) | \
 860              		.loc 1 796 12 is_stmt 0 view .LVU296
 861 0138 4246     		mov	r2, r8
 862 013a 4869     		ldr	r0, [r1, #20]
 800:Drivers/STM32F0xx_HAL_Driver/Src/stm32f0xx_hal_rtc.c ****               ((uint32_t)sAlarm->AlarmDateWeekDaySel) | \
 863              		.loc 1 800 67 view .LVU297
 864 013c 1B06     		lsls	r3, r3, #24
 796:Drivers/STM32F0xx_HAL_Driver/Src/stm32f0xx_hal_rtc.c ****               ((uint32_t)RTC_ByteToBcd2(sAlarm->AlarmTime.Minutes) << 8U) | \
 865              		.loc 1 796 12 view .LVU298
 866 013e 0243     		orrs	r2, r0
 867 0140 1643     		orrs	r6, r2
 868 0142 6246     		mov	r2, ip
 869 0144 4846     		mov	r0, r9
 870 0146 1643     		orrs	r6, r2
 871 0148 3043     		orrs	r0, r6
 872 014a 3843     		orrs	r0, r7
 873 014c 1843     		orrs	r0, r3
 874 014e 8046     		mov	r8, r0
 875              	.LVL54:
 796:Drivers/STM32F0xx_HAL_Driver/Src/stm32f0xx_hal_rtc.c ****               ((uint32_t)RTC_ByteToBcd2(sAlarm->AlarmTime.Minutes) << 8U) | \
 876              		.loc 1 796 12 view .LVU299
 877 0150 80E7     		b	.L25
 878              	.LVL55:
 879              	.L37:
 860:Drivers/STM32F0xx_HAL_Driver/Src/stm32f0xx_hal_rtc.c **** 
 880              		.loc 1 860 7 is_stmt 1 view .LVU300
 860:Drivers/STM32F0xx_HAL_Driver/Src/stm32f0xx_hal_rtc.c **** 
ARM GAS  /var/folders/vr/85797ndx6jd_r3n_lsprlrj40000gn/T//ccWMqnSu.s 			page 45


 881              		.loc 1 860 7 view .LVU301
 882 0152 FF22     		movs	r2, #255
 883 0154 2B68     		ldr	r3, [r5]
 884              	.LVL56:
 867:Drivers/STM32F0xx_HAL_Driver/Src/stm32f0xx_hal_rtc.c ****     }
 885              		.loc 1 867 14 is_stmt 0 view .LVU302
 886 0156 0320     		movs	r0, #3
 860:Drivers/STM32F0xx_HAL_Driver/Src/stm32f0xx_hal_rtc.c **** 
 887              		.loc 1 860 7 view .LVU303
 888 0158 5A62     		str	r2, [r3, #36]
 862:Drivers/STM32F0xx_HAL_Driver/Src/stm32f0xx_hal_rtc.c **** 
 889              		.loc 1 862 7 is_stmt 1 view .LVU304
 862:Drivers/STM32F0xx_HAL_Driver/Src/stm32f0xx_hal_rtc.c **** 
 890              		.loc 1 862 19 is_stmt 0 view .LVU305
 891 015a 0323     		movs	r3, #3
 865:Drivers/STM32F0xx_HAL_Driver/Src/stm32f0xx_hal_rtc.c ****         
 892              		.loc 1 865 7 view .LVU306
 893 015c 2C77     		strb	r4, [r5, #28]
 862:Drivers/STM32F0xx_HAL_Driver/Src/stm32f0xx_hal_rtc.c **** 
 894              		.loc 1 862 19 view .LVU307
 895 015e 6B77     		strb	r3, [r5, #29]
 865:Drivers/STM32F0xx_HAL_Driver/Src/stm32f0xx_hal_rtc.c ****         
 896              		.loc 1 865 7 is_stmt 1 view .LVU308
 865:Drivers/STM32F0xx_HAL_Driver/Src/stm32f0xx_hal_rtc.c ****         
 897              		.loc 1 865 7 view .LVU309
 867:Drivers/STM32F0xx_HAL_Driver/Src/stm32f0xx_hal_rtc.c ****     }
 898              		.loc 1 867 7 view .LVU310
 867:Drivers/STM32F0xx_HAL_Driver/Src/stm32f0xx_hal_rtc.c ****     }
 899              		.loc 1 867 14 is_stmt 0 view .LVU311
 900 0160 AAE7     		b	.L13
 901              	.LVL57:
 902              	.L26:
 814:Drivers/STM32F0xx_HAL_Driver/Src/stm32f0xx_hal_rtc.c ****       assert_param(IS_RTC_HOUR24(RTC_Bcd2ToByte(sAlarm->AlarmTime.Hours)));
 903              		.loc 1 814 7 is_stmt 1 view .LVU312
 814:Drivers/STM32F0xx_HAL_Driver/Src/stm32f0xx_hal_rtc.c ****       assert_param(IS_RTC_HOUR24(RTC_Bcd2ToByte(sAlarm->AlarmTime.Hours)));
 904              		.loc 1 814 36 is_stmt 0 view .LVU313
 905 0162 CB70     		strb	r3, [r1, #3]
 906 0164 65E7     		b	.L27
 907              	.L15:
 781:Drivers/STM32F0xx_HAL_Driver/Src/stm32f0xx_hal_rtc.c ****       assert_param(IS_RTC_HOUR24(sAlarm->AlarmTime.Hours));
 908              		.loc 1 781 7 is_stmt 1 view .LVU314
 781:Drivers/STM32F0xx_HAL_Driver/Src/stm32f0xx_hal_rtc.c ****       assert_param(IS_RTC_HOUR24(sAlarm->AlarmTime.Hours));
 909              		.loc 1 781 36 is_stmt 0 view .LVU315
 910 0166 CE70     		strb	r6, [r1, #3]
 911 0168 B0E7     		b	.L16
 912              	.L30:
 768:Drivers/STM32F0xx_HAL_Driver/Src/stm32f0xx_hal_rtc.c ****   
 913              		.loc 1 768 3 view .LVU316
 914 016a 0220     		movs	r0, #2
 915              	.LVL58:
 768:Drivers/STM32F0xx_HAL_Driver/Src/stm32f0xx_hal_rtc.c ****   
 916              		.loc 1 768 3 view .LVU317
 917 016c A4E7     		b	.L13
 918              	.L39:
 919 016e C046     		.align	2
 920              	.L38:
 921 0170 FFFEFFFF 		.word	-257
ARM GAS  /var/folders/vr/85797ndx6jd_r3n_lsprlrj40000gn/T//ccWMqnSu.s 			page 46


 922 0174 FFEFFFFF 		.word	-4097
 923              		.cfi_endproc
 924              	.LFE45:
 926              		.section	.text.HAL_RTC_SetAlarm_IT,"ax",%progbits
 927              		.align	1
 928              		.p2align 2,,3
 929              		.global	HAL_RTC_SetAlarm_IT
 930              		.syntax unified
 931              		.code	16
 932              		.thumb_func
 933              		.fpu softvfp
 935              	HAL_RTC_SetAlarm_IT:
 936              	.LVL59:
 937              	.LFB46:
 903:Drivers/STM32F0xx_HAL_Driver/Src/stm32f0xx_hal_rtc.c ****   uint32_t tickstart = 0U;
 938              		.loc 1 903 1 is_stmt 1 view -0
 939              		.cfi_startproc
 940              		@ args = 0, pretend = 0, frame = 0
 941              		@ frame_needed = 0, uses_anonymous_args = 0
 904:Drivers/STM32F0xx_HAL_Driver/Src/stm32f0xx_hal_rtc.c ****   uint32_t tmpreg = 0U, subsecondtmpreg = 0U;
 942              		.loc 1 904 3 view .LVU319
 905:Drivers/STM32F0xx_HAL_Driver/Src/stm32f0xx_hal_rtc.c ****   
 943              		.loc 1 905 3 view .LVU320
 908:Drivers/STM32F0xx_HAL_Driver/Src/stm32f0xx_hal_rtc.c ****   assert_param(IS_RTC_ALARM(sAlarm->Alarm));
 944              		.loc 1 908 3 view .LVU321
 909:Drivers/STM32F0xx_HAL_Driver/Src/stm32f0xx_hal_rtc.c ****   assert_param(IS_RTC_ALARM_MASK(sAlarm->AlarmMask));
 945              		.loc 1 909 3 view .LVU322
 910:Drivers/STM32F0xx_HAL_Driver/Src/stm32f0xx_hal_rtc.c ****   assert_param(IS_RTC_ALARM_DATE_WEEKDAY_SEL(sAlarm->AlarmDateWeekDaySel));
 946              		.loc 1 910 3 view .LVU323
 911:Drivers/STM32F0xx_HAL_Driver/Src/stm32f0xx_hal_rtc.c ****   assert_param(IS_RTC_ALARM_SUB_SECOND_VALUE(sAlarm->AlarmTime.SubSeconds));
 947              		.loc 1 911 3 view .LVU324
 912:Drivers/STM32F0xx_HAL_Driver/Src/stm32f0xx_hal_rtc.c ****   assert_param(IS_RTC_ALARM_SUB_SECOND_MASK(sAlarm->AlarmSubSecondMask));
 948              		.loc 1 912 3 view .LVU325
 913:Drivers/STM32F0xx_HAL_Driver/Src/stm32f0xx_hal_rtc.c ****       
 949              		.loc 1 913 3 view .LVU326
 916:Drivers/STM32F0xx_HAL_Driver/Src/stm32f0xx_hal_rtc.c ****   
 950              		.loc 1 916 3 view .LVU327
 916:Drivers/STM32F0xx_HAL_Driver/Src/stm32f0xx_hal_rtc.c ****   
 951              		.loc 1 916 3 view .LVU328
 903:Drivers/STM32F0xx_HAL_Driver/Src/stm32f0xx_hal_rtc.c ****   uint32_t tickstart = 0U;
 952              		.loc 1 903 1 is_stmt 0 view .LVU329
 953 0000 F8B5     		push	{r3, r4, r5, r6, r7, lr}
 954              	.LCFI4:
 955              		.cfi_def_cfa_offset 24
 956              		.cfi_offset 3, -24
 957              		.cfi_offset 4, -20
 958              		.cfi_offset 5, -16
 959              		.cfi_offset 6, -12
 960              		.cfi_offset 7, -8
 961              		.cfi_offset 14, -4
 962 0002 4546     		mov	r5, r8
 963 0004 DE46     		mov	lr, fp
 964 0006 5746     		mov	r7, r10
 965 0008 4E46     		mov	r6, r9
 966 000a E0B5     		push	{r5, r6, r7, lr}
 967              	.LCFI5:
 968              		.cfi_def_cfa_offset 40
ARM GAS  /var/folders/vr/85797ndx6jd_r3n_lsprlrj40000gn/T//ccWMqnSu.s 			page 47


 969              		.cfi_offset 8, -40
 970              		.cfi_offset 9, -36
 971              		.cfi_offset 10, -32
 972              		.cfi_offset 11, -28
 916:Drivers/STM32F0xx_HAL_Driver/Src/stm32f0xx_hal_rtc.c ****   
 973              		.loc 1 916 3 view .LVU330
 974 000c 037F     		ldrb	r3, [r0, #28]
 903:Drivers/STM32F0xx_HAL_Driver/Src/stm32f0xx_hal_rtc.c ****   uint32_t tickstart = 0U;
 975              		.loc 1 903 1 view .LVU331
 976 000e 0500     		movs	r5, r0
 916:Drivers/STM32F0xx_HAL_Driver/Src/stm32f0xx_hal_rtc.c ****   
 977              		.loc 1 916 3 view .LVU332
 978 0010 012B     		cmp	r3, #1
 979 0012 00D1     		bne	.LCB862
 980 0014 BAE0     		b	.L58	@long jump
 981              	.LCB862:
 916:Drivers/STM32F0xx_HAL_Driver/Src/stm32f0xx_hal_rtc.c ****   
 982              		.loc 1 916 3 is_stmt 1 discriminator 2 view .LVU333
 983 0016 0123     		movs	r3, #1
 984 0018 0468     		ldr	r4, [r0]
 985 001a 0377     		strb	r3, [r0, #28]
 918:Drivers/STM32F0xx_HAL_Driver/Src/stm32f0xx_hal_rtc.c ****   
 986              		.loc 1 918 3 discriminator 2 view .LVU334
 918:Drivers/STM32F0xx_HAL_Driver/Src/stm32f0xx_hal_rtc.c ****   
 987              		.loc 1 918 15 is_stmt 0 discriminator 2 view .LVU335
 988 001c 0133     		adds	r3, r3, #1
 989 001e 4377     		strb	r3, [r0, #29]
 920:Drivers/STM32F0xx_HAL_Driver/Src/stm32f0xx_hal_rtc.c ****   {
 990              		.loc 1 920 3 is_stmt 1 discriminator 2 view .LVU336
 922:Drivers/STM32F0xx_HAL_Driver/Src/stm32f0xx_hal_rtc.c ****     {
 991              		.loc 1 922 23 is_stmt 0 discriminator 2 view .LVU337
 992 0020 A368     		ldr	r3, [r4, #8]
 922:Drivers/STM32F0xx_HAL_Driver/Src/stm32f0xx_hal_rtc.c ****     {
 993              		.loc 1 922 28 discriminator 2 view .LVU338
 994 0022 4026     		movs	r6, #64
 920:Drivers/STM32F0xx_HAL_Driver/Src/stm32f0xx_hal_rtc.c ****   {
 995              		.loc 1 920 5 discriminator 2 view .LVU339
 996 0024 002A     		cmp	r2, #0
 997 0026 5ED0     		beq	.L64
 953:Drivers/STM32F0xx_HAL_Driver/Src/stm32f0xx_hal_rtc.c ****     {
 998              		.loc 1 953 5 is_stmt 1 view .LVU340
 953:Drivers/STM32F0xx_HAL_Driver/Src/stm32f0xx_hal_rtc.c ****     {
 999              		.loc 1 953 28 is_stmt 0 view .LVU341
 1000 0028 3340     		ands	r3, r6
 953:Drivers/STM32F0xx_HAL_Driver/Src/stm32f0xx_hal_rtc.c ****     {
 1001              		.loc 1 953 7 view .LVU342
 1002 002a 00D1     		bne	.LCB878
 1003 002c AAE0     		b	.L54	@long jump
 1004              	.LCB878:
 1005 002e CB78     		ldrb	r3, [r1, #3]
 1006 0030 1B04     		lsls	r3, r3, #16
 1007              	.L55:
 962:Drivers/STM32F0xx_HAL_Driver/Src/stm32f0xx_hal_rtc.c ****     }
 1008              		.loc 1 962 7 is_stmt 1 view .LVU343
 965:Drivers/STM32F0xx_HAL_Driver/Src/stm32f0xx_hal_rtc.c ****     assert_param(IS_RTC_SECONDS(RTC_Bcd2ToByte(sAlarm->AlarmTime.Seconds)));
 1009              		.loc 1 965 5 view .LVU344
 966:Drivers/STM32F0xx_HAL_Driver/Src/stm32f0xx_hal_rtc.c ****     
ARM GAS  /var/folders/vr/85797ndx6jd_r3n_lsprlrj40000gn/T//ccWMqnSu.s 			page 48


 1010              		.loc 1 966 5 view .LVU345
 968:Drivers/STM32F0xx_HAL_Driver/Src/stm32f0xx_hal_rtc.c ****     {
 1011              		.loc 1 968 5 view .LVU346
 975:Drivers/STM32F0xx_HAL_Driver/Src/stm32f0xx_hal_rtc.c ****       assert_param(IS_RTC_ALARM_DATE_WEEKDAY_WEEKDAY(tmpreg));      
 1012              		.loc 1 975 7 view .LVU347
 1013              	.LVL60:
1372:Drivers/STM32F0xx_HAL_Driver/Src/stm32f0xx_hal_rtc.c ****   tmp = ((uint8_t)(Value & (uint8_t)0xF0U) >> (uint8_t)0x4U) * 10U;
 1014              		.loc 1 1372 3 view .LVU348
1373:Drivers/STM32F0xx_HAL_Driver/Src/stm32f0xx_hal_rtc.c ****   return (tmp + (Value & (uint8_t)0x0FU));
 1015              		.loc 1 1373 3 view .LVU349
 1016              		.loc 1 1374 3 view .LVU350
 976:Drivers/STM32F0xx_HAL_Driver/Src/stm32f0xx_hal_rtc.c ****     }
 1017              		.loc 1 976 7 view .LVU351
 978:Drivers/STM32F0xx_HAL_Driver/Src/stm32f0xx_hal_rtc.c ****               ((uint32_t)(sAlarm->AlarmTime.Minutes) << 8U) | \
 1018              		.loc 1 978 5 view .LVU352
 978:Drivers/STM32F0xx_HAL_Driver/Src/stm32f0xx_hal_rtc.c ****               ((uint32_t)(sAlarm->AlarmTime.Minutes) << 8U) | \
 1019              		.loc 1 978 12 is_stmt 0 view .LVU353
 1020 0032 4A69     		ldr	r2, [r1, #20]
 1021              	.LVL61:
 978:Drivers/STM32F0xx_HAL_Driver/Src/stm32f0xx_hal_rtc.c ****               ((uint32_t)(sAlarm->AlarmTime.Minutes) << 8U) | \
 1022              		.loc 1 978 12 view .LVU354
 1023 0034 CE69     		ldr	r6, [r1, #28]
 1024 0036 1643     		orrs	r6, r2
 980:Drivers/STM32F0xx_HAL_Driver/Src/stm32f0xx_hal_rtc.c ****               ((uint32_t)(sAlarm->AlarmTime.TimeFormat) << 16U) | \
 1025              		.loc 1 980 16 view .LVU355
 1026 0038 8A78     		ldrb	r2, [r1, #2]
 978:Drivers/STM32F0xx_HAL_Driver/Src/stm32f0xx_hal_rtc.c ****               ((uint32_t)(sAlarm->AlarmTime.Minutes) << 8U) | \
 1027              		.loc 1 978 12 view .LVU356
 1028 003a 1643     		orrs	r6, r2
 978:Drivers/STM32F0xx_HAL_Driver/Src/stm32f0xx_hal_rtc.c ****               ((uint32_t)(sAlarm->AlarmTime.Minutes) << 8U) | \
 1029              		.loc 1 978 16 view .LVU357
 1030 003c 0A78     		ldrb	r2, [r1]
 978:Drivers/STM32F0xx_HAL_Driver/Src/stm32f0xx_hal_rtc.c ****               ((uint32_t)(sAlarm->AlarmTime.Minutes) << 8U) | \
 1031              		.loc 1 978 52 view .LVU358
 1032 003e 1204     		lsls	r2, r2, #16
 978:Drivers/STM32F0xx_HAL_Driver/Src/stm32f0xx_hal_rtc.c ****               ((uint32_t)(sAlarm->AlarmTime.Minutes) << 8U) | \
 1033              		.loc 1 978 12 view .LVU359
 1034 0040 1643     		orrs	r6, r2
 979:Drivers/STM32F0xx_HAL_Driver/Src/stm32f0xx_hal_rtc.c ****               ((uint32_t) sAlarm->AlarmTime.Seconds) | \
 1035              		.loc 1 979 16 view .LVU360
 1036 0042 4A78     		ldrb	r2, [r1, #1]
 979:Drivers/STM32F0xx_HAL_Driver/Src/stm32f0xx_hal_rtc.c ****               ((uint32_t) sAlarm->AlarmTime.Seconds) | \
 1037              		.loc 1 979 54 view .LVU361
 1038 0044 1202     		lsls	r2, r2, #8
 978:Drivers/STM32F0xx_HAL_Driver/Src/stm32f0xx_hal_rtc.c ****               ((uint32_t)(sAlarm->AlarmTime.Minutes) << 8U) | \
 1039              		.loc 1 978 12 view .LVU362
 1040 0046 1643     		orrs	r6, r2
 982:Drivers/STM32F0xx_HAL_Driver/Src/stm32f0xx_hal_rtc.c ****               ((uint32_t)sAlarm->AlarmDateWeekDaySel) | \
 1041              		.loc 1 982 33 view .LVU363
 1042 0048 2022     		movs	r2, #32
 982:Drivers/STM32F0xx_HAL_Driver/Src/stm32f0xx_hal_rtc.c ****               ((uint32_t)sAlarm->AlarmDateWeekDaySel) | \
 1043              		.loc 1 982 16 view .LVU364
 1044 004a 8A5C     		ldrb	r2, [r1, r2]
 982:Drivers/STM32F0xx_HAL_Driver/Src/stm32f0xx_hal_rtc.c ****               ((uint32_t)sAlarm->AlarmDateWeekDaySel) | \
 1045              		.loc 1 982 53 view .LVU365
 1046 004c 1206     		lsls	r2, r2, #24
 978:Drivers/STM32F0xx_HAL_Driver/Src/stm32f0xx_hal_rtc.c ****               ((uint32_t)(sAlarm->AlarmTime.Minutes) << 8U) | \
ARM GAS  /var/folders/vr/85797ndx6jd_r3n_lsprlrj40000gn/T//ccWMqnSu.s 			page 49


 1047              		.loc 1 978 12 view .LVU366
 1048 004e 1643     		orrs	r6, r2
 1049 0050 1E43     		orrs	r6, r3
 1050 0052 B046     		mov	r8, r6
 1051              	.LVL62:
 1052              	.L53:
 987:Drivers/STM32F0xx_HAL_Driver/Src/stm32f0xx_hal_rtc.c ****   
 1053              		.loc 1 987 3 is_stmt 1 view .LVU367
 987:Drivers/STM32F0xx_HAL_Driver/Src/stm32f0xx_hal_rtc.c ****   
 1054              		.loc 1 987 60 is_stmt 0 view .LVU368
 1055 0054 4B68     		ldr	r3, [r1, #4]
 993:Drivers/STM32F0xx_HAL_Driver/Src/stm32f0xx_hal_rtc.c **** 
 1056              		.loc 1 993 3 view .LVU369
 1057 0056 4E4A     		ldr	r2, .L66
 987:Drivers/STM32F0xx_HAL_Driver/Src/stm32f0xx_hal_rtc.c ****   
 1058              		.loc 1 987 60 view .LVU370
 1059 0058 9A46     		mov	r10, r3
 987:Drivers/STM32F0xx_HAL_Driver/Src/stm32f0xx_hal_rtc.c ****   
 1060              		.loc 1 987 92 view .LVU371
 1061 005a 8B69     		ldr	r3, [r1, #24]
1003:Drivers/STM32F0xx_HAL_Driver/Src/stm32f0xx_hal_rtc.c ****     {
 1062              		.loc 1 1003 7 view .LVU372
 1063 005c FA26     		movs	r6, #250
 987:Drivers/STM32F0xx_HAL_Driver/Src/stm32f0xx_hal_rtc.c ****   
 1064              		.loc 1 987 92 view .LVU373
 1065 005e 9B46     		mov	fp, r3
 1066              	.LVL63:
 990:Drivers/STM32F0xx_HAL_Driver/Src/stm32f0xx_hal_rtc.c ****   
 1067              		.loc 1 990 3 is_stmt 1 view .LVU374
 990:Drivers/STM32F0xx_HAL_Driver/Src/stm32f0xx_hal_rtc.c ****   
 1068              		.loc 1 990 3 view .LVU375
 1069 0060 CA23     		movs	r3, #202
 1070              	.LVL64:
 990:Drivers/STM32F0xx_HAL_Driver/Src/stm32f0xx_hal_rtc.c ****   
 1071              		.loc 1 990 3 is_stmt 0 view .LVU376
 1072 0062 6362     		str	r3, [r4, #36]
 990:Drivers/STM32F0xx_HAL_Driver/Src/stm32f0xx_hal_rtc.c ****   
 1073              		.loc 1 990 3 is_stmt 1 view .LVU377
 1074 0064 773B     		subs	r3, r3, #119
 1075 0066 6362     		str	r3, [r4, #36]
 993:Drivers/STM32F0xx_HAL_Driver/Src/stm32f0xx_hal_rtc.c **** 
 1076              		.loc 1 993 3 view .LVU378
 1077 0068 A368     		ldr	r3, [r4, #8]
1001:Drivers/STM32F0xx_HAL_Driver/Src/stm32f0xx_hal_rtc.c ****   {
 1078              		.loc 1 1001 9 is_stmt 0 view .LVU379
 1079 006a 0127     		movs	r7, #1
 993:Drivers/STM32F0xx_HAL_Driver/Src/stm32f0xx_hal_rtc.c **** 
 1080              		.loc 1 993 3 view .LVU380
 1081 006c 1340     		ands	r3, r2
 1082 006e A360     		str	r3, [r4, #8]
 996:Drivers/STM32F0xx_HAL_Driver/Src/stm32f0xx_hal_rtc.c **** 
 1083              		.loc 1 996 3 is_stmt 1 view .LVU381
 1084 0070 FF23     		movs	r3, #255
 1085 0072 E268     		ldr	r2, [r4, #12]
1003:Drivers/STM32F0xx_HAL_Driver/Src/stm32f0xx_hal_rtc.c ****     {
 1086              		.loc 1 1003 7 is_stmt 0 view .LVU382
 1087 0074 B600     		lsls	r6, r6, #2
ARM GAS  /var/folders/vr/85797ndx6jd_r3n_lsprlrj40000gn/T//ccWMqnSu.s 			page 50


 996:Drivers/STM32F0xx_HAL_Driver/Src/stm32f0xx_hal_rtc.c **** 
 1088              		.loc 1 996 3 view .LVU383
 1089 0076 1A40     		ands	r2, r3
 1090 0078 464B     		ldr	r3, .L66+4
 1091 007a 1343     		orrs	r3, r2
 1092 007c E360     		str	r3, [r4, #12]
 998:Drivers/STM32F0xx_HAL_Driver/Src/stm32f0xx_hal_rtc.c ****   
 1093              		.loc 1 998 3 is_stmt 1 view .LVU384
 998:Drivers/STM32F0xx_HAL_Driver/Src/stm32f0xx_hal_rtc.c ****   
 1094              		.loc 1 998 15 is_stmt 0 view .LVU385
 1095 007e FFF7FEFF 		bl	HAL_GetTick
 1096              	.LVL65:
 998:Drivers/STM32F0xx_HAL_Driver/Src/stm32f0xx_hal_rtc.c ****   
 1097              		.loc 1 998 15 view .LVU386
 1098 0082 8146     		mov	r9, r0
 1099              	.LVL66:
1001:Drivers/STM32F0xx_HAL_Driver/Src/stm32f0xx_hal_rtc.c ****   {
 1100              		.loc 1 1001 3 is_stmt 1 view .LVU387
1001:Drivers/STM32F0xx_HAL_Driver/Src/stm32f0xx_hal_rtc.c ****   {
 1101              		.loc 1 1001 8 is_stmt 0 view .LVU388
 1102 0084 06E0     		b	.L56
 1103              	.LVL67:
 1104              	.L57:
1003:Drivers/STM32F0xx_HAL_Driver/Src/stm32f0xx_hal_rtc.c ****     {
 1105              		.loc 1 1003 5 is_stmt 1 view .LVU389
1003:Drivers/STM32F0xx_HAL_Driver/Src/stm32f0xx_hal_rtc.c ****     {
 1106              		.loc 1 1003 9 is_stmt 0 view .LVU390
 1107 0086 FFF7FEFF 		bl	HAL_GetTick
 1108              	.LVL68:
1003:Drivers/STM32F0xx_HAL_Driver/Src/stm32f0xx_hal_rtc.c ****     {
 1109              		.loc 1 1003 22 view .LVU391
 1110 008a 4B46     		mov	r3, r9
 1111 008c C01A     		subs	r0, r0, r3
1003:Drivers/STM32F0xx_HAL_Driver/Src/stm32f0xx_hal_rtc.c ****     {
 1112              		.loc 1 1003 7 view .LVU392
 1113 008e B042     		cmp	r0, r6
 1114 0090 00D9     		bls	.LCB973
 1115 0092 6FE0     		b	.L65	@long jump
 1116              	.LCB973:
 1117              	.L56:
1001:Drivers/STM32F0xx_HAL_Driver/Src/stm32f0xx_hal_rtc.c ****   {
 1118              		.loc 1 1001 9 view .LVU393
 1119 0094 2B68     		ldr	r3, [r5]
 1120 0096 DC68     		ldr	r4, [r3, #12]
 1121 0098 3C40     		ands	r4, r7
1001:Drivers/STM32F0xx_HAL_Driver/Src/stm32f0xx_hal_rtc.c ****   {
 1122              		.loc 1 1001 8 view .LVU394
 1123 009a F4D0     		beq	.L57
1017:Drivers/STM32F0xx_HAL_Driver/Src/stm32f0xx_hal_rtc.c ****   /* Configure the Alarm A Sub Second register */
 1124              		.loc 1 1017 3 is_stmt 1 view .LVU395
1017:Drivers/STM32F0xx_HAL_Driver/Src/stm32f0xx_hal_rtc.c ****   /* Configure the Alarm A Sub Second register */
 1125              		.loc 1 1017 26 is_stmt 0 view .LVU396
 1126 009c 4246     		mov	r2, r8
 987:Drivers/STM32F0xx_HAL_Driver/Src/stm32f0xx_hal_rtc.c ****   
 1127              		.loc 1 987 19 view .LVU397
 1128 009e 5946     		mov	r1, fp
1017:Drivers/STM32F0xx_HAL_Driver/Src/stm32f0xx_hal_rtc.c ****   /* Configure the Alarm A Sub Second register */
ARM GAS  /var/folders/vr/85797ndx6jd_r3n_lsprlrj40000gn/T//ccWMqnSu.s 			page 51


 1129              		.loc 1 1017 26 view .LVU398
 1130 00a0 DA61     		str	r2, [r3, #28]
1019:Drivers/STM32F0xx_HAL_Driver/Src/stm32f0xx_hal_rtc.c ****   /* Configure the Alarm state: Enable Alarm */
 1131              		.loc 1 1019 3 is_stmt 1 view .LVU399
 987:Drivers/STM32F0xx_HAL_Driver/Src/stm32f0xx_hal_rtc.c ****   
 1132              		.loc 1 987 19 is_stmt 0 view .LVU400
 1133 00a2 5246     		mov	r2, r10
 1134 00a4 0A43     		orrs	r2, r1
1019:Drivers/STM32F0xx_HAL_Driver/Src/stm32f0xx_hal_rtc.c ****   /* Configure the Alarm state: Enable Alarm */
 1135              		.loc 1 1019 28 view .LVU401
 1136 00a6 5A64     		str	r2, [r3, #68]
1021:Drivers/STM32F0xx_HAL_Driver/Src/stm32f0xx_hal_rtc.c ****   /* Configure the Alarm interrupt */
 1137              		.loc 1 1021 3 is_stmt 1 view .LVU402
 1138 00a8 8022     		movs	r2, #128
 1139 00aa 9968     		ldr	r1, [r3, #8]
 1140 00ac 5200     		lsls	r2, r2, #1
 1141 00ae 0A43     		orrs	r2, r1
 1142 00b0 9A60     		str	r2, [r3, #8]
1023:Drivers/STM32F0xx_HAL_Driver/Src/stm32f0xx_hal_rtc.c **** 
 1143              		.loc 1 1023 3 view .LVU403
 1144 00b2 8022     		movs	r2, #128
 1145 00b4 9968     		ldr	r1, [r3, #8]
 1146 00b6 5201     		lsls	r2, r2, #5
 1147 00b8 0A43     		orrs	r2, r1
1026:Drivers/STM32F0xx_HAL_Driver/Src/stm32f0xx_hal_rtc.c ****   
 1148              		.loc 1 1026 3 is_stmt 0 view .LVU404
 1149 00ba 8021     		movs	r1, #128
1023:Drivers/STM32F0xx_HAL_Driver/Src/stm32f0xx_hal_rtc.c **** 
 1150              		.loc 1 1023 3 view .LVU405
 1151 00bc 9A60     		str	r2, [r3, #8]
1026:Drivers/STM32F0xx_HAL_Driver/Src/stm32f0xx_hal_rtc.c ****   
 1152              		.loc 1 1026 3 is_stmt 1 view .LVU406
 1153 00be 364A     		ldr	r2, .L66+8
 1154 00c0 8902     		lsls	r1, r1, #10
 1155 00c2 1068     		ldr	r0, [r2]
 1156 00c4 0843     		orrs	r0, r1
 1157 00c6 1060     		str	r0, [r2]
1028:Drivers/STM32F0xx_HAL_Driver/Src/stm32f0xx_hal_rtc.c ****   
 1158              		.loc 1 1028 3 view .LVU407
 1159 00c8 9068     		ldr	r0, [r2, #8]
 1160 00ca 0143     		orrs	r1, r0
 1161 00cc 9160     		str	r1, [r2, #8]
1031:Drivers/STM32F0xx_HAL_Driver/Src/stm32f0xx_hal_rtc.c ****   
 1162              		.loc 1 1031 3 view .LVU408
1031:Drivers/STM32F0xx_HAL_Driver/Src/stm32f0xx_hal_rtc.c ****   
 1163              		.loc 1 1031 3 view .LVU409
 1164 00ce FF22     		movs	r2, #255
 1165 00d0 5A62     		str	r2, [r3, #36]
1033:Drivers/STM32F0xx_HAL_Driver/Src/stm32f0xx_hal_rtc.c ****   
 1166              		.loc 1 1033 3 view .LVU410
1036:Drivers/STM32F0xx_HAL_Driver/Src/stm32f0xx_hal_rtc.c ****   
 1167              		.loc 1 1036 3 is_stmt 0 view .LVU411
 1168 00d2 0023     		movs	r3, #0
1038:Drivers/STM32F0xx_HAL_Driver/Src/stm32f0xx_hal_rtc.c **** }
 1169              		.loc 1 1038 10 view .LVU412
 1170 00d4 0020     		movs	r0, #0
1033:Drivers/STM32F0xx_HAL_Driver/Src/stm32f0xx_hal_rtc.c ****   
ARM GAS  /var/folders/vr/85797ndx6jd_r3n_lsprlrj40000gn/T//ccWMqnSu.s 			page 52


 1171              		.loc 1 1033 15 view .LVU413
 1172 00d6 6F77     		strb	r7, [r5, #29]
1036:Drivers/STM32F0xx_HAL_Driver/Src/stm32f0xx_hal_rtc.c ****   
 1173              		.loc 1 1036 3 is_stmt 1 view .LVU414
1036:Drivers/STM32F0xx_HAL_Driver/Src/stm32f0xx_hal_rtc.c ****   
 1174              		.loc 1 1036 3 view .LVU415
 1175 00d8 2B77     		strb	r3, [r5, #28]
1038:Drivers/STM32F0xx_HAL_Driver/Src/stm32f0xx_hal_rtc.c **** }
 1176              		.loc 1 1038 3 view .LVU416
 1177              	.LVL69:
 1178              	.L41:
1039:Drivers/STM32F0xx_HAL_Driver/Src/stm32f0xx_hal_rtc.c **** 
 1179              		.loc 1 1039 1 is_stmt 0 view .LVU417
 1180              		@ sp needed
 1181              	.LVL70:
1039:Drivers/STM32F0xx_HAL_Driver/Src/stm32f0xx_hal_rtc.c **** 
 1182              		.loc 1 1039 1 view .LVU418
 1183 00da 3CBC     		pop	{r2, r3, r4, r5}
 1184 00dc 9046     		mov	r8, r2
 1185 00de 9946     		mov	r9, r3
 1186 00e0 A246     		mov	r10, r4
 1187 00e2 AB46     		mov	fp, r5
 1188 00e4 F8BD     		pop	{r3, r4, r5, r6, r7, pc}
 1189              	.LVL71:
 1190              	.L64:
 922:Drivers/STM32F0xx_HAL_Driver/Src/stm32f0xx_hal_rtc.c ****     {
 1191              		.loc 1 922 5 is_stmt 1 view .LVU419
 922:Drivers/STM32F0xx_HAL_Driver/Src/stm32f0xx_hal_rtc.c ****     {
 1192              		.loc 1 922 28 is_stmt 0 view .LVU420
 1193 00e6 1E40     		ands	r6, r3
 922:Drivers/STM32F0xx_HAL_Driver/Src/stm32f0xx_hal_rtc.c ****     {
 1194              		.loc 1 922 7 view .LVU421
 1195 00e8 4ED0     		beq	.L43
 1196 00ea CE78     		ldrb	r6, [r1, #3]
 1197 00ec 3604     		lsls	r6, r6, #16
 1198              	.L44:
 930:Drivers/STM32F0xx_HAL_Driver/Src/stm32f0xx_hal_rtc.c ****     }
 1199              		.loc 1 930 7 is_stmt 1 view .LVU422
 932:Drivers/STM32F0xx_HAL_Driver/Src/stm32f0xx_hal_rtc.c ****     assert_param(IS_RTC_SECONDS(sAlarm->AlarmTime.Seconds));
 1200              		.loc 1 932 5 view .LVU423
 933:Drivers/STM32F0xx_HAL_Driver/Src/stm32f0xx_hal_rtc.c ****     
 1201              		.loc 1 933 5 view .LVU424
 935:Drivers/STM32F0xx_HAL_Driver/Src/stm32f0xx_hal_rtc.c ****     {
 1202              		.loc 1 935 5 view .LVU425
 935:Drivers/STM32F0xx_HAL_Driver/Src/stm32f0xx_hal_rtc.c ****     {
 1203              		.loc 1 935 14 is_stmt 0 view .LVU426
 1204 00ee CB69     		ldr	r3, [r1, #28]
 943:Drivers/STM32F0xx_HAL_Driver/Src/stm32f0xx_hal_rtc.c ****               ((uint32_t)RTC_ByteToBcd2(sAlarm->AlarmTime.Minutes) << 8U) | \
 1205              		.loc 1 943 26 view .LVU427
 1206 00f0 0878     		ldrb	r0, [r1]
 1207              	.LVL72:
 935:Drivers/STM32F0xx_HAL_Driver/Src/stm32f0xx_hal_rtc.c ****     {
 1208              		.loc 1 935 14 view .LVU428
 1209 00f2 9846     		mov	r8, r3
 941:Drivers/STM32F0xx_HAL_Driver/Src/stm32f0xx_hal_rtc.c ****     }
 1210              		.loc 1 941 7 is_stmt 1 view .LVU429
 943:Drivers/STM32F0xx_HAL_Driver/Src/stm32f0xx_hal_rtc.c ****               ((uint32_t)RTC_ByteToBcd2(sAlarm->AlarmTime.Minutes) << 8U) | \
ARM GAS  /var/folders/vr/85797ndx6jd_r3n_lsprlrj40000gn/T//ccWMqnSu.s 			page 53


 1211              		.loc 1 943 5 view .LVU430
 1212              	.LVL73:
 1213              	.LBB114:
 1214              	.LBI114:
1352:Drivers/STM32F0xx_HAL_Driver/Src/stm32f0xx_hal_rtc.c **** {
 1215              		.loc 1 1352 9 view .LVU431
 1216              	.LBB115:
1354:Drivers/STM32F0xx_HAL_Driver/Src/stm32f0xx_hal_rtc.c ****   
 1217              		.loc 1 1354 3 view .LVU432
1356:Drivers/STM32F0xx_HAL_Driver/Src/stm32f0xx_hal_rtc.c ****   {
 1218              		.loc 1 1356 3 view .LVU433
1356:Drivers/STM32F0xx_HAL_Driver/Src/stm32f0xx_hal_rtc.c ****   {
 1219              		.loc 1 1356 8 is_stmt 0 view .LVU434
 1220 00f4 0928     		cmp	r0, #9
 1221 00f6 08D9     		bls	.L45
1354:Drivers/STM32F0xx_HAL_Driver/Src/stm32f0xx_hal_rtc.c ****   
 1222              		.loc 1 1354 12 view .LVU435
 1223 00f8 0023     		movs	r3, #0
 1224              	.LVL74:
 1225              	.L46:
1358:Drivers/STM32F0xx_HAL_Driver/Src/stm32f0xx_hal_rtc.c ****     Value -= 10U;
 1226              		.loc 1 1358 5 is_stmt 1 view .LVU436
1359:Drivers/STM32F0xx_HAL_Driver/Src/stm32f0xx_hal_rtc.c ****   }
 1227              		.loc 1 1359 11 is_stmt 0 view .LVU437
 1228 00fa 0A38     		subs	r0, r0, #10
 1229              	.LVL75:
1359:Drivers/STM32F0xx_HAL_Driver/Src/stm32f0xx_hal_rtc.c ****   }
 1230              		.loc 1 1359 11 view .LVU438
 1231 00fc C0B2     		uxtb	r0, r0
1358:Drivers/STM32F0xx_HAL_Driver/Src/stm32f0xx_hal_rtc.c ****     Value -= 10U;
 1232              		.loc 1 1358 12 view .LVU439
 1233 00fe 0133     		adds	r3, r3, #1
 1234              	.LVL76:
1359:Drivers/STM32F0xx_HAL_Driver/Src/stm32f0xx_hal_rtc.c ****   }
 1235              		.loc 1 1359 5 is_stmt 1 view .LVU440
1356:Drivers/STM32F0xx_HAL_Driver/Src/stm32f0xx_hal_rtc.c ****   {
 1236              		.loc 1 1356 8 is_stmt 0 view .LVU441
 1237 0100 0928     		cmp	r0, #9
 1238 0102 FAD8     		bhi	.L46
 1239 0104 1B01     		lsls	r3, r3, #4
 1240              	.LVL77:
1356:Drivers/STM32F0xx_HAL_Driver/Src/stm32f0xx_hal_rtc.c ****   {
 1241              		.loc 1 1356 8 view .LVU442
 1242 0106 1843     		orrs	r0, r3
 1243              	.LVL78:
1356:Drivers/STM32F0xx_HAL_Driver/Src/stm32f0xx_hal_rtc.c ****   {
 1244              		.loc 1 1356 8 view .LVU443
 1245 0108 C0B2     		uxtb	r0, r0
 1246              	.L45:
1362:Drivers/STM32F0xx_HAL_Driver/Src/stm32f0xx_hal_rtc.c **** }
 1247              		.loc 1 1362 3 is_stmt 1 view .LVU444
 1248              	.LBE115:
 1249              	.LBE114:
 943:Drivers/STM32F0xx_HAL_Driver/Src/stm32f0xx_hal_rtc.c ****               ((uint32_t)RTC_ByteToBcd2(sAlarm->AlarmTime.Minutes) << 8U) | \
 1250              		.loc 1 943 66 is_stmt 0 view .LVU445
 1251 010a 0304     		lsls	r3, r0, #16
 944:Drivers/STM32F0xx_HAL_Driver/Src/stm32f0xx_hal_rtc.c ****               ((uint32_t)RTC_ByteToBcd2(sAlarm->AlarmTime.Seconds)) | \
ARM GAS  /var/folders/vr/85797ndx6jd_r3n_lsprlrj40000gn/T//ccWMqnSu.s 			page 54


 1252              		.loc 1 944 26 view .LVU446
 1253 010c 4878     		ldrb	r0, [r1, #1]
 1254              	.LVL79:
 1255              	.LBB116:
 1256              	.LBI116:
1352:Drivers/STM32F0xx_HAL_Driver/Src/stm32f0xx_hal_rtc.c **** {
 1257              		.loc 1 1352 9 is_stmt 1 view .LVU447
1352:Drivers/STM32F0xx_HAL_Driver/Src/stm32f0xx_hal_rtc.c **** {
 1258              		.loc 1 1352 9 is_stmt 0 view .LVU448
 1259              	.LBE116:
 943:Drivers/STM32F0xx_HAL_Driver/Src/stm32f0xx_hal_rtc.c ****               ((uint32_t)RTC_ByteToBcd2(sAlarm->AlarmTime.Minutes) << 8U) | \
 1260              		.loc 1 943 66 view .LVU449
 1261 010e 9C46     		mov	ip, r3
 1262              	.LBB118:
 1263              	.LBB117:
1356:Drivers/STM32F0xx_HAL_Driver/Src/stm32f0xx_hal_rtc.c ****   {
 1264              		.loc 1 1356 8 view .LVU450
 1265 0110 0928     		cmp	r0, #9
 1266 0112 08D9     		bls	.L47
1354:Drivers/STM32F0xx_HAL_Driver/Src/stm32f0xx_hal_rtc.c ****   
 1267              		.loc 1 1354 12 view .LVU451
 1268 0114 0023     		movs	r3, #0
 1269              	.LVL80:
 1270              	.L48:
1358:Drivers/STM32F0xx_HAL_Driver/Src/stm32f0xx_hal_rtc.c ****     Value -= 10U;
 1271              		.loc 1 1358 5 is_stmt 1 view .LVU452
1359:Drivers/STM32F0xx_HAL_Driver/Src/stm32f0xx_hal_rtc.c ****   }
 1272              		.loc 1 1359 11 is_stmt 0 view .LVU453
 1273 0116 0A38     		subs	r0, r0, #10
 1274              	.LVL81:
1359:Drivers/STM32F0xx_HAL_Driver/Src/stm32f0xx_hal_rtc.c ****   }
 1275              		.loc 1 1359 11 view .LVU454
 1276 0118 C0B2     		uxtb	r0, r0
1358:Drivers/STM32F0xx_HAL_Driver/Src/stm32f0xx_hal_rtc.c ****     Value -= 10U;
 1277              		.loc 1 1358 12 view .LVU455
 1278 011a 0133     		adds	r3, r3, #1
 1279              	.LVL82:
1359:Drivers/STM32F0xx_HAL_Driver/Src/stm32f0xx_hal_rtc.c ****   }
 1280              		.loc 1 1359 5 is_stmt 1 view .LVU456
1356:Drivers/STM32F0xx_HAL_Driver/Src/stm32f0xx_hal_rtc.c ****   {
 1281              		.loc 1 1356 8 is_stmt 0 view .LVU457
 1282 011c 0928     		cmp	r0, #9
 1283 011e FAD8     		bhi	.L48
 1284 0120 1B01     		lsls	r3, r3, #4
 1285              	.LVL83:
1356:Drivers/STM32F0xx_HAL_Driver/Src/stm32f0xx_hal_rtc.c ****   {
 1286              		.loc 1 1356 8 view .LVU458
 1287 0122 1843     		orrs	r0, r3
 1288              	.LVL84:
1356:Drivers/STM32F0xx_HAL_Driver/Src/stm32f0xx_hal_rtc.c ****   {
 1289              		.loc 1 1356 8 view .LVU459
 1290 0124 C0B2     		uxtb	r0, r0
 1291              	.L47:
1362:Drivers/STM32F0xx_HAL_Driver/Src/stm32f0xx_hal_rtc.c **** }
 1292              		.loc 1 1362 3 is_stmt 1 view .LVU460
 1293              	.LBE117:
 1294              	.LBE118:
ARM GAS  /var/folders/vr/85797ndx6jd_r3n_lsprlrj40000gn/T//ccWMqnSu.s 			page 55


 945:Drivers/STM32F0xx_HAL_Driver/Src/stm32f0xx_hal_rtc.c ****               ((uint32_t)(sAlarm->AlarmTime.TimeFormat) << 16U) | \
 1295              		.loc 1 945 26 is_stmt 0 view .LVU461
 1296 0126 8F78     		ldrb	r7, [r1, #2]
 1297              	.LVL85:
 1298              	.LBB119:
 1299              	.LBI119:
1352:Drivers/STM32F0xx_HAL_Driver/Src/stm32f0xx_hal_rtc.c **** {
 1300              		.loc 1 1352 9 is_stmt 1 view .LVU462
1352:Drivers/STM32F0xx_HAL_Driver/Src/stm32f0xx_hal_rtc.c **** {
 1301              		.loc 1 1352 9 is_stmt 0 view .LVU463
 1302              	.LBE119:
 944:Drivers/STM32F0xx_HAL_Driver/Src/stm32f0xx_hal_rtc.c ****               ((uint32_t)RTC_ByteToBcd2(sAlarm->AlarmTime.Seconds)) | \
 1303              		.loc 1 944 68 view .LVU464
 1304 0128 0302     		lsls	r3, r0, #8
 1305 012a 9946     		mov	r9, r3
 1306              	.LBB121:
 1307              	.LBB120:
1356:Drivers/STM32F0xx_HAL_Driver/Src/stm32f0xx_hal_rtc.c ****   {
 1308              		.loc 1 1356 8 view .LVU465
 1309 012c 092F     		cmp	r7, #9
 1310 012e 08D9     		bls	.L49
1354:Drivers/STM32F0xx_HAL_Driver/Src/stm32f0xx_hal_rtc.c ****   
 1311              		.loc 1 1354 12 view .LVU466
 1312 0130 0023     		movs	r3, #0
 1313              	.LVL86:
 1314              	.L50:
1358:Drivers/STM32F0xx_HAL_Driver/Src/stm32f0xx_hal_rtc.c ****     Value -= 10U;
 1315              		.loc 1 1358 5 is_stmt 1 view .LVU467
1359:Drivers/STM32F0xx_HAL_Driver/Src/stm32f0xx_hal_rtc.c ****   }
 1316              		.loc 1 1359 11 is_stmt 0 view .LVU468
 1317 0132 0A3F     		subs	r7, r7, #10
 1318              	.LVL87:
1359:Drivers/STM32F0xx_HAL_Driver/Src/stm32f0xx_hal_rtc.c ****   }
 1319              		.loc 1 1359 11 view .LVU469
 1320 0134 FFB2     		uxtb	r7, r7
1358:Drivers/STM32F0xx_HAL_Driver/Src/stm32f0xx_hal_rtc.c ****     Value -= 10U;
 1321              		.loc 1 1358 12 view .LVU470
 1322 0136 0133     		adds	r3, r3, #1
 1323              	.LVL88:
1359:Drivers/STM32F0xx_HAL_Driver/Src/stm32f0xx_hal_rtc.c ****   }
 1324              		.loc 1 1359 5 is_stmt 1 view .LVU471
1356:Drivers/STM32F0xx_HAL_Driver/Src/stm32f0xx_hal_rtc.c ****   {
 1325              		.loc 1 1356 8 is_stmt 0 view .LVU472
 1326 0138 092F     		cmp	r7, #9
 1327 013a FAD8     		bhi	.L50
 1328 013c 1B01     		lsls	r3, r3, #4
 1329              	.LVL89:
1356:Drivers/STM32F0xx_HAL_Driver/Src/stm32f0xx_hal_rtc.c ****   {
 1330              		.loc 1 1356 8 view .LVU473
 1331 013e 1F43     		orrs	r7, r3
 1332              	.LVL90:
1356:Drivers/STM32F0xx_HAL_Driver/Src/stm32f0xx_hal_rtc.c ****   {
 1333              		.loc 1 1356 8 view .LVU474
 1334 0140 FFB2     		uxtb	r7, r7
 1335              	.L49:
1362:Drivers/STM32F0xx_HAL_Driver/Src/stm32f0xx_hal_rtc.c **** }
 1336              		.loc 1 1362 3 is_stmt 1 view .LVU475
ARM GAS  /var/folders/vr/85797ndx6jd_r3n_lsprlrj40000gn/T//ccWMqnSu.s 			page 56


 1337              	.LBE120:
 1338              	.LBE121:
 947:Drivers/STM32F0xx_HAL_Driver/Src/stm32f0xx_hal_rtc.c ****               ((uint32_t)sAlarm->AlarmDateWeekDaySel) | \
 1339              		.loc 1 947 26 is_stmt 0 view .LVU476
 1340 0142 2023     		movs	r3, #32
 1341 0144 CB5C     		ldrb	r3, [r1, r3]
 1342              	.LVL91:
 1343              	.LBB122:
 1344              	.LBI122:
1352:Drivers/STM32F0xx_HAL_Driver/Src/stm32f0xx_hal_rtc.c **** {
 1345              		.loc 1 1352 9 is_stmt 1 view .LVU477
 1346              	.LBB123:
1356:Drivers/STM32F0xx_HAL_Driver/Src/stm32f0xx_hal_rtc.c ****   {
 1347              		.loc 1 1356 8 is_stmt 0 view .LVU478
 1348 0146 092B     		cmp	r3, #9
 1349 0148 07D9     		bls	.L51
 1350              	.LVL92:
 1351              	.L52:
1358:Drivers/STM32F0xx_HAL_Driver/Src/stm32f0xx_hal_rtc.c ****     Value -= 10U;
 1352              		.loc 1 1358 5 is_stmt 1 view .LVU479
1359:Drivers/STM32F0xx_HAL_Driver/Src/stm32f0xx_hal_rtc.c ****   }
 1353              		.loc 1 1359 11 is_stmt 0 view .LVU480
 1354 014a 0A3B     		subs	r3, r3, #10
 1355              	.LVL93:
1359:Drivers/STM32F0xx_HAL_Driver/Src/stm32f0xx_hal_rtc.c ****   }
 1356              		.loc 1 1359 11 view .LVU481
 1357 014c DBB2     		uxtb	r3, r3
1358:Drivers/STM32F0xx_HAL_Driver/Src/stm32f0xx_hal_rtc.c ****     Value -= 10U;
 1358              		.loc 1 1358 12 view .LVU482
 1359 014e 0132     		adds	r2, r2, #1
 1360              	.LVL94:
1359:Drivers/STM32F0xx_HAL_Driver/Src/stm32f0xx_hal_rtc.c ****   }
 1361              		.loc 1 1359 5 is_stmt 1 view .LVU483
1356:Drivers/STM32F0xx_HAL_Driver/Src/stm32f0xx_hal_rtc.c ****   {
 1362              		.loc 1 1356 8 is_stmt 0 view .LVU484
 1363 0150 092B     		cmp	r3, #9
 1364 0152 FAD8     		bhi	.L52
 1365 0154 1201     		lsls	r2, r2, #4
 1366              	.LVL95:
1356:Drivers/STM32F0xx_HAL_Driver/Src/stm32f0xx_hal_rtc.c ****   {
 1367              		.loc 1 1356 8 view .LVU485
 1368 0156 1343     		orrs	r3, r2
 1369              	.LVL96:
1356:Drivers/STM32F0xx_HAL_Driver/Src/stm32f0xx_hal_rtc.c ****   {
 1370              		.loc 1 1356 8 view .LVU486
 1371 0158 DBB2     		uxtb	r3, r3
 1372              	.L51:
1362:Drivers/STM32F0xx_HAL_Driver/Src/stm32f0xx_hal_rtc.c **** }
 1373              		.loc 1 1362 3 is_stmt 1 view .LVU487
 1374              	.LBE123:
 1375              	.LBE122:
 943:Drivers/STM32F0xx_HAL_Driver/Src/stm32f0xx_hal_rtc.c ****               ((uint32_t)RTC_ByteToBcd2(sAlarm->AlarmTime.Minutes) << 8U) | \
 1376              		.loc 1 943 12 is_stmt 0 view .LVU488
 1377 015a 4246     		mov	r2, r8
 1378 015c 4869     		ldr	r0, [r1, #20]
 947:Drivers/STM32F0xx_HAL_Driver/Src/stm32f0xx_hal_rtc.c ****               ((uint32_t)sAlarm->AlarmDateWeekDaySel) | \
 1379              		.loc 1 947 67 view .LVU489
ARM GAS  /var/folders/vr/85797ndx6jd_r3n_lsprlrj40000gn/T//ccWMqnSu.s 			page 57


 1380 015e 1B06     		lsls	r3, r3, #24
 943:Drivers/STM32F0xx_HAL_Driver/Src/stm32f0xx_hal_rtc.c ****               ((uint32_t)RTC_ByteToBcd2(sAlarm->AlarmTime.Minutes) << 8U) | \
 1381              		.loc 1 943 12 view .LVU490
 1382 0160 0243     		orrs	r2, r0
 1383 0162 1643     		orrs	r6, r2
 1384 0164 6246     		mov	r2, ip
 1385 0166 4846     		mov	r0, r9
 1386 0168 1643     		orrs	r6, r2
 1387 016a 3043     		orrs	r0, r6
 1388 016c 3843     		orrs	r0, r7
 1389 016e 1843     		orrs	r0, r3
 1390 0170 8046     		mov	r8, r0
 1391              	.LVL97:
 943:Drivers/STM32F0xx_HAL_Driver/Src/stm32f0xx_hal_rtc.c ****               ((uint32_t)RTC_ByteToBcd2(sAlarm->AlarmTime.Minutes) << 8U) | \
 1392              		.loc 1 943 12 view .LVU491
 1393 0172 6FE7     		b	.L53
 1394              	.LVL98:
 1395              	.L65:
1006:Drivers/STM32F0xx_HAL_Driver/Src/stm32f0xx_hal_rtc.c ****         
 1396              		.loc 1 1006 7 is_stmt 1 view .LVU492
1006:Drivers/STM32F0xx_HAL_Driver/Src/stm32f0xx_hal_rtc.c ****         
 1397              		.loc 1 1006 7 view .LVU493
 1398 0174 FF22     		movs	r2, #255
 1399 0176 2B68     		ldr	r3, [r5]
 1400              	.LVL99:
1013:Drivers/STM32F0xx_HAL_Driver/Src/stm32f0xx_hal_rtc.c ****     }  
 1401              		.loc 1 1013 14 is_stmt 0 view .LVU494
 1402 0178 0320     		movs	r0, #3
1006:Drivers/STM32F0xx_HAL_Driver/Src/stm32f0xx_hal_rtc.c ****         
 1403              		.loc 1 1006 7 view .LVU495
 1404 017a 5A62     		str	r2, [r3, #36]
1008:Drivers/STM32F0xx_HAL_Driver/Src/stm32f0xx_hal_rtc.c ****         
 1405              		.loc 1 1008 7 is_stmt 1 view .LVU496
1008:Drivers/STM32F0xx_HAL_Driver/Src/stm32f0xx_hal_rtc.c ****         
 1406              		.loc 1 1008 19 is_stmt 0 view .LVU497
 1407 017c 0323     		movs	r3, #3
1011:Drivers/STM32F0xx_HAL_Driver/Src/stm32f0xx_hal_rtc.c ****         
 1408              		.loc 1 1011 7 view .LVU498
 1409 017e 2C77     		strb	r4, [r5, #28]
1008:Drivers/STM32F0xx_HAL_Driver/Src/stm32f0xx_hal_rtc.c ****         
 1410              		.loc 1 1008 19 view .LVU499
 1411 0180 6B77     		strb	r3, [r5, #29]
1011:Drivers/STM32F0xx_HAL_Driver/Src/stm32f0xx_hal_rtc.c ****         
 1412              		.loc 1 1011 7 is_stmt 1 view .LVU500
1011:Drivers/STM32F0xx_HAL_Driver/Src/stm32f0xx_hal_rtc.c ****         
 1413              		.loc 1 1011 7 view .LVU501
1013:Drivers/STM32F0xx_HAL_Driver/Src/stm32f0xx_hal_rtc.c ****     }  
 1414              		.loc 1 1013 7 view .LVU502
1013:Drivers/STM32F0xx_HAL_Driver/Src/stm32f0xx_hal_rtc.c ****     }  
 1415              		.loc 1 1013 14 is_stmt 0 view .LVU503
 1416 0182 AAE7     		b	.L41
 1417              	.LVL100:
 1418              	.L54:
 961:Drivers/STM32F0xx_HAL_Driver/Src/stm32f0xx_hal_rtc.c ****       assert_param(IS_RTC_HOUR24(RTC_Bcd2ToByte(sAlarm->AlarmTime.Hours)));
 1419              		.loc 1 961 7 is_stmt 1 view .LVU504
 961:Drivers/STM32F0xx_HAL_Driver/Src/stm32f0xx_hal_rtc.c ****       assert_param(IS_RTC_HOUR24(RTC_Bcd2ToByte(sAlarm->AlarmTime.Hours)));
 1420              		.loc 1 961 36 is_stmt 0 view .LVU505
ARM GAS  /var/folders/vr/85797ndx6jd_r3n_lsprlrj40000gn/T//ccWMqnSu.s 			page 58


 1421 0184 CB70     		strb	r3, [r1, #3]
 1422 0186 54E7     		b	.L55
 1423              	.L43:
 929:Drivers/STM32F0xx_HAL_Driver/Src/stm32f0xx_hal_rtc.c ****       assert_param(IS_RTC_HOUR24(sAlarm->AlarmTime.Hours));
 1424              		.loc 1 929 7 is_stmt 1 view .LVU506
 929:Drivers/STM32F0xx_HAL_Driver/Src/stm32f0xx_hal_rtc.c ****       assert_param(IS_RTC_HOUR24(sAlarm->AlarmTime.Hours));
 1425              		.loc 1 929 36 is_stmt 0 view .LVU507
 1426 0188 CE70     		strb	r6, [r1, #3]
 1427 018a B0E7     		b	.L44
 1428              	.L58:
 916:Drivers/STM32F0xx_HAL_Driver/Src/stm32f0xx_hal_rtc.c ****   
 1429              		.loc 1 916 3 view .LVU508
 1430 018c 0220     		movs	r0, #2
 1431              	.LVL101:
 916:Drivers/STM32F0xx_HAL_Driver/Src/stm32f0xx_hal_rtc.c ****   
 1432              		.loc 1 916 3 view .LVU509
 1433 018e A4E7     		b	.L41
 1434              	.L67:
 1435              		.align	2
 1436              	.L66:
 1437 0190 FFFEFFFF 		.word	-257
 1438 0194 7FFEFFFF 		.word	-385
 1439 0198 00040140 		.word	1073808384
 1440              		.cfi_endproc
 1441              	.LFE46:
 1443              		.section	.text.HAL_RTC_DeactivateAlarm,"ax",%progbits
 1444              		.align	1
 1445              		.p2align 2,,3
 1446              		.global	HAL_RTC_DeactivateAlarm
 1447              		.syntax unified
 1448              		.code	16
 1449              		.thumb_func
 1450              		.fpu softvfp
 1452              	HAL_RTC_DeactivateAlarm:
 1453              	.LVL102:
 1454              	.LFB47:
1050:Drivers/STM32F0xx_HAL_Driver/Src/stm32f0xx_hal_rtc.c ****   uint32_t tickstart = 0U;
 1455              		.loc 1 1050 1 is_stmt 1 view -0
 1456              		.cfi_startproc
 1457              		@ args = 0, pretend = 0, frame = 0
 1458              		@ frame_needed = 0, uses_anonymous_args = 0
1051:Drivers/STM32F0xx_HAL_Driver/Src/stm32f0xx_hal_rtc.c ****   
 1459              		.loc 1 1051 3 view .LVU511
1054:Drivers/STM32F0xx_HAL_Driver/Src/stm32f0xx_hal_rtc.c ****   
 1460              		.loc 1 1054 3 view .LVU512
1057:Drivers/STM32F0xx_HAL_Driver/Src/stm32f0xx_hal_rtc.c ****   
 1461              		.loc 1 1057 3 view .LVU513
1057:Drivers/STM32F0xx_HAL_Driver/Src/stm32f0xx_hal_rtc.c ****   
 1462              		.loc 1 1057 3 view .LVU514
1050:Drivers/STM32F0xx_HAL_Driver/Src/stm32f0xx_hal_rtc.c ****   uint32_t tickstart = 0U;
 1463              		.loc 1 1050 1 is_stmt 0 view .LVU515
 1464 0000 F0B5     		push	{r4, r5, r6, r7, lr}
 1465              	.LCFI6:
 1466              		.cfi_def_cfa_offset 20
 1467              		.cfi_offset 4, -20
 1468              		.cfi_offset 5, -16
 1469              		.cfi_offset 6, -12
ARM GAS  /var/folders/vr/85797ndx6jd_r3n_lsprlrj40000gn/T//ccWMqnSu.s 			page 59


 1470              		.cfi_offset 7, -8
 1471              		.cfi_offset 14, -4
 1472 0002 C646     		mov	lr, r8
 1473 0004 00B5     		push	{lr}
 1474              	.LCFI7:
 1475              		.cfi_def_cfa_offset 24
 1476              		.cfi_offset 8, -24
1057:Drivers/STM32F0xx_HAL_Driver/Src/stm32f0xx_hal_rtc.c ****   
 1477              		.loc 1 1057 3 view .LVU516
 1478 0006 037F     		ldrb	r3, [r0, #28]
1050:Drivers/STM32F0xx_HAL_Driver/Src/stm32f0xx_hal_rtc.c ****   uint32_t tickstart = 0U;
 1479              		.loc 1 1050 1 view .LVU517
 1480 0008 0500     		movs	r5, r0
1057:Drivers/STM32F0xx_HAL_Driver/Src/stm32f0xx_hal_rtc.c ****   
 1481              		.loc 1 1057 3 view .LVU518
 1482 000a 012B     		cmp	r3, #1
 1483 000c 32D0     		beq	.L72
1057:Drivers/STM32F0xx_HAL_Driver/Src/stm32f0xx_hal_rtc.c ****   
 1484              		.loc 1 1057 3 is_stmt 1 discriminator 2 view .LVU519
 1485 000e 0123     		movs	r3, #1
1062:Drivers/STM32F0xx_HAL_Driver/Src/stm32f0xx_hal_rtc.c ****   
 1486              		.loc 1 1062 3 is_stmt 0 discriminator 2 view .LVU520
 1487 0010 CA22     		movs	r2, #202
1057:Drivers/STM32F0xx_HAL_Driver/Src/stm32f0xx_hal_rtc.c ****   
 1488              		.loc 1 1057 3 discriminator 2 view .LVU521
 1489 0012 0377     		strb	r3, [r0, #28]
1059:Drivers/STM32F0xx_HAL_Driver/Src/stm32f0xx_hal_rtc.c ****   
 1490              		.loc 1 1059 3 is_stmt 1 discriminator 2 view .LVU522
1059:Drivers/STM32F0xx_HAL_Driver/Src/stm32f0xx_hal_rtc.c ****   
 1491              		.loc 1 1059 15 is_stmt 0 discriminator 2 view .LVU523
 1492 0014 0133     		adds	r3, r3, #1
 1493 0016 4377     		strb	r3, [r0, #29]
1062:Drivers/STM32F0xx_HAL_Driver/Src/stm32f0xx_hal_rtc.c ****   
 1494              		.loc 1 1062 3 is_stmt 1 discriminator 2 view .LVU524
1062:Drivers/STM32F0xx_HAL_Driver/Src/stm32f0xx_hal_rtc.c ****   
 1495              		.loc 1 1062 3 discriminator 2 view .LVU525
 1496 0018 0368     		ldr	r3, [r0]
1064:Drivers/STM32F0xx_HAL_Driver/Src/stm32f0xx_hal_rtc.c ****     
 1497              		.loc 1 1064 3 is_stmt 0 discriminator 2 view .LVU526
 1498 001a 1749     		ldr	r1, .L75
 1499              	.LVL103:
1062:Drivers/STM32F0xx_HAL_Driver/Src/stm32f0xx_hal_rtc.c ****   
 1500              		.loc 1 1062 3 discriminator 2 view .LVU527
 1501 001c 5A62     		str	r2, [r3, #36]
1062:Drivers/STM32F0xx_HAL_Driver/Src/stm32f0xx_hal_rtc.c ****   
 1502              		.loc 1 1062 3 is_stmt 1 discriminator 2 view .LVU528
 1503 001e 773A     		subs	r2, r2, #119
 1504 0020 5A62     		str	r2, [r3, #36]
1064:Drivers/STM32F0xx_HAL_Driver/Src/stm32f0xx_hal_rtc.c ****     
 1505              		.loc 1 1064 3 discriminator 2 view .LVU529
 1506 0022 9A68     		ldr	r2, [r3, #8]
1074:Drivers/STM32F0xx_HAL_Driver/Src/stm32f0xx_hal_rtc.c ****     { 
 1507              		.loc 1 1074 7 is_stmt 0 discriminator 2 view .LVU530
 1508 0024 FA27     		movs	r7, #250
1064:Drivers/STM32F0xx_HAL_Driver/Src/stm32f0xx_hal_rtc.c ****     
 1509              		.loc 1 1064 3 discriminator 2 view .LVU531
 1510 0026 0A40     		ands	r2, r1
ARM GAS  /var/folders/vr/85797ndx6jd_r3n_lsprlrj40000gn/T//ccWMqnSu.s 			page 60


 1511 0028 9A60     		str	r2, [r3, #8]
1067:Drivers/STM32F0xx_HAL_Driver/Src/stm32f0xx_hal_rtc.c ****     
 1512              		.loc 1 1067 3 is_stmt 1 discriminator 2 view .LVU532
 1513 002a 9A68     		ldr	r2, [r3, #8]
 1514 002c 1349     		ldr	r1, .L75+4
1072:Drivers/STM32F0xx_HAL_Driver/Src/stm32f0xx_hal_rtc.c ****   {
 1515              		.loc 1 1072 9 is_stmt 0 discriminator 2 view .LVU533
 1516 002e 0126     		movs	r6, #1
1067:Drivers/STM32F0xx_HAL_Driver/Src/stm32f0xx_hal_rtc.c ****     
 1517              		.loc 1 1067 3 discriminator 2 view .LVU534
 1518 0030 0A40     		ands	r2, r1
 1519 0032 9A60     		str	r2, [r3, #8]
1069:Drivers/STM32F0xx_HAL_Driver/Src/stm32f0xx_hal_rtc.c ****     
 1520              		.loc 1 1069 3 is_stmt 1 discriminator 2 view .LVU535
1069:Drivers/STM32F0xx_HAL_Driver/Src/stm32f0xx_hal_rtc.c ****     
 1521              		.loc 1 1069 15 is_stmt 0 discriminator 2 view .LVU536
 1522 0034 FFF7FEFF 		bl	HAL_GetTick
 1523              	.LVL104:
1074:Drivers/STM32F0xx_HAL_Driver/Src/stm32f0xx_hal_rtc.c ****     { 
 1524              		.loc 1 1074 7 discriminator 2 view .LVU537
 1525 0038 BF00     		lsls	r7, r7, #2
1069:Drivers/STM32F0xx_HAL_Driver/Src/stm32f0xx_hal_rtc.c ****     
 1526              		.loc 1 1069 15 discriminator 2 view .LVU538
 1527 003a 8046     		mov	r8, r0
 1528              	.LVL105:
1072:Drivers/STM32F0xx_HAL_Driver/Src/stm32f0xx_hal_rtc.c ****   {
 1529              		.loc 1 1072 3 is_stmt 1 discriminator 2 view .LVU539
1072:Drivers/STM32F0xx_HAL_Driver/Src/stm32f0xx_hal_rtc.c ****   {
 1530              		.loc 1 1072 8 is_stmt 0 discriminator 2 view .LVU540
 1531 003c 05E0     		b	.L70
 1532              	.LVL106:
 1533              	.L71:
1074:Drivers/STM32F0xx_HAL_Driver/Src/stm32f0xx_hal_rtc.c ****     { 
 1534              		.loc 1 1074 5 is_stmt 1 view .LVU541
1074:Drivers/STM32F0xx_HAL_Driver/Src/stm32f0xx_hal_rtc.c ****     { 
 1535              		.loc 1 1074 9 is_stmt 0 view .LVU542
 1536 003e FFF7FEFF 		bl	HAL_GetTick
 1537              	.LVL107:
1074:Drivers/STM32F0xx_HAL_Driver/Src/stm32f0xx_hal_rtc.c ****     { 
 1538              		.loc 1 1074 22 view .LVU543
 1539 0042 4346     		mov	r3, r8
 1540 0044 C01A     		subs	r0, r0, r3
1074:Drivers/STM32F0xx_HAL_Driver/Src/stm32f0xx_hal_rtc.c ****     { 
 1541              		.loc 1 1074 7 view .LVU544
 1542 0046 B842     		cmp	r0, r7
 1543 0048 0CD8     		bhi	.L74
 1544              	.L70:
1072:Drivers/STM32F0xx_HAL_Driver/Src/stm32f0xx_hal_rtc.c ****   {
 1545              		.loc 1 1072 9 view .LVU545
 1546 004a 2B68     		ldr	r3, [r5]
 1547 004c DC68     		ldr	r4, [r3, #12]
 1548 004e 3440     		ands	r4, r6
1072:Drivers/STM32F0xx_HAL_Driver/Src/stm32f0xx_hal_rtc.c ****   {
 1549              		.loc 1 1072 8 view .LVU546
 1550 0050 F5D0     		beq	.L71
1088:Drivers/STM32F0xx_HAL_Driver/Src/stm32f0xx_hal_rtc.c ****   
 1551              		.loc 1 1088 3 is_stmt 1 view .LVU547
ARM GAS  /var/folders/vr/85797ndx6jd_r3n_lsprlrj40000gn/T//ccWMqnSu.s 			page 61


1088:Drivers/STM32F0xx_HAL_Driver/Src/stm32f0xx_hal_rtc.c ****   
 1552              		.loc 1 1088 3 view .LVU548
 1553 0052 FF22     		movs	r2, #255
 1554 0054 5A62     		str	r2, [r3, #36]
1090:Drivers/STM32F0xx_HAL_Driver/Src/stm32f0xx_hal_rtc.c ****   
 1555              		.loc 1 1090 3 view .LVU549
1093:Drivers/STM32F0xx_HAL_Driver/Src/stm32f0xx_hal_rtc.c ****   
 1556              		.loc 1 1093 3 is_stmt 0 view .LVU550
 1557 0056 0023     		movs	r3, #0
1095:Drivers/STM32F0xx_HAL_Driver/Src/stm32f0xx_hal_rtc.c **** }
 1558              		.loc 1 1095 10 view .LVU551
 1559 0058 0020     		movs	r0, #0
1090:Drivers/STM32F0xx_HAL_Driver/Src/stm32f0xx_hal_rtc.c ****   
 1560              		.loc 1 1090 15 view .LVU552
 1561 005a 6E77     		strb	r6, [r5, #29]
1093:Drivers/STM32F0xx_HAL_Driver/Src/stm32f0xx_hal_rtc.c ****   
 1562              		.loc 1 1093 3 is_stmt 1 view .LVU553
1093:Drivers/STM32F0xx_HAL_Driver/Src/stm32f0xx_hal_rtc.c ****   
 1563              		.loc 1 1093 3 view .LVU554
 1564 005c 2B77     		strb	r3, [r5, #28]
1095:Drivers/STM32F0xx_HAL_Driver/Src/stm32f0xx_hal_rtc.c **** }
 1565              		.loc 1 1095 3 view .LVU555
 1566              	.LVL108:
 1567              	.L69:
1096:Drivers/STM32F0xx_HAL_Driver/Src/stm32f0xx_hal_rtc.c ****            
 1568              		.loc 1 1096 1 is_stmt 0 view .LVU556
 1569              		@ sp needed
 1570              	.LVL109:
1096:Drivers/STM32F0xx_HAL_Driver/Src/stm32f0xx_hal_rtc.c ****            
 1571              		.loc 1 1096 1 view .LVU557
 1572 005e 04BC     		pop	{r2}
 1573 0060 9046     		mov	r8, r2
 1574 0062 F0BD     		pop	{r4, r5, r6, r7, pc}
 1575              	.LVL110:
 1576              	.L74:
1077:Drivers/STM32F0xx_HAL_Driver/Src/stm32f0xx_hal_rtc.c ****         
 1577              		.loc 1 1077 7 is_stmt 1 view .LVU558
1077:Drivers/STM32F0xx_HAL_Driver/Src/stm32f0xx_hal_rtc.c ****         
 1578              		.loc 1 1077 7 view .LVU559
 1579 0064 FF22     		movs	r2, #255
 1580 0066 2B68     		ldr	r3, [r5]
 1581              	.LVL111:
1084:Drivers/STM32F0xx_HAL_Driver/Src/stm32f0xx_hal_rtc.c ****     }      
 1582              		.loc 1 1084 14 is_stmt 0 view .LVU560
 1583 0068 0320     		movs	r0, #3
1077:Drivers/STM32F0xx_HAL_Driver/Src/stm32f0xx_hal_rtc.c ****         
 1584              		.loc 1 1077 7 view .LVU561
 1585 006a 5A62     		str	r2, [r3, #36]
1079:Drivers/STM32F0xx_HAL_Driver/Src/stm32f0xx_hal_rtc.c ****         
 1586              		.loc 1 1079 7 is_stmt 1 view .LVU562
1079:Drivers/STM32F0xx_HAL_Driver/Src/stm32f0xx_hal_rtc.c ****         
 1587              		.loc 1 1079 19 is_stmt 0 view .LVU563
 1588 006c 0323     		movs	r3, #3
1082:Drivers/STM32F0xx_HAL_Driver/Src/stm32f0xx_hal_rtc.c ****         
 1589              		.loc 1 1082 7 view .LVU564
 1590 006e 2C77     		strb	r4, [r5, #28]
1079:Drivers/STM32F0xx_HAL_Driver/Src/stm32f0xx_hal_rtc.c ****         
ARM GAS  /var/folders/vr/85797ndx6jd_r3n_lsprlrj40000gn/T//ccWMqnSu.s 			page 62


 1591              		.loc 1 1079 19 view .LVU565
 1592 0070 6B77     		strb	r3, [r5, #29]
1082:Drivers/STM32F0xx_HAL_Driver/Src/stm32f0xx_hal_rtc.c ****         
 1593              		.loc 1 1082 7 is_stmt 1 view .LVU566
1082:Drivers/STM32F0xx_HAL_Driver/Src/stm32f0xx_hal_rtc.c ****         
 1594              		.loc 1 1082 7 view .LVU567
1084:Drivers/STM32F0xx_HAL_Driver/Src/stm32f0xx_hal_rtc.c ****     }      
 1595              		.loc 1 1084 7 view .LVU568
1084:Drivers/STM32F0xx_HAL_Driver/Src/stm32f0xx_hal_rtc.c ****     }      
 1596              		.loc 1 1084 14 is_stmt 0 view .LVU569
 1597 0072 F4E7     		b	.L69
 1598              	.LVL112:
 1599              	.L72:
1057:Drivers/STM32F0xx_HAL_Driver/Src/stm32f0xx_hal_rtc.c ****   
 1600              		.loc 1 1057 3 view .LVU570
 1601 0074 0220     		movs	r0, #2
 1602              	.LVL113:
1057:Drivers/STM32F0xx_HAL_Driver/Src/stm32f0xx_hal_rtc.c ****   
 1603              		.loc 1 1057 3 view .LVU571
 1604 0076 F2E7     		b	.L69
 1605              	.L76:
 1606              		.align	2
 1607              	.L75:
 1608 0078 FFFEFFFF 		.word	-257
 1609 007c FFEFFFFF 		.word	-4097
 1610              		.cfi_endproc
 1611              	.LFE47:
 1613              		.section	.text.HAL_RTC_GetAlarm,"ax",%progbits
 1614              		.align	1
 1615              		.p2align 2,,3
 1616              		.global	HAL_RTC_GetAlarm
 1617              		.syntax unified
 1618              		.code	16
 1619              		.thumb_func
 1620              		.fpu softvfp
 1622              	HAL_RTC_GetAlarm:
 1623              	.LVL114:
 1624              	.LFB48:
1112:Drivers/STM32F0xx_HAL_Driver/Src/stm32f0xx_hal_rtc.c ****   uint32_t tmpreg = 0U, subsecondtmpreg = 0U;
 1625              		.loc 1 1112 1 is_stmt 1 view -0
 1626              		.cfi_startproc
 1627              		@ args = 0, pretend = 0, frame = 8
 1628              		@ frame_needed = 0, uses_anonymous_args = 0
1113:Drivers/STM32F0xx_HAL_Driver/Src/stm32f0xx_hal_rtc.c ****   
 1629              		.loc 1 1113 3 view .LVU573
1116:Drivers/STM32F0xx_HAL_Driver/Src/stm32f0xx_hal_rtc.c ****   assert_param(IS_RTC_ALARM(Alarm));
 1630              		.loc 1 1116 3 view .LVU574
1117:Drivers/STM32F0xx_HAL_Driver/Src/stm32f0xx_hal_rtc.c ****   
 1631              		.loc 1 1117 3 view .LVU575
1119:Drivers/STM32F0xx_HAL_Driver/Src/stm32f0xx_hal_rtc.c ****     
 1632              		.loc 1 1119 3 view .LVU576
1112:Drivers/STM32F0xx_HAL_Driver/Src/stm32f0xx_hal_rtc.c ****   uint32_t tmpreg = 0U, subsecondtmpreg = 0U;
 1633              		.loc 1 1112 1 is_stmt 0 view .LVU577
 1634 0000 F0B5     		push	{r4, r5, r6, r7, lr}
 1635              	.LCFI8:
 1636              		.cfi_def_cfa_offset 20
 1637              		.cfi_offset 4, -20
ARM GAS  /var/folders/vr/85797ndx6jd_r3n_lsprlrj40000gn/T//ccWMqnSu.s 			page 63


 1638              		.cfi_offset 5, -16
 1639              		.cfi_offset 6, -12
