ARM GAS  /var/folders/vr/85797ndx6jd_r3n_lsprlrj40000gn/T//ccBlM6ZE.s 			page 1


   1              		.cpu cortex-m0
   2              		.eabi_attribute 20, 1
   3              		.eabi_attribute 21, 1
   4              		.eabi_attribute 23, 3
   5              		.eabi_attribute 24, 1
   6              		.eabi_attribute 25, 1
   7              		.eabi_attribute 26, 1
   8              		.eabi_attribute 30, 2
   9              		.eabi_attribute 34, 0
  10              		.eabi_attribute 18, 4
  11              		.file	"stm32f0xx_hal_rtc_ex.c"
  12              		.text
  13              	.Ltext0:
  14              		.cfi_sections	.debug_frame
  15              		.section	.text.HAL_RTCEx_SetTimeStamp,"ax",%progbits
  16              		.align	1
  17              		.p2align 2,,3
  18              		.global	HAL_RTCEx_SetTimeStamp
  19              		.arch armv6s-m
  20              		.syntax unified
  21              		.code	16
  22              		.thumb_func
  23              		.fpu softvfp
  25              	HAL_RTCEx_SetTimeStamp:
  26              	.LVL0:
  27              	.LFB37:
  28              		.file 1 "Drivers/STM32F0xx_HAL_Driver/Src/stm32f0xx_hal_rtc_ex.c"
   1:Drivers/STM32F0xx_HAL_Driver/Src/stm32f0xx_hal_rtc_ex.c **** /**
   2:Drivers/STM32F0xx_HAL_Driver/Src/stm32f0xx_hal_rtc_ex.c ****   ******************************************************************************
   3:Drivers/STM32F0xx_HAL_Driver/Src/stm32f0xx_hal_rtc_ex.c ****   * @file    stm32f0xx_hal_rtc_ex.c
   4:Drivers/STM32F0xx_HAL_Driver/Src/stm32f0xx_hal_rtc_ex.c ****   * @author  MCD Application Team
   5:Drivers/STM32F0xx_HAL_Driver/Src/stm32f0xx_hal_rtc_ex.c ****   * @brief   Extended RTC HAL module driver.
   6:Drivers/STM32F0xx_HAL_Driver/Src/stm32f0xx_hal_rtc_ex.c ****   *          This file provides firmware functions to manage the following 
   7:Drivers/STM32F0xx_HAL_Driver/Src/stm32f0xx_hal_rtc_ex.c ****   *          functionalities of the Real Time Clock (RTC) Extended peripheral:
   8:Drivers/STM32F0xx_HAL_Driver/Src/stm32f0xx_hal_rtc_ex.c ****   *           + RTC Time Stamp functions
   9:Drivers/STM32F0xx_HAL_Driver/Src/stm32f0xx_hal_rtc_ex.c ****   *           + RTC Tamper functions 
  10:Drivers/STM32F0xx_HAL_Driver/Src/stm32f0xx_hal_rtc_ex.c ****   *           + RTC Wake-up functions
  11:Drivers/STM32F0xx_HAL_Driver/Src/stm32f0xx_hal_rtc_ex.c ****   *           + Extended Control functions
  12:Drivers/STM32F0xx_HAL_Driver/Src/stm32f0xx_hal_rtc_ex.c ****   *           + Extended RTC features functions    
  13:Drivers/STM32F0xx_HAL_Driver/Src/stm32f0xx_hal_rtc_ex.c ****   *
  14:Drivers/STM32F0xx_HAL_Driver/Src/stm32f0xx_hal_rtc_ex.c ****   @verbatim
  15:Drivers/STM32F0xx_HAL_Driver/Src/stm32f0xx_hal_rtc_ex.c ****   ==============================================================================
  16:Drivers/STM32F0xx_HAL_Driver/Src/stm32f0xx_hal_rtc_ex.c ****                   ##### How to use this driver #####
  17:Drivers/STM32F0xx_HAL_Driver/Src/stm32f0xx_hal_rtc_ex.c ****   ==============================================================================
  18:Drivers/STM32F0xx_HAL_Driver/Src/stm32f0xx_hal_rtc_ex.c ****   [..] 
  19:Drivers/STM32F0xx_HAL_Driver/Src/stm32f0xx_hal_rtc_ex.c ****     (+) Enable the RTC domain access.
  20:Drivers/STM32F0xx_HAL_Driver/Src/stm32f0xx_hal_rtc_ex.c ****         (+) Configure the RTC Prescaler (Asynchronous and Synchronous) and RTC hour 
  21:Drivers/STM32F0xx_HAL_Driver/Src/stm32f0xx_hal_rtc_ex.c ****             format using the HAL_RTC_Init() function.
  22:Drivers/STM32F0xx_HAL_Driver/Src/stm32f0xx_hal_rtc_ex.c **** 
  23:Drivers/STM32F0xx_HAL_Driver/Src/stm32f0xx_hal_rtc_ex.c ****     *** RTC Wake-up configuration ***
  24:Drivers/STM32F0xx_HAL_Driver/Src/stm32f0xx_hal_rtc_ex.c ****     ================================
  25:Drivers/STM32F0xx_HAL_Driver/Src/stm32f0xx_hal_rtc_ex.c ****     [..] 
  26:Drivers/STM32F0xx_HAL_Driver/Src/stm32f0xx_hal_rtc_ex.c ****     (+) To configure the RTC Wakeup Clock source and Counter use the HAL_RTCEx_SetWakeUpTimer()
  27:Drivers/STM32F0xx_HAL_Driver/Src/stm32f0xx_hal_rtc_ex.c ****         function. You can also configure the RTC Wakeup timer with interrupt mode 
  28:Drivers/STM32F0xx_HAL_Driver/Src/stm32f0xx_hal_rtc_ex.c ****             using the HAL_RTCEx_SetWakeUpTimer_IT() function.
  29:Drivers/STM32F0xx_HAL_Driver/Src/stm32f0xx_hal_rtc_ex.c ****     (+) To read the RTC WakeUp Counter register, use the HAL_RTCEx_GetWakeUpTimer()
  30:Drivers/STM32F0xx_HAL_Driver/Src/stm32f0xx_hal_rtc_ex.c ****             function.
ARM GAS  /var/folders/vr/85797ndx6jd_r3n_lsprlrj40000gn/T//ccBlM6ZE.s 			page 2


  31:Drivers/STM32F0xx_HAL_Driver/Src/stm32f0xx_hal_rtc_ex.c ****         (@) Not available on F030x4/x6/x8 and F070x6            
  32:Drivers/STM32F0xx_HAL_Driver/Src/stm32f0xx_hal_rtc_ex.c ****   
  33:Drivers/STM32F0xx_HAL_Driver/Src/stm32f0xx_hal_rtc_ex.c ****     *** TimeStamp configuration ***
  34:Drivers/STM32F0xx_HAL_Driver/Src/stm32f0xx_hal_rtc_ex.c ****     ===============================
  35:Drivers/STM32F0xx_HAL_Driver/Src/stm32f0xx_hal_rtc_ex.c ****     [..]
  36:Drivers/STM32F0xx_HAL_Driver/Src/stm32f0xx_hal_rtc_ex.c ****         (+) Configure the RTC_AF trigger and enable the RTC TimeStamp using the 
  37:Drivers/STM32F0xx_HAL_Driver/Src/stm32f0xx_hal_rtc_ex.c ****             HAL_RTCEx_SetTimeStamp() function. You can also configure the RTC TimeStamp with 
  38:Drivers/STM32F0xx_HAL_Driver/Src/stm32f0xx_hal_rtc_ex.c ****             interrupt mode using the HAL_RTCEx_SetTimeStamp_IT() function.
  39:Drivers/STM32F0xx_HAL_Driver/Src/stm32f0xx_hal_rtc_ex.c ****         (+) To read the RTC TimeStamp Time and Date register, use the HAL_RTCEx_GetTimeStamp()
  40:Drivers/STM32F0xx_HAL_Driver/Src/stm32f0xx_hal_rtc_ex.c ****             function.
  41:Drivers/STM32F0xx_HAL_Driver/Src/stm32f0xx_hal_rtc_ex.c ****   
  42:Drivers/STM32F0xx_HAL_Driver/Src/stm32f0xx_hal_rtc_ex.c ****     *** Tamper configuration ***
  43:Drivers/STM32F0xx_HAL_Driver/Src/stm32f0xx_hal_rtc_ex.c ****     ============================
  44:Drivers/STM32F0xx_HAL_Driver/Src/stm32f0xx_hal_rtc_ex.c ****     [..]
  45:Drivers/STM32F0xx_HAL_Driver/Src/stm32f0xx_hal_rtc_ex.c ****         (+) Enable the RTC Tamper and configure the Tamper filter count, trigger Edge 
  46:Drivers/STM32F0xx_HAL_Driver/Src/stm32f0xx_hal_rtc_ex.c ****             or Level according to the Tamper filter (if equal to 0 Edge else Level) 
  47:Drivers/STM32F0xx_HAL_Driver/Src/stm32f0xx_hal_rtc_ex.c ****             value, sampling frequency, precharge or discharge and Pull-UP using the 
  48:Drivers/STM32F0xx_HAL_Driver/Src/stm32f0xx_hal_rtc_ex.c ****             HAL_RTCEx_SetTamper() function. You can configure RTC Tamper in interrupt 
  49:Drivers/STM32F0xx_HAL_Driver/Src/stm32f0xx_hal_rtc_ex.c ****             mode using HAL_RTCEx_SetTamper_IT() function.
  50:Drivers/STM32F0xx_HAL_Driver/Src/stm32f0xx_hal_rtc_ex.c ****   
  51:Drivers/STM32F0xx_HAL_Driver/Src/stm32f0xx_hal_rtc_ex.c ****     *** Backup Data Registers configuration ***
  52:Drivers/STM32F0xx_HAL_Driver/Src/stm32f0xx_hal_rtc_ex.c ****     ===========================================
  53:Drivers/STM32F0xx_HAL_Driver/Src/stm32f0xx_hal_rtc_ex.c ****     [..]
  54:Drivers/STM32F0xx_HAL_Driver/Src/stm32f0xx_hal_rtc_ex.c ****         (+) To write to the RTC Backup Data registers, use the HAL_RTCEx_BKUPWrite()
  55:Drivers/STM32F0xx_HAL_Driver/Src/stm32f0xx_hal_rtc_ex.c ****             function.  
  56:Drivers/STM32F0xx_HAL_Driver/Src/stm32f0xx_hal_rtc_ex.c ****         (+) To read the RTC Backup Data registers, use the HAL_RTCEx_BKUPRead()
  57:Drivers/STM32F0xx_HAL_Driver/Src/stm32f0xx_hal_rtc_ex.c ****             function.
  58:Drivers/STM32F0xx_HAL_Driver/Src/stm32f0xx_hal_rtc_ex.c ****         (@) Not available on F030x6/x8/xC and F070x6/xB (F0xx Value Line devices)
  59:Drivers/STM32F0xx_HAL_Driver/Src/stm32f0xx_hal_rtc_ex.c ****    
  60:Drivers/STM32F0xx_HAL_Driver/Src/stm32f0xx_hal_rtc_ex.c ****      
  61:Drivers/STM32F0xx_HAL_Driver/Src/stm32f0xx_hal_rtc_ex.c ****    @endverbatim
  62:Drivers/STM32F0xx_HAL_Driver/Src/stm32f0xx_hal_rtc_ex.c ****   ******************************************************************************
  63:Drivers/STM32F0xx_HAL_Driver/Src/stm32f0xx_hal_rtc_ex.c ****   * @attention
  64:Drivers/STM32F0xx_HAL_Driver/Src/stm32f0xx_hal_rtc_ex.c ****   *
  65:Drivers/STM32F0xx_HAL_Driver/Src/stm32f0xx_hal_rtc_ex.c ****   * <h2><center>&copy; COPYRIGHT(c) 2016 STMicroelectronics</center></h2>
  66:Drivers/STM32F0xx_HAL_Driver/Src/stm32f0xx_hal_rtc_ex.c ****   *
  67:Drivers/STM32F0xx_HAL_Driver/Src/stm32f0xx_hal_rtc_ex.c ****   * Redistribution and use in source and binary forms, with or without modification,
  68:Drivers/STM32F0xx_HAL_Driver/Src/stm32f0xx_hal_rtc_ex.c ****   * are permitted provided that the following conditions are met:
  69:Drivers/STM32F0xx_HAL_Driver/Src/stm32f0xx_hal_rtc_ex.c ****   *   1. Redistributions of source code must retain the above copyright notice,
  70:Drivers/STM32F0xx_HAL_Driver/Src/stm32f0xx_hal_rtc_ex.c ****   *      this list of conditions and the following disclaimer.
  71:Drivers/STM32F0xx_HAL_Driver/Src/stm32f0xx_hal_rtc_ex.c ****   *   2. Redistributions in binary form must reproduce the above copyright notice,
  72:Drivers/STM32F0xx_HAL_Driver/Src/stm32f0xx_hal_rtc_ex.c ****   *      this list of conditions and the following disclaimer in the documentation
  73:Drivers/STM32F0xx_HAL_Driver/Src/stm32f0xx_hal_rtc_ex.c ****   *      and/or other materials provided with the distribution.
  74:Drivers/STM32F0xx_HAL_Driver/Src/stm32f0xx_hal_rtc_ex.c ****   *   3. Neither the name of STMicroelectronics nor the names of its contributors
  75:Drivers/STM32F0xx_HAL_Driver/Src/stm32f0xx_hal_rtc_ex.c ****   *      may be used to endorse or promote products derived from this software
  76:Drivers/STM32F0xx_HAL_Driver/Src/stm32f0xx_hal_rtc_ex.c ****   *      without specific prior written permission.
  77:Drivers/STM32F0xx_HAL_Driver/Src/stm32f0xx_hal_rtc_ex.c ****   *
  78:Drivers/STM32F0xx_HAL_Driver/Src/stm32f0xx_hal_rtc_ex.c ****   * THIS SOFTWARE IS PROVIDED BY THE COPYRIGHT HOLDERS AND CONTRIBUTORS "AS IS"
  79:Drivers/STM32F0xx_HAL_Driver/Src/stm32f0xx_hal_rtc_ex.c ****   * AND ANY EXPRESS OR IMPLIED WARRANTIES, INCLUDING, BUT NOT LIMITED TO, THE
  80:Drivers/STM32F0xx_HAL_Driver/Src/stm32f0xx_hal_rtc_ex.c ****   * IMPLIED WARRANTIES OF MERCHANTABILITY AND FITNESS FOR A PARTICULAR PURPOSE ARE
  81:Drivers/STM32F0xx_HAL_Driver/Src/stm32f0xx_hal_rtc_ex.c ****   * DISCLAIMED. IN NO EVENT SHALL THE COPYRIGHT HOLDER OR CONTRIBUTORS BE LIABLE
  82:Drivers/STM32F0xx_HAL_Driver/Src/stm32f0xx_hal_rtc_ex.c ****   * FOR ANY DIRECT, INDIRECT, INCIDENTAL, SPECIAL, EXEMPLARY, OR CONSEQUENTIAL
  83:Drivers/STM32F0xx_HAL_Driver/Src/stm32f0xx_hal_rtc_ex.c ****   * DAMAGES (INCLUDING, BUT NOT LIMITED TO, PROCUREMENT OF SUBSTITUTE GOODS OR
  84:Drivers/STM32F0xx_HAL_Driver/Src/stm32f0xx_hal_rtc_ex.c ****   * SERVICES; LOSS OF USE, DATA, OR PROFITS; OR BUSINESS INTERRUPTION) HOWEVER
  85:Drivers/STM32F0xx_HAL_Driver/Src/stm32f0xx_hal_rtc_ex.c ****   * CAUSED AND ON ANY THEORY OF LIABILITY, WHETHER IN CONTRACT, STRICT LIABILITY,
  86:Drivers/STM32F0xx_HAL_Driver/Src/stm32f0xx_hal_rtc_ex.c ****   * OR TORT (INCLUDING NEGLIGENCE OR OTHERWISE) ARISING IN ANY WAY OUT OF THE USE
  87:Drivers/STM32F0xx_HAL_Driver/Src/stm32f0xx_hal_rtc_ex.c ****   * OF THIS SOFTWARE, EVEN IF ADVISED OF THE POSSIBILITY OF SUCH DAMAGE.
ARM GAS  /var/folders/vr/85797ndx6jd_r3n_lsprlrj40000gn/T//ccBlM6ZE.s 			page 3


  88:Drivers/STM32F0xx_HAL_Driver/Src/stm32f0xx_hal_rtc_ex.c ****   *
  89:Drivers/STM32F0xx_HAL_Driver/Src/stm32f0xx_hal_rtc_ex.c ****   ******************************************************************************  
  90:Drivers/STM32F0xx_HAL_Driver/Src/stm32f0xx_hal_rtc_ex.c ****   */ 
  91:Drivers/STM32F0xx_HAL_Driver/Src/stm32f0xx_hal_rtc_ex.c **** 
  92:Drivers/STM32F0xx_HAL_Driver/Src/stm32f0xx_hal_rtc_ex.c **** /* Includes ------------------------------------------------------------------*/
  93:Drivers/STM32F0xx_HAL_Driver/Src/stm32f0xx_hal_rtc_ex.c **** #include "stm32f0xx_hal.h"
  94:Drivers/STM32F0xx_HAL_Driver/Src/stm32f0xx_hal_rtc_ex.c **** 
  95:Drivers/STM32F0xx_HAL_Driver/Src/stm32f0xx_hal_rtc_ex.c **** /** @addtogroup STM32F0xx_HAL_Driver
  96:Drivers/STM32F0xx_HAL_Driver/Src/stm32f0xx_hal_rtc_ex.c ****   * @{
  97:Drivers/STM32F0xx_HAL_Driver/Src/stm32f0xx_hal_rtc_ex.c ****   */
  98:Drivers/STM32F0xx_HAL_Driver/Src/stm32f0xx_hal_rtc_ex.c **** 
  99:Drivers/STM32F0xx_HAL_Driver/Src/stm32f0xx_hal_rtc_ex.c **** 
 100:Drivers/STM32F0xx_HAL_Driver/Src/stm32f0xx_hal_rtc_ex.c **** 
 101:Drivers/STM32F0xx_HAL_Driver/Src/stm32f0xx_hal_rtc_ex.c **** /** @addtogroup RTCEx
 102:Drivers/STM32F0xx_HAL_Driver/Src/stm32f0xx_hal_rtc_ex.c ****   * @brief RTC Extended HAL module driver
 103:Drivers/STM32F0xx_HAL_Driver/Src/stm32f0xx_hal_rtc_ex.c ****   * @{
 104:Drivers/STM32F0xx_HAL_Driver/Src/stm32f0xx_hal_rtc_ex.c ****   */
 105:Drivers/STM32F0xx_HAL_Driver/Src/stm32f0xx_hal_rtc_ex.c **** 
 106:Drivers/STM32F0xx_HAL_Driver/Src/stm32f0xx_hal_rtc_ex.c **** #ifdef HAL_RTC_MODULE_ENABLED
 107:Drivers/STM32F0xx_HAL_Driver/Src/stm32f0xx_hal_rtc_ex.c **** 
 108:Drivers/STM32F0xx_HAL_Driver/Src/stm32f0xx_hal_rtc_ex.c **** /* Private typedef -----------------------------------------------------------*/
 109:Drivers/STM32F0xx_HAL_Driver/Src/stm32f0xx_hal_rtc_ex.c **** /* Private define ------------------------------------------------------------*/
 110:Drivers/STM32F0xx_HAL_Driver/Src/stm32f0xx_hal_rtc_ex.c **** /* Private macro -------------------------------------------------------------*/
 111:Drivers/STM32F0xx_HAL_Driver/Src/stm32f0xx_hal_rtc_ex.c **** /* Private variables ---------------------------------------------------------*/
 112:Drivers/STM32F0xx_HAL_Driver/Src/stm32f0xx_hal_rtc_ex.c **** /* Private function prototypes -----------------------------------------------*/
 113:Drivers/STM32F0xx_HAL_Driver/Src/stm32f0xx_hal_rtc_ex.c **** /* Exported functions ---------------------------------------------------------*/
 114:Drivers/STM32F0xx_HAL_Driver/Src/stm32f0xx_hal_rtc_ex.c **** 
 115:Drivers/STM32F0xx_HAL_Driver/Src/stm32f0xx_hal_rtc_ex.c **** /** @addtogroup RTCEx_Exported_Functions
 116:Drivers/STM32F0xx_HAL_Driver/Src/stm32f0xx_hal_rtc_ex.c ****   * @{
 117:Drivers/STM32F0xx_HAL_Driver/Src/stm32f0xx_hal_rtc_ex.c ****   */
 118:Drivers/STM32F0xx_HAL_Driver/Src/stm32f0xx_hal_rtc_ex.c **** 
 119:Drivers/STM32F0xx_HAL_Driver/Src/stm32f0xx_hal_rtc_ex.c **** 
 120:Drivers/STM32F0xx_HAL_Driver/Src/stm32f0xx_hal_rtc_ex.c **** /** @addtogroup RTCEx_Exported_Functions_Group1
 121:Drivers/STM32F0xx_HAL_Driver/Src/stm32f0xx_hal_rtc_ex.c ****  *  @brief   RTC TimeStamp and Tamper functions
 122:Drivers/STM32F0xx_HAL_Driver/Src/stm32f0xx_hal_rtc_ex.c ****  *
 123:Drivers/STM32F0xx_HAL_Driver/Src/stm32f0xx_hal_rtc_ex.c **** @verbatim   
 124:Drivers/STM32F0xx_HAL_Driver/Src/stm32f0xx_hal_rtc_ex.c ****  ===============================================================================
 125:Drivers/STM32F0xx_HAL_Driver/Src/stm32f0xx_hal_rtc_ex.c ****                  ##### RTC TimeStamp and Tamper functions #####
 126:Drivers/STM32F0xx_HAL_Driver/Src/stm32f0xx_hal_rtc_ex.c ****  ===============================================================================  
 127:Drivers/STM32F0xx_HAL_Driver/Src/stm32f0xx_hal_rtc_ex.c ****  
 128:Drivers/STM32F0xx_HAL_Driver/Src/stm32f0xx_hal_rtc_ex.c ****  [..] This section provides functions allowing to configure TimeStamp feature
 129:Drivers/STM32F0xx_HAL_Driver/Src/stm32f0xx_hal_rtc_ex.c **** 
 130:Drivers/STM32F0xx_HAL_Driver/Src/stm32f0xx_hal_rtc_ex.c **** @endverbatim
 131:Drivers/STM32F0xx_HAL_Driver/Src/stm32f0xx_hal_rtc_ex.c ****   * @{
 132:Drivers/STM32F0xx_HAL_Driver/Src/stm32f0xx_hal_rtc_ex.c ****   */
 133:Drivers/STM32F0xx_HAL_Driver/Src/stm32f0xx_hal_rtc_ex.c **** 
 134:Drivers/STM32F0xx_HAL_Driver/Src/stm32f0xx_hal_rtc_ex.c **** /**
 135:Drivers/STM32F0xx_HAL_Driver/Src/stm32f0xx_hal_rtc_ex.c ****   * @brief  Set TimeStamp.
 136:Drivers/STM32F0xx_HAL_Driver/Src/stm32f0xx_hal_rtc_ex.c ****   * @note   This API must be called before enabling the TimeStamp feature.
 137:Drivers/STM32F0xx_HAL_Driver/Src/stm32f0xx_hal_rtc_ex.c ****   * @param  hrtc RTC handle
 138:Drivers/STM32F0xx_HAL_Driver/Src/stm32f0xx_hal_rtc_ex.c ****   * @param  TimeStampEdge Specifies the pin edge on which the TimeStamp is
 139:Drivers/STM32F0xx_HAL_Driver/Src/stm32f0xx_hal_rtc_ex.c ****   *         activated.
 140:Drivers/STM32F0xx_HAL_Driver/Src/stm32f0xx_hal_rtc_ex.c ****   *          This parameter can be one of the following values:
 141:Drivers/STM32F0xx_HAL_Driver/Src/stm32f0xx_hal_rtc_ex.c ****   *             @arg RTC_TIMESTAMPEDGE_RISING: the Time stamp event occurs on the  
 142:Drivers/STM32F0xx_HAL_Driver/Src/stm32f0xx_hal_rtc_ex.c ****   *                                        rising edge of the related pin.
 143:Drivers/STM32F0xx_HAL_Driver/Src/stm32f0xx_hal_rtc_ex.c ****   *             @arg RTC_TIMESTAMPEDGE_FALLING: the Time stamp event occurs on the 
 144:Drivers/STM32F0xx_HAL_Driver/Src/stm32f0xx_hal_rtc_ex.c ****   *                                         falling edge of the related pin.
ARM GAS  /var/folders/vr/85797ndx6jd_r3n_lsprlrj40000gn/T//ccBlM6ZE.s 			page 4


 145:Drivers/STM32F0xx_HAL_Driver/Src/stm32f0xx_hal_rtc_ex.c ****   * @param  RTC_TimeStampPin specifies the RTC TimeStamp Pin.
 146:Drivers/STM32F0xx_HAL_Driver/Src/stm32f0xx_hal_rtc_ex.c ****   *          This parameter can be one of the following values:
 147:Drivers/STM32F0xx_HAL_Driver/Src/stm32f0xx_hal_rtc_ex.c ****   *             @arg RTC_TIMESTAMPPIN_DEFAULT: PC13 is selected as RTC TimeStamp Pin.
 148:Drivers/STM32F0xx_HAL_Driver/Src/stm32f0xx_hal_rtc_ex.c ****   * @retval HAL status
 149:Drivers/STM32F0xx_HAL_Driver/Src/stm32f0xx_hal_rtc_ex.c ****   */
 150:Drivers/STM32F0xx_HAL_Driver/Src/stm32f0xx_hal_rtc_ex.c **** HAL_StatusTypeDef HAL_RTCEx_SetTimeStamp(RTC_HandleTypeDef *hrtc, uint32_t TimeStampEdge, uint32_t 
 151:Drivers/STM32F0xx_HAL_Driver/Src/stm32f0xx_hal_rtc_ex.c **** {
  29              		.loc 1 151 1 view -0
  30              		.cfi_startproc
  31              		@ args = 0, pretend = 0, frame = 0
  32              		@ frame_needed = 0, uses_anonymous_args = 0
 152:Drivers/STM32F0xx_HAL_Driver/Src/stm32f0xx_hal_rtc_ex.c ****   uint32_t tmpreg = 0U;
  33              		.loc 1 152 3 view .LVU1
 153:Drivers/STM32F0xx_HAL_Driver/Src/stm32f0xx_hal_rtc_ex.c **** 
 154:Drivers/STM32F0xx_HAL_Driver/Src/stm32f0xx_hal_rtc_ex.c ****   /* Check the parameters */
 155:Drivers/STM32F0xx_HAL_Driver/Src/stm32f0xx_hal_rtc_ex.c ****   assert_param(IS_TIMESTAMP_EDGE(TimeStampEdge));
  34              		.loc 1 155 3 view .LVU2
 156:Drivers/STM32F0xx_HAL_Driver/Src/stm32f0xx_hal_rtc_ex.c ****   assert_param(IS_RTC_TIMESTAMP_PIN(RTC_TimeStampPin));
  35              		.loc 1 156 3 view .LVU3
 157:Drivers/STM32F0xx_HAL_Driver/Src/stm32f0xx_hal_rtc_ex.c **** 
 158:Drivers/STM32F0xx_HAL_Driver/Src/stm32f0xx_hal_rtc_ex.c ****   /* Process Locked */
 159:Drivers/STM32F0xx_HAL_Driver/Src/stm32f0xx_hal_rtc_ex.c ****   __HAL_LOCK(hrtc);
  36              		.loc 1 159 3 view .LVU4
  37              		.loc 1 159 3 view .LVU5
 151:Drivers/STM32F0xx_HAL_Driver/Src/stm32f0xx_hal_rtc_ex.c ****   uint32_t tmpreg = 0U;
  38              		.loc 1 151 1 is_stmt 0 view .LVU6
  39 0000 10B5     		push	{r4, lr}
  40              	.LCFI0:
  41              		.cfi_def_cfa_offset 8
  42              		.cfi_offset 4, -8
  43              		.cfi_offset 14, -4
  44              		.loc 1 159 3 view .LVU7
  45 0002 037F     		ldrb	r3, [r0, #28]
  46 0004 012B     		cmp	r3, #1
  47 0006 18D0     		beq	.L3
  48              		.loc 1 159 3 is_stmt 1 discriminator 2 view .LVU8
 160:Drivers/STM32F0xx_HAL_Driver/Src/stm32f0xx_hal_rtc_ex.c **** 
 161:Drivers/STM32F0xx_HAL_Driver/Src/stm32f0xx_hal_rtc_ex.c ****   hrtc->State = HAL_RTC_STATE_BUSY;
  49              		.loc 1 161 3 discriminator 2 view .LVU9
  50              		.loc 1 161 15 is_stmt 0 discriminator 2 view .LVU10
  51 0008 0223     		movs	r3, #2
  52 000a 4377     		strb	r3, [r0, #29]
 162:Drivers/STM32F0xx_HAL_Driver/Src/stm32f0xx_hal_rtc_ex.c **** 
 163:Drivers/STM32F0xx_HAL_Driver/Src/stm32f0xx_hal_rtc_ex.c ****   /* Get the RTC_CR register and clear the bits to be configured */
 164:Drivers/STM32F0xx_HAL_Driver/Src/stm32f0xx_hal_rtc_ex.c ****   tmpreg = (uint32_t)(hrtc->Instance->CR & (uint32_t)~(RTC_CR_TSEDGE | RTC_CR_TSE));
  53              		.loc 1 164 3 is_stmt 1 discriminator 2 view .LVU11
  54              		.loc 1 164 27 is_stmt 0 discriminator 2 view .LVU12
  55 000c 0368     		ldr	r3, [r0]
  56              		.loc 1 164 10 discriminator 2 view .LVU13
  57 000e 0C4C     		ldr	r4, .L5
  58              		.loc 1 164 37 discriminator 2 view .LVU14
  59 0010 9A68     		ldr	r2, [r3, #8]
  60              	.LVL1:
  61              		.loc 1 164 10 discriminator 2 view .LVU15
  62 0012 2240     		ands	r2, r4
  63              	.LVL2:
 165:Drivers/STM32F0xx_HAL_Driver/Src/stm32f0xx_hal_rtc_ex.c **** 
ARM GAS  /var/folders/vr/85797ndx6jd_r3n_lsprlrj40000gn/T//ccBlM6ZE.s 			page 5


 166:Drivers/STM32F0xx_HAL_Driver/Src/stm32f0xx_hal_rtc_ex.c ****   tmpreg|= TimeStampEdge;
  64              		.loc 1 166 3 is_stmt 1 discriminator 2 view .LVU16
  65              		.loc 1 166 9 is_stmt 0 discriminator 2 view .LVU17
  66 0014 0A43     		orrs	r2, r1
  67              	.LVL3:
 167:Drivers/STM32F0xx_HAL_Driver/Src/stm32f0xx_hal_rtc_ex.c **** 
 168:Drivers/STM32F0xx_HAL_Driver/Src/stm32f0xx_hal_rtc_ex.c ****   /* Disable the write protection for RTC registers */
 169:Drivers/STM32F0xx_HAL_Driver/Src/stm32f0xx_hal_rtc_ex.c ****   __HAL_RTC_WRITEPROTECTION_DISABLE(hrtc);
  68              		.loc 1 169 3 is_stmt 1 discriminator 2 view .LVU18
  69              		.loc 1 169 3 discriminator 2 view .LVU19
  70 0016 CA21     		movs	r1, #202
  71              	.LVL4:
  72              		.loc 1 169 3 is_stmt 0 discriminator 2 view .LVU20
  73 0018 5962     		str	r1, [r3, #36]
  74              		.loc 1 169 3 is_stmt 1 discriminator 2 view .LVU21
  75 001a 7739     		subs	r1, r1, #119
  76 001c 5962     		str	r1, [r3, #36]
 170:Drivers/STM32F0xx_HAL_Driver/Src/stm32f0xx_hal_rtc_ex.c **** 
 171:Drivers/STM32F0xx_HAL_Driver/Src/stm32f0xx_hal_rtc_ex.c ****   /* Configure the Time Stamp TSEDGE and Enable bits */
 172:Drivers/STM32F0xx_HAL_Driver/Src/stm32f0xx_hal_rtc_ex.c ****   hrtc->Instance->CR = (uint32_t)tmpreg;
  77              		.loc 1 172 3 discriminator 2 view .LVU22
  78              		.loc 1 172 22 is_stmt 0 discriminator 2 view .LVU23
  79 001e 9A60     		str	r2, [r3, #8]
 173:Drivers/STM32F0xx_HAL_Driver/Src/stm32f0xx_hal_rtc_ex.c **** 
 174:Drivers/STM32F0xx_HAL_Driver/Src/stm32f0xx_hal_rtc_ex.c ****   __HAL_RTC_TIMESTAMP_ENABLE(hrtc);
  80              		.loc 1 174 3 is_stmt 1 discriminator 2 view .LVU24
  81 0020 8022     		movs	r2, #128
  82              	.LVL5:
  83              		.loc 1 174 3 is_stmt 0 discriminator 2 view .LVU25
  84 0022 9968     		ldr	r1, [r3, #8]
  85 0024 1201     		lsls	r2, r2, #4
  86 0026 0A43     		orrs	r2, r1
  87 0028 9A60     		str	r2, [r3, #8]
  88              	.LVL6:
 175:Drivers/STM32F0xx_HAL_Driver/Src/stm32f0xx_hal_rtc_ex.c **** 
 176:Drivers/STM32F0xx_HAL_Driver/Src/stm32f0xx_hal_rtc_ex.c ****   /* Enable the write protection for RTC registers */
 177:Drivers/STM32F0xx_HAL_Driver/Src/stm32f0xx_hal_rtc_ex.c ****   __HAL_RTC_WRITEPROTECTION_ENABLE(hrtc);
  89              		.loc 1 177 3 is_stmt 1 discriminator 2 view .LVU26
  90              		.loc 1 177 3 discriminator 2 view .LVU27
  91 002a FF22     		movs	r2, #255
  92 002c 5A62     		str	r2, [r3, #36]
 178:Drivers/STM32F0xx_HAL_Driver/Src/stm32f0xx_hal_rtc_ex.c **** 
 179:Drivers/STM32F0xx_HAL_Driver/Src/stm32f0xx_hal_rtc_ex.c ****   /* Change RTC state */
 180:Drivers/STM32F0xx_HAL_Driver/Src/stm32f0xx_hal_rtc_ex.c ****   hrtc->State = HAL_RTC_STATE_READY;
  93              		.loc 1 180 3 discriminator 2 view .LVU28
  94              		.loc 1 180 15 is_stmt 0 discriminator 2 view .LVU29
  95 002e 0123     		movs	r3, #1
  96 0030 4377     		strb	r3, [r0, #29]
 181:Drivers/STM32F0xx_HAL_Driver/Src/stm32f0xx_hal_rtc_ex.c **** 
 182:Drivers/STM32F0xx_HAL_Driver/Src/stm32f0xx_hal_rtc_ex.c ****   /* Process Unlocked */
 183:Drivers/STM32F0xx_HAL_Driver/Src/stm32f0xx_hal_rtc_ex.c ****   __HAL_UNLOCK(hrtc);
  97              		.loc 1 183 3 is_stmt 1 discriminator 2 view .LVU30
  98              		.loc 1 183 3 discriminator 2 view .LVU31
  99 0032 0023     		movs	r3, #0
 100 0034 0377     		strb	r3, [r0, #28]
 184:Drivers/STM32F0xx_HAL_Driver/Src/stm32f0xx_hal_rtc_ex.c **** 
 185:Drivers/STM32F0xx_HAL_Driver/Src/stm32f0xx_hal_rtc_ex.c ****   return HAL_OK;
ARM GAS  /var/folders/vr/85797ndx6jd_r3n_lsprlrj40000gn/T//ccBlM6ZE.s 			page 6


 101              		.loc 1 185 3 discriminator 2 view .LVU32
 102              		.loc 1 185 10 is_stmt 0 discriminator 2 view .LVU33
 103 0036 0020     		movs	r0, #0
 104              	.LVL7:
 105              	.L2:
 186:Drivers/STM32F0xx_HAL_Driver/Src/stm32f0xx_hal_rtc_ex.c **** }
 106              		.loc 1 186 1 view .LVU34
 107              		@ sp needed
 108 0038 10BD     		pop	{r4, pc}
 109              	.LVL8:
 110              	.L3:
 159:Drivers/STM32F0xx_HAL_Driver/Src/stm32f0xx_hal_rtc_ex.c **** 
 111              		.loc 1 159 3 view .LVU35
 112 003a 0220     		movs	r0, #2
 113              	.LVL9:
 159:Drivers/STM32F0xx_HAL_Driver/Src/stm32f0xx_hal_rtc_ex.c **** 
 114              		.loc 1 159 3 view .LVU36
 115 003c FCE7     		b	.L2
 116              	.L6:
 117 003e C046     		.align	2
 118              	.L5:
 119 0040 F7F7FFFF 		.word	-2057
 120              		.cfi_endproc
 121              	.LFE37:
 123              		.section	.text.HAL_RTCEx_SetTimeStamp_IT,"ax",%progbits
 124              		.align	1
 125              		.p2align 2,,3
 126              		.global	HAL_RTCEx_SetTimeStamp_IT
 127              		.syntax unified
 128              		.code	16
 129              		.thumb_func
 130              		.fpu softvfp
 132              	HAL_RTCEx_SetTimeStamp_IT:
 133              	.LVL10:
 134              	.LFB38:
 187:Drivers/STM32F0xx_HAL_Driver/Src/stm32f0xx_hal_rtc_ex.c **** 
 188:Drivers/STM32F0xx_HAL_Driver/Src/stm32f0xx_hal_rtc_ex.c **** /**
 189:Drivers/STM32F0xx_HAL_Driver/Src/stm32f0xx_hal_rtc_ex.c ****   * @brief  Set TimeStamp with Interrupt.
 190:Drivers/STM32F0xx_HAL_Driver/Src/stm32f0xx_hal_rtc_ex.c ****   * @param  hrtc RTC handle
 191:Drivers/STM32F0xx_HAL_Driver/Src/stm32f0xx_hal_rtc_ex.c ****   * @note   This API must be called before enabling the TimeStamp feature.
 192:Drivers/STM32F0xx_HAL_Driver/Src/stm32f0xx_hal_rtc_ex.c ****   * @param  TimeStampEdge Specifies the pin edge on which the TimeStamp is 
 193:Drivers/STM32F0xx_HAL_Driver/Src/stm32f0xx_hal_rtc_ex.c ****   *         activated.
 194:Drivers/STM32F0xx_HAL_Driver/Src/stm32f0xx_hal_rtc_ex.c ****   *          This parameter can be one of the following values:
 195:Drivers/STM32F0xx_HAL_Driver/Src/stm32f0xx_hal_rtc_ex.c ****   *             @arg RTC_TIMESTAMPEDGE_RISING: the Time stamp event occurs on the  
 196:Drivers/STM32F0xx_HAL_Driver/Src/stm32f0xx_hal_rtc_ex.c ****   *                                        rising edge of the related pin.
 197:Drivers/STM32F0xx_HAL_Driver/Src/stm32f0xx_hal_rtc_ex.c ****   *             @arg RTC_TIMESTAMPEDGE_FALLING: the Time stamp event occurs on the 
 198:Drivers/STM32F0xx_HAL_Driver/Src/stm32f0xx_hal_rtc_ex.c ****   *                                         falling edge of the related pin.
 199:Drivers/STM32F0xx_HAL_Driver/Src/stm32f0xx_hal_rtc_ex.c ****   * @param  RTC_TimeStampPin Specifies the RTC TimeStamp Pin.
 200:Drivers/STM32F0xx_HAL_Driver/Src/stm32f0xx_hal_rtc_ex.c ****   *          This parameter can be one of the following values:
 201:Drivers/STM32F0xx_HAL_Driver/Src/stm32f0xx_hal_rtc_ex.c ****   *             @arg RTC_TIMESTAMPPIN_DEFAULT: PC13 is selected as RTC TimeStamp Pin.
 202:Drivers/STM32F0xx_HAL_Driver/Src/stm32f0xx_hal_rtc_ex.c ****   * @retval HAL status
 203:Drivers/STM32F0xx_HAL_Driver/Src/stm32f0xx_hal_rtc_ex.c ****   */
 204:Drivers/STM32F0xx_HAL_Driver/Src/stm32f0xx_hal_rtc_ex.c **** HAL_StatusTypeDef HAL_RTCEx_SetTimeStamp_IT(RTC_HandleTypeDef *hrtc, uint32_t TimeStampEdge, uint32
 205:Drivers/STM32F0xx_HAL_Driver/Src/stm32f0xx_hal_rtc_ex.c **** {
 135              		.loc 1 205 1 is_stmt 1 view -0
 136              		.cfi_startproc
 137              		@ args = 0, pretend = 0, frame = 0
ARM GAS  /var/folders/vr/85797ndx6jd_r3n_lsprlrj40000gn/T//ccBlM6ZE.s 			page 7


 138              		@ frame_needed = 0, uses_anonymous_args = 0
 206:Drivers/STM32F0xx_HAL_Driver/Src/stm32f0xx_hal_rtc_ex.c ****   uint32_t tmpreg = 0U;
 139              		.loc 1 206 3 view .LVU38
 207:Drivers/STM32F0xx_HAL_Driver/Src/stm32f0xx_hal_rtc_ex.c **** 
 208:Drivers/STM32F0xx_HAL_Driver/Src/stm32f0xx_hal_rtc_ex.c ****   /* Check the parameters */
 209:Drivers/STM32F0xx_HAL_Driver/Src/stm32f0xx_hal_rtc_ex.c ****   assert_param(IS_TIMESTAMP_EDGE(TimeStampEdge));
 140              		.loc 1 209 3 view .LVU39
 210:Drivers/STM32F0xx_HAL_Driver/Src/stm32f0xx_hal_rtc_ex.c ****   assert_param(IS_RTC_TIMESTAMP_PIN(RTC_TimeStampPin));
 141              		.loc 1 210 3 view .LVU40
 211:Drivers/STM32F0xx_HAL_Driver/Src/stm32f0xx_hal_rtc_ex.c **** 
 212:Drivers/STM32F0xx_HAL_Driver/Src/stm32f0xx_hal_rtc_ex.c ****   /* Process Locked */ 
 213:Drivers/STM32F0xx_HAL_Driver/Src/stm32f0xx_hal_rtc_ex.c ****   __HAL_LOCK(hrtc);
 142              		.loc 1 213 3 view .LVU41
 143              		.loc 1 213 3 view .LVU42
 205:Drivers/STM32F0xx_HAL_Driver/Src/stm32f0xx_hal_rtc_ex.c ****   uint32_t tmpreg = 0U;
 144              		.loc 1 205 1 is_stmt 0 view .LVU43
 145 0000 10B5     		push	{r4, lr}
 146              	.LCFI1:
 147              		.cfi_def_cfa_offset 8
 148              		.cfi_offset 4, -8
 149              		.cfi_offset 14, -4
 150              		.loc 1 213 3 view .LVU44
 151 0002 037F     		ldrb	r3, [r0, #28]
 152 0004 012B     		cmp	r3, #1
 153 0006 26D0     		beq	.L9
 154              		.loc 1 213 3 is_stmt 1 discriminator 2 view .LVU45
 214:Drivers/STM32F0xx_HAL_Driver/Src/stm32f0xx_hal_rtc_ex.c **** 
 215:Drivers/STM32F0xx_HAL_Driver/Src/stm32f0xx_hal_rtc_ex.c ****   hrtc->State = HAL_RTC_STATE_BUSY;
 155              		.loc 1 215 3 discriminator 2 view .LVU46
 156              		.loc 1 215 15 is_stmt 0 discriminator 2 view .LVU47
 157 0008 0223     		movs	r3, #2
 158 000a 4377     		strb	r3, [r0, #29]
 216:Drivers/STM32F0xx_HAL_Driver/Src/stm32f0xx_hal_rtc_ex.c **** 
 217:Drivers/STM32F0xx_HAL_Driver/Src/stm32f0xx_hal_rtc_ex.c ****   /* Get the RTC_CR register and clear the bits to be configured */
 218:Drivers/STM32F0xx_HAL_Driver/Src/stm32f0xx_hal_rtc_ex.c ****   tmpreg = (uint32_t)(hrtc->Instance->CR & (uint32_t)~(RTC_CR_TSEDGE | RTC_CR_TSE));
 159              		.loc 1 218 3 is_stmt 1 discriminator 2 view .LVU48
 160              		.loc 1 218 27 is_stmt 0 discriminator 2 view .LVU49
 161 000c 0368     		ldr	r3, [r0]
 162              		.loc 1 218 10 discriminator 2 view .LVU50
 163 000e 134C     		ldr	r4, .L10
 164              		.loc 1 218 37 discriminator 2 view .LVU51
 165 0010 9A68     		ldr	r2, [r3, #8]
 166              	.LVL11:
 167              		.loc 1 218 10 discriminator 2 view .LVU52
 168 0012 2240     		ands	r2, r4
 169              	.LVL12:
 219:Drivers/STM32F0xx_HAL_Driver/Src/stm32f0xx_hal_rtc_ex.c **** 
 220:Drivers/STM32F0xx_HAL_Driver/Src/stm32f0xx_hal_rtc_ex.c ****   tmpreg |= TimeStampEdge;
 170              		.loc 1 220 3 is_stmt 1 discriminator 2 view .LVU53
 171              		.loc 1 220 10 is_stmt 0 discriminator 2 view .LVU54
 172 0014 0A43     		orrs	r2, r1
 173              	.LVL13:
 221:Drivers/STM32F0xx_HAL_Driver/Src/stm32f0xx_hal_rtc_ex.c **** 
 222:Drivers/STM32F0xx_HAL_Driver/Src/stm32f0xx_hal_rtc_ex.c ****   /* Disable the write protection for RTC registers */
 223:Drivers/STM32F0xx_HAL_Driver/Src/stm32f0xx_hal_rtc_ex.c ****   __HAL_RTC_WRITEPROTECTION_DISABLE(hrtc);
 174              		.loc 1 223 3 is_stmt 1 discriminator 2 view .LVU55
 175              		.loc 1 223 3 discriminator 2 view .LVU56
ARM GAS  /var/folders/vr/85797ndx6jd_r3n_lsprlrj40000gn/T//ccBlM6ZE.s 			page 8


 176 0016 CA21     		movs	r1, #202
 177              	.LVL14:
 178              		.loc 1 223 3 is_stmt 0 discriminator 2 view .LVU57
 179 0018 5962     		str	r1, [r3, #36]
 180              		.loc 1 223 3 is_stmt 1 discriminator 2 view .LVU58
 181 001a 7739     		subs	r1, r1, #119
 182 001c 5962     		str	r1, [r3, #36]
 224:Drivers/STM32F0xx_HAL_Driver/Src/stm32f0xx_hal_rtc_ex.c **** 
 225:Drivers/STM32F0xx_HAL_Driver/Src/stm32f0xx_hal_rtc_ex.c ****   /* Configure the Time Stamp TSEDGE and Enable bits */
 226:Drivers/STM32F0xx_HAL_Driver/Src/stm32f0xx_hal_rtc_ex.c ****   hrtc->Instance->CR = (uint32_t)tmpreg;
 183              		.loc 1 226 3 discriminator 2 view .LVU59
 184              		.loc 1 226 22 is_stmt 0 discriminator 2 view .LVU60
 185 001e 9A60     		str	r2, [r3, #8]
 227:Drivers/STM32F0xx_HAL_Driver/Src/stm32f0xx_hal_rtc_ex.c **** 
 228:Drivers/STM32F0xx_HAL_Driver/Src/stm32f0xx_hal_rtc_ex.c ****   __HAL_RTC_TIMESTAMP_ENABLE(hrtc);
 186              		.loc 1 228 3 is_stmt 1 discriminator 2 view .LVU61
 187 0020 8022     		movs	r2, #128
 188              	.LVL15:
 189              		.loc 1 228 3 is_stmt 0 discriminator 2 view .LVU62
 190 0022 9968     		ldr	r1, [r3, #8]
 191 0024 1201     		lsls	r2, r2, #4
 192 0026 0A43     		orrs	r2, r1
 193 0028 9A60     		str	r2, [r3, #8]
 194              	.LVL16:
 229:Drivers/STM32F0xx_HAL_Driver/Src/stm32f0xx_hal_rtc_ex.c **** 
 230:Drivers/STM32F0xx_HAL_Driver/Src/stm32f0xx_hal_rtc_ex.c ****   /* Enable IT timestamp */
 231:Drivers/STM32F0xx_HAL_Driver/Src/stm32f0xx_hal_rtc_ex.c ****   __HAL_RTC_TIMESTAMP_ENABLE_IT(hrtc,RTC_IT_TS);
 195              		.loc 1 231 3 is_stmt 1 discriminator 2 view .LVU63
 196 002a 8022     		movs	r2, #128
 197 002c 9968     		ldr	r1, [r3, #8]
 198 002e 1202     		lsls	r2, r2, #8
 199 0030 0A43     		orrs	r2, r1
 232:Drivers/STM32F0xx_HAL_Driver/Src/stm32f0xx_hal_rtc_ex.c **** 
 233:Drivers/STM32F0xx_HAL_Driver/Src/stm32f0xx_hal_rtc_ex.c ****   /* RTC timestamp Interrupt Configuration: EXTI configuration */
 234:Drivers/STM32F0xx_HAL_Driver/Src/stm32f0xx_hal_rtc_ex.c ****   __HAL_RTC_TAMPER_TIMESTAMP_EXTI_ENABLE_IT();
 200              		.loc 1 234 3 is_stmt 0 discriminator 2 view .LVU64
 201 0032 8021     		movs	r1, #128
 231:Drivers/STM32F0xx_HAL_Driver/Src/stm32f0xx_hal_rtc_ex.c **** 
 202              		.loc 1 231 3 discriminator 2 view .LVU65
 203 0034 9A60     		str	r2, [r3, #8]
 204              		.loc 1 234 3 is_stmt 1 discriminator 2 view .LVU66
 205 0036 0A4A     		ldr	r2, .L10+4
 206 0038 0903     		lsls	r1, r1, #12
 207 003a 1468     		ldr	r4, [r2]
 208 003c 0C43     		orrs	r4, r1
 209 003e 1460     		str	r4, [r2]
 235:Drivers/STM32F0xx_HAL_Driver/Src/stm32f0xx_hal_rtc_ex.c **** 
 236:Drivers/STM32F0xx_HAL_Driver/Src/stm32f0xx_hal_rtc_ex.c ****   __HAL_RTC_TAMPER_TIMESTAMP_EXTI_ENABLE_RISING_EDGE();
 210              		.loc 1 236 3 discriminator 2 view .LVU67
 211 0040 9468     		ldr	r4, [r2, #8]
 212 0042 2143     		orrs	r1, r4
 213 0044 9160     		str	r1, [r2, #8]
 237:Drivers/STM32F0xx_HAL_Driver/Src/stm32f0xx_hal_rtc_ex.c **** 
 238:Drivers/STM32F0xx_HAL_Driver/Src/stm32f0xx_hal_rtc_ex.c ****   /* Enable the write protection for RTC registers */
 239:Drivers/STM32F0xx_HAL_Driver/Src/stm32f0xx_hal_rtc_ex.c ****   __HAL_RTC_WRITEPROTECTION_ENABLE(hrtc);
 214              		.loc 1 239 3 discriminator 2 view .LVU68
 215              		.loc 1 239 3 discriminator 2 view .LVU69
ARM GAS  /var/folders/vr/85797ndx6jd_r3n_lsprlrj40000gn/T//ccBlM6ZE.s 			page 9


 216 0046 FF22     		movs	r2, #255
 217 0048 5A62     		str	r2, [r3, #36]
 240:Drivers/STM32F0xx_HAL_Driver/Src/stm32f0xx_hal_rtc_ex.c **** 
 241:Drivers/STM32F0xx_HAL_Driver/Src/stm32f0xx_hal_rtc_ex.c ****   hrtc->State = HAL_RTC_STATE_READY;
 218              		.loc 1 241 3 discriminator 2 view .LVU70
 219              		.loc 1 241 15 is_stmt 0 discriminator 2 view .LVU71
 220 004a 0123     		movs	r3, #1
 221 004c 4377     		strb	r3, [r0, #29]
 242:Drivers/STM32F0xx_HAL_Driver/Src/stm32f0xx_hal_rtc_ex.c **** 
 243:Drivers/STM32F0xx_HAL_Driver/Src/stm32f0xx_hal_rtc_ex.c ****   /* Process Unlocked */
 244:Drivers/STM32F0xx_HAL_Driver/Src/stm32f0xx_hal_rtc_ex.c ****   __HAL_UNLOCK(hrtc);
 222              		.loc 1 244 3 is_stmt 1 discriminator 2 view .LVU72
 223              		.loc 1 244 3 discriminator 2 view .LVU73
 224 004e 0023     		movs	r3, #0
 225 0050 0377     		strb	r3, [r0, #28]
 245:Drivers/STM32F0xx_HAL_Driver/Src/stm32f0xx_hal_rtc_ex.c **** 
 246:Drivers/STM32F0xx_HAL_Driver/Src/stm32f0xx_hal_rtc_ex.c ****   return HAL_OK;
 226              		.loc 1 246 3 discriminator 2 view .LVU74
 227              		.loc 1 246 10 is_stmt 0 discriminator 2 view .LVU75
 228 0052 0020     		movs	r0, #0
 229              	.LVL17:
 230              	.L8:
 247:Drivers/STM32F0xx_HAL_Driver/Src/stm32f0xx_hal_rtc_ex.c **** }
 231              		.loc 1 247 1 view .LVU76
 232              		@ sp needed
 233 0054 10BD     		pop	{r4, pc}
 234              	.LVL18:
 235              	.L9:
 213:Drivers/STM32F0xx_HAL_Driver/Src/stm32f0xx_hal_rtc_ex.c **** 
 236              		.loc 1 213 3 view .LVU77
 237 0056 0220     		movs	r0, #2
 238              	.LVL19:
 213:Drivers/STM32F0xx_HAL_Driver/Src/stm32f0xx_hal_rtc_ex.c **** 
 239              		.loc 1 213 3 view .LVU78
 240 0058 FCE7     		b	.L8
 241              	.L11:
 242 005a C046     		.align	2
 243              	.L10:
 244 005c F7F7FFFF 		.word	-2057
 245 0060 00040140 		.word	1073808384
 246              		.cfi_endproc
 247              	.LFE38:
 249              		.section	.text.HAL_RTCEx_DeactivateTimeStamp,"ax",%progbits
 250              		.align	1
 251              		.p2align 2,,3
 252              		.global	HAL_RTCEx_DeactivateTimeStamp
 253              		.syntax unified
 254              		.code	16
 255              		.thumb_func
 256              		.fpu softvfp
 258              	HAL_RTCEx_DeactivateTimeStamp:
 259              	.LVL20:
 260              	.LFB39:
 248:Drivers/STM32F0xx_HAL_Driver/Src/stm32f0xx_hal_rtc_ex.c **** 
 249:Drivers/STM32F0xx_HAL_Driver/Src/stm32f0xx_hal_rtc_ex.c **** /**
 250:Drivers/STM32F0xx_HAL_Driver/Src/stm32f0xx_hal_rtc_ex.c ****   * @brief  Deactivate TimeStamp.
 251:Drivers/STM32F0xx_HAL_Driver/Src/stm32f0xx_hal_rtc_ex.c ****   * @param  hrtc RTC handle
ARM GAS  /var/folders/vr/85797ndx6jd_r3n_lsprlrj40000gn/T//ccBlM6ZE.s 			page 10


 252:Drivers/STM32F0xx_HAL_Driver/Src/stm32f0xx_hal_rtc_ex.c ****   * @retval HAL status
 253:Drivers/STM32F0xx_HAL_Driver/Src/stm32f0xx_hal_rtc_ex.c ****   */
 254:Drivers/STM32F0xx_HAL_Driver/Src/stm32f0xx_hal_rtc_ex.c **** HAL_StatusTypeDef HAL_RTCEx_DeactivateTimeStamp(RTC_HandleTypeDef *hrtc)
 255:Drivers/STM32F0xx_HAL_Driver/Src/stm32f0xx_hal_rtc_ex.c **** {
 261              		.loc 1 255 1 is_stmt 1 view -0
 262              		.cfi_startproc
 263              		@ args = 0, pretend = 0, frame = 0
 264              		@ frame_needed = 0, uses_anonymous_args = 0
 265              		@ link register save eliminated.
 256:Drivers/STM32F0xx_HAL_Driver/Src/stm32f0xx_hal_rtc_ex.c ****   uint32_t tmpreg = 0U;
 266              		.loc 1 256 3 view .LVU80
 257:Drivers/STM32F0xx_HAL_Driver/Src/stm32f0xx_hal_rtc_ex.c **** 
 258:Drivers/STM32F0xx_HAL_Driver/Src/stm32f0xx_hal_rtc_ex.c ****   /* Process Locked */
 259:Drivers/STM32F0xx_HAL_Driver/Src/stm32f0xx_hal_rtc_ex.c ****   __HAL_LOCK(hrtc);
 267              		.loc 1 259 3 view .LVU81
 268              		.loc 1 259 3 view .LVU82
 269 0000 037F     		ldrb	r3, [r0, #28]
 270 0002 012B     		cmp	r3, #1
 271 0004 16D0     		beq	.L14
 272              		.loc 1 259 3 discriminator 2 view .LVU83
 260:Drivers/STM32F0xx_HAL_Driver/Src/stm32f0xx_hal_rtc_ex.c **** 
 261:Drivers/STM32F0xx_HAL_Driver/Src/stm32f0xx_hal_rtc_ex.c ****   hrtc->State = HAL_RTC_STATE_BUSY;
 273              		.loc 1 261 3 discriminator 2 view .LVU84
 274              		.loc 1 261 15 is_stmt 0 discriminator 2 view .LVU85
 275 0006 0223     		movs	r3, #2
 262:Drivers/STM32F0xx_HAL_Driver/Src/stm32f0xx_hal_rtc_ex.c **** 
 263:Drivers/STM32F0xx_HAL_Driver/Src/stm32f0xx_hal_rtc_ex.c ****   /* Disable the write protection for RTC registers */
 264:Drivers/STM32F0xx_HAL_Driver/Src/stm32f0xx_hal_rtc_ex.c ****   __HAL_RTC_WRITEPROTECTION_DISABLE(hrtc);
 276              		.loc 1 264 3 discriminator 2 view .LVU86
 277 0008 CA22     		movs	r2, #202
 261:Drivers/STM32F0xx_HAL_Driver/Src/stm32f0xx_hal_rtc_ex.c **** 
 278              		.loc 1 261 15 discriminator 2 view .LVU87
 279 000a 4377     		strb	r3, [r0, #29]
 280              		.loc 1 264 3 is_stmt 1 discriminator 2 view .LVU88
 281              		.loc 1 264 3 discriminator 2 view .LVU89
 282 000c 0368     		ldr	r3, [r0]
 265:Drivers/STM32F0xx_HAL_Driver/Src/stm32f0xx_hal_rtc_ex.c **** 
 266:Drivers/STM32F0xx_HAL_Driver/Src/stm32f0xx_hal_rtc_ex.c ****   /* In case of interrupt mode is used, the interrupt source must disabled */
 267:Drivers/STM32F0xx_HAL_Driver/Src/stm32f0xx_hal_rtc_ex.c ****   __HAL_RTC_TIMESTAMP_DISABLE_IT(hrtc, RTC_IT_TS);
 283              		.loc 1 267 3 is_stmt 0 discriminator 2 view .LVU90
 284 000e 0A49     		ldr	r1, .L15
 264:Drivers/STM32F0xx_HAL_Driver/Src/stm32f0xx_hal_rtc_ex.c **** 
 285              		.loc 1 264 3 discriminator 2 view .LVU91
 286 0010 5A62     		str	r2, [r3, #36]
 264:Drivers/STM32F0xx_HAL_Driver/Src/stm32f0xx_hal_rtc_ex.c **** 
 287              		.loc 1 264 3 is_stmt 1 discriminator 2 view .LVU92
 288 0012 773A     		subs	r2, r2, #119
 289 0014 5A62     		str	r2, [r3, #36]
 290              		.loc 1 267 3 discriminator 2 view .LVU93
 291 0016 9A68     		ldr	r2, [r3, #8]
 292 0018 0A40     		ands	r2, r1
 293 001a 9A60     		str	r2, [r3, #8]
 268:Drivers/STM32F0xx_HAL_Driver/Src/stm32f0xx_hal_rtc_ex.c **** 
 269:Drivers/STM32F0xx_HAL_Driver/Src/stm32f0xx_hal_rtc_ex.c ****   /* Get the RTC_CR register and clear the bits to be configured */
 270:Drivers/STM32F0xx_HAL_Driver/Src/stm32f0xx_hal_rtc_ex.c ****   tmpreg = (uint32_t)(hrtc->Instance->CR & (uint32_t)~(RTC_CR_TSEDGE | RTC_CR_TSE));
 294              		.loc 1 270 3 discriminator 2 view .LVU94
 295              		.loc 1 270 37 is_stmt 0 discriminator 2 view .LVU95
ARM GAS  /var/folders/vr/85797ndx6jd_r3n_lsprlrj40000gn/T//ccBlM6ZE.s 			page 11


 296 001c 9A68     		ldr	r2, [r3, #8]
 297              		.loc 1 270 10 discriminator 2 view .LVU96
 298 001e 0749     		ldr	r1, .L15+4
 299 0020 0A40     		ands	r2, r1
 300              	.LVL21:
 271:Drivers/STM32F0xx_HAL_Driver/Src/stm32f0xx_hal_rtc_ex.c **** 
 272:Drivers/STM32F0xx_HAL_Driver/Src/stm32f0xx_hal_rtc_ex.c ****   /* Configure the Time Stamp TSEDGE and Enable bits */
 273:Drivers/STM32F0xx_HAL_Driver/Src/stm32f0xx_hal_rtc_ex.c ****   hrtc->Instance->CR = (uint32_t)tmpreg;
 301              		.loc 1 273 3 is_stmt 1 discriminator 2 view .LVU97
 302              		.loc 1 273 22 is_stmt 0 discriminator 2 view .LVU98
 303 0022 9A60     		str	r2, [r3, #8]
 274:Drivers/STM32F0xx_HAL_Driver/Src/stm32f0xx_hal_rtc_ex.c **** 
 275:Drivers/STM32F0xx_HAL_Driver/Src/stm32f0xx_hal_rtc_ex.c ****   /* Enable the write protection for RTC registers */
 276:Drivers/STM32F0xx_HAL_Driver/Src/stm32f0xx_hal_rtc_ex.c ****   __HAL_RTC_WRITEPROTECTION_ENABLE(hrtc);
 304              		.loc 1 276 3 is_stmt 1 discriminator 2 view .LVU99
 305              		.loc 1 276 3 discriminator 2 view .LVU100
 306 0024 FF22     		movs	r2, #255
 307              	.LVL22:
 308              		.loc 1 276 3 is_stmt 0 discriminator 2 view .LVU101
 309 0026 5A62     		str	r2, [r3, #36]
 310              	.LVL23:
 277:Drivers/STM32F0xx_HAL_Driver/Src/stm32f0xx_hal_rtc_ex.c **** 
 278:Drivers/STM32F0xx_HAL_Driver/Src/stm32f0xx_hal_rtc_ex.c ****   hrtc->State = HAL_RTC_STATE_READY;
 311              		.loc 1 278 3 is_stmt 1 discriminator 2 view .LVU102
 312              		.loc 1 278 15 is_stmt 0 discriminator 2 view .LVU103
 313 0028 0123     		movs	r3, #1
 314 002a 4377     		strb	r3, [r0, #29]
 279:Drivers/STM32F0xx_HAL_Driver/Src/stm32f0xx_hal_rtc_ex.c **** 
 280:Drivers/STM32F0xx_HAL_Driver/Src/stm32f0xx_hal_rtc_ex.c ****   /* Process Unlocked */
 281:Drivers/STM32F0xx_HAL_Driver/Src/stm32f0xx_hal_rtc_ex.c ****   __HAL_UNLOCK(hrtc);
 315              		.loc 1 281 3 is_stmt 1 discriminator 2 view .LVU104
 316              		.loc 1 281 3 discriminator 2 view .LVU105
 317 002c 0023     		movs	r3, #0
 318 002e 0377     		strb	r3, [r0, #28]
 282:Drivers/STM32F0xx_HAL_Driver/Src/stm32f0xx_hal_rtc_ex.c **** 
 283:Drivers/STM32F0xx_HAL_Driver/Src/stm32f0xx_hal_rtc_ex.c ****   return HAL_OK;
 319              		.loc 1 283 3 discriminator 2 view .LVU106
 320              		.loc 1 283 10 is_stmt 0 discriminator 2 view .LVU107
 321 0030 0020     		movs	r0, #0
 322              	.LVL24:
 323              	.L13:
 284:Drivers/STM32F0xx_HAL_Driver/Src/stm32f0xx_hal_rtc_ex.c **** }
 324              		.loc 1 284 1 view .LVU108
 325              		@ sp needed
 326 0032 7047     		bx	lr
 327              	.LVL25:
 328              	.L14:
 259:Drivers/STM32F0xx_HAL_Driver/Src/stm32f0xx_hal_rtc_ex.c **** 
 329              		.loc 1 259 3 view .LVU109
 330 0034 0220     		movs	r0, #2
 331              	.LVL26:
 259:Drivers/STM32F0xx_HAL_Driver/Src/stm32f0xx_hal_rtc_ex.c **** 
 332              		.loc 1 259 3 view .LVU110
 333 0036 FCE7     		b	.L13
 334              	.L16:
 335              		.align	2
 336              	.L15:
ARM GAS  /var/folders/vr/85797ndx6jd_r3n_lsprlrj40000gn/T//ccBlM6ZE.s 			page 12


 337 0038 FF7FFFFF 		.word	-32769
 338 003c F7F7FFFF 		.word	-2057
 339              		.cfi_endproc
 340              	.LFE39:
 342              		.section	.text.HAL_RTCEx_GetTimeStamp,"ax",%progbits
 343              		.align	1
 344              		.p2align 2,,3
 345              		.global	HAL_RTCEx_GetTimeStamp
 346              		.syntax unified
 347              		.code	16
 348              		.thumb_func
 349              		.fpu softvfp
 351              	HAL_RTCEx_GetTimeStamp:
 352              	.LVL27:
 353              	.LFB40:
 285:Drivers/STM32F0xx_HAL_Driver/Src/stm32f0xx_hal_rtc_ex.c **** 
 286:Drivers/STM32F0xx_HAL_Driver/Src/stm32f0xx_hal_rtc_ex.c **** /**
 287:Drivers/STM32F0xx_HAL_Driver/Src/stm32f0xx_hal_rtc_ex.c ****   * @brief  Get the RTC TimeStamp value.
 288:Drivers/STM32F0xx_HAL_Driver/Src/stm32f0xx_hal_rtc_ex.c ****   * @param  hrtc RTC handle
 289:Drivers/STM32F0xx_HAL_Driver/Src/stm32f0xx_hal_rtc_ex.c **** 
 290:Drivers/STM32F0xx_HAL_Driver/Src/stm32f0xx_hal_rtc_ex.c ****   * @param  sTimeStamp Pointer to Time structure
 291:Drivers/STM32F0xx_HAL_Driver/Src/stm32f0xx_hal_rtc_ex.c ****   * @param  sTimeStampDate Pointer to Date structure  
 292:Drivers/STM32F0xx_HAL_Driver/Src/stm32f0xx_hal_rtc_ex.c ****   * @param  Format specifies the format of the entered parameters.
 293:Drivers/STM32F0xx_HAL_Driver/Src/stm32f0xx_hal_rtc_ex.c ****   *          This parameter can be one of the following values:
 294:Drivers/STM32F0xx_HAL_Driver/Src/stm32f0xx_hal_rtc_ex.c ****   *             @arg RTC_FORMAT_BIN: Binary data format 
 295:Drivers/STM32F0xx_HAL_Driver/Src/stm32f0xx_hal_rtc_ex.c ****   *             @arg RTC_FORMAT_BCD: BCD data format
 296:Drivers/STM32F0xx_HAL_Driver/Src/stm32f0xx_hal_rtc_ex.c ****   * @retval HAL status
 297:Drivers/STM32F0xx_HAL_Driver/Src/stm32f0xx_hal_rtc_ex.c ****   */
 298:Drivers/STM32F0xx_HAL_Driver/Src/stm32f0xx_hal_rtc_ex.c **** HAL_StatusTypeDef HAL_RTCEx_GetTimeStamp(RTC_HandleTypeDef *hrtc, RTC_TimeTypeDef* sTimeStamp, RTC_
 299:Drivers/STM32F0xx_HAL_Driver/Src/stm32f0xx_hal_rtc_ex.c **** {
 354              		.loc 1 299 1 is_stmt 1 view -0
 355              		.cfi_startproc
 356              		@ args = 0, pretend = 0, frame = 0
 357              		@ frame_needed = 0, uses_anonymous_args = 0
 300:Drivers/STM32F0xx_HAL_Driver/Src/stm32f0xx_hal_rtc_ex.c ****   uint32_t tmptime = 0U, tmpdate = 0U;
 358              		.loc 1 300 3 view .LVU112
 301:Drivers/STM32F0xx_HAL_Driver/Src/stm32f0xx_hal_rtc_ex.c **** 
 302:Drivers/STM32F0xx_HAL_Driver/Src/stm32f0xx_hal_rtc_ex.c ****   /* Check the parameters */
 303:Drivers/STM32F0xx_HAL_Driver/Src/stm32f0xx_hal_rtc_ex.c ****   assert_param(IS_RTC_FORMAT(Format));
 359              		.loc 1 303 3 view .LVU113
 304:Drivers/STM32F0xx_HAL_Driver/Src/stm32f0xx_hal_rtc_ex.c **** 
 305:Drivers/STM32F0xx_HAL_Driver/Src/stm32f0xx_hal_rtc_ex.c ****   /* Get the TimeStamp time and date registers values */
 306:Drivers/STM32F0xx_HAL_Driver/Src/stm32f0xx_hal_rtc_ex.c ****   tmptime = (uint32_t)(hrtc->Instance->TSTR & RTC_TR_RESERVED_MASK);
 360              		.loc 1 306 3 view .LVU114
 299:Drivers/STM32F0xx_HAL_Driver/Src/stm32f0xx_hal_rtc_ex.c ****   uint32_t tmptime = 0U, tmpdate = 0U;
 361              		.loc 1 299 1 is_stmt 0 view .LVU115
 362 0000 F8B5     		push	{r3, r4, r5, r6, r7, lr}
 363              	.LCFI2:
 364              		.cfi_def_cfa_offset 24
 365              		.cfi_offset 3, -24
 366              		.cfi_offset 4, -20
 367              		.cfi_offset 5, -16
 368              		.cfi_offset 6, -12
 369              		.cfi_offset 7, -8
 370              		.cfi_offset 14, -4
 371 0002 CE46     		mov	lr, r9
 372 0004 4746     		mov	r7, r8
ARM GAS  /var/folders/vr/85797ndx6jd_r3n_lsprlrj40000gn/T//ccBlM6ZE.s 			page 13


 373 0006 0C00     		movs	r4, r1
 374              		.loc 1 306 28 view .LVU116
 375 0008 0168     		ldr	r1, [r0]
 376              	.LVL28:
 299:Drivers/STM32F0xx_HAL_Driver/Src/stm32f0xx_hal_rtc_ex.c ****   uint32_t tmptime = 0U, tmpdate = 0U;
 377              		.loc 1 299 1 view .LVU117
 378 000a 1500     		movs	r5, r2
 379              		.loc 1 306 38 view .LVU118
 380 000c 0E6B     		ldr	r6, [r1, #48]
 381              		.loc 1 306 11 view .LVU119
 382 000e 234A     		ldr	r2, .L20
 383              	.LVL29:
 299:Drivers/STM32F0xx_HAL_Driver/Src/stm32f0xx_hal_rtc_ex.c ****   uint32_t tmptime = 0U, tmpdate = 0U;
 384              		.loc 1 299 1 view .LVU120
 385 0010 80B5     		push	{r7, lr}
 386              	.LCFI3:
 387              		.cfi_def_cfa_offset 32
 388              		.cfi_offset 8, -32
 389              		.cfi_offset 9, -28
 390              		.loc 1 306 11 view .LVU121
 391 0012 1640     		ands	r6, r2
 392              	.LVL30:
 307:Drivers/STM32F0xx_HAL_Driver/Src/stm32f0xx_hal_rtc_ex.c ****   tmpdate = (uint32_t)(hrtc->Instance->TSDR & RTC_DR_RESERVED_MASK);
 393              		.loc 1 307 3 is_stmt 1 view .LVU122
 299:Drivers/STM32F0xx_HAL_Driver/Src/stm32f0xx_hal_rtc_ex.c ****   uint32_t tmptime = 0U, tmpdate = 0U;
 394              		.loc 1 299 1 is_stmt 0 view .LVU123
 395 0014 0700     		movs	r7, r0
 396              		.loc 1 307 11 view .LVU124
 397 0016 224A     		ldr	r2, .L20+4
 398              		.loc 1 307 38 view .LVU125
 399 0018 486B     		ldr	r0, [r1, #52]
 400              	.LVL31:
 299:Drivers/STM32F0xx_HAL_Driver/Src/stm32f0xx_hal_rtc_ex.c ****   uint32_t tmptime = 0U, tmpdate = 0U;
 401              		.loc 1 299 1 view .LVU126
 402 001a 9946     		mov	r9, r3
 403              		.loc 1 307 11 view .LVU127
 404 001c 0240     		ands	r2, r0
 405              	.LVL32:
 308:Drivers/STM32F0xx_HAL_Driver/Src/stm32f0xx_hal_rtc_ex.c **** 
 309:Drivers/STM32F0xx_HAL_Driver/Src/stm32f0xx_hal_rtc_ex.c ****   /* Fill the Time structure fields with the read parameters */
 310:Drivers/STM32F0xx_HAL_Driver/Src/stm32f0xx_hal_rtc_ex.c ****   sTimeStamp->Hours = (uint8_t)((tmptime & (RTC_TR_HT | RTC_TR_HU)) >> 16U);
 406              		.loc 1 310 3 is_stmt 1 view .LVU128
 407              		.loc 1 310 23 is_stmt 0 view .LVU129
 408 001e 300C     		lsrs	r0, r6, #16
 409 0020 8446     		mov	ip, r0
 410 0022 3F20     		movs	r0, #63
 411 0024 6346     		mov	r3, ip
 412              	.LVL33:
 413              		.loc 1 310 23 view .LVU130
 414 0026 1840     		ands	r0, r3
 311:Drivers/STM32F0xx_HAL_Driver/Src/stm32f0xx_hal_rtc_ex.c ****   sTimeStamp->Minutes = (uint8_t)((tmptime & (RTC_TR_MNT | RTC_TR_MNU)) >> 8U);
 415              		.loc 1 311 73 view .LVU131
 416 0028 330A     		lsrs	r3, r6, #8
 417              		.loc 1 311 23 view .LVU132
 418 002a 6370     		strb	r3, [r4, #1]
 312:Drivers/STM32F0xx_HAL_Driver/Src/stm32f0xx_hal_rtc_ex.c ****   sTimeStamp->Seconds = (uint8_t)(tmptime & (RTC_TR_ST | RTC_TR_SU));
 419              		.loc 1 312 23 view .LVU133
ARM GAS  /var/folders/vr/85797ndx6jd_r3n_lsprlrj40000gn/T//ccBlM6ZE.s 			page 14


 420 002c A670     		strb	r6, [r4, #2]
 313:Drivers/STM32F0xx_HAL_Driver/Src/stm32f0xx_hal_rtc_ex.c ****   sTimeStamp->TimeFormat = (uint8_t)((tmptime & (RTC_TR_PM)) >> 16U);
 421              		.loc 1 313 28 view .LVU134
 422 002e 6346     		mov	r3, ip
 423 0030 4026     		movs	r6, #64
 424              	.LVL34:
 425              		.loc 1 313 28 view .LVU135
 426 0032 1E40     		ands	r6, r3
 310:Drivers/STM32F0xx_HAL_Driver/Src/stm32f0xx_hal_rtc_ex.c ****   sTimeStamp->Minutes = (uint8_t)((tmptime & (RTC_TR_MNT | RTC_TR_MNU)) >> 8U);
 427              		.loc 1 310 21 view .LVU136
 428 0034 2070     		strb	r0, [r4]
 311:Drivers/STM32F0xx_HAL_Driver/Src/stm32f0xx_hal_rtc_ex.c ****   sTimeStamp->Seconds = (uint8_t)(tmptime & (RTC_TR_ST | RTC_TR_SU));
 429              		.loc 1 311 3 is_stmt 1 view .LVU137
 312:Drivers/STM32F0xx_HAL_Driver/Src/stm32f0xx_hal_rtc_ex.c ****   sTimeStamp->TimeFormat = (uint8_t)((tmptime & (RTC_TR_PM)) >> 16U);
 430              		.loc 1 312 3 view .LVU138
 431              		.loc 1 313 3 view .LVU139
 432              		.loc 1 313 26 is_stmt 0 view .LVU140
 433 0036 E670     		strb	r6, [r4, #3]
 314:Drivers/STM32F0xx_HAL_Driver/Src/stm32f0xx_hal_rtc_ex.c ****   sTimeStamp->SubSeconds = (uint32_t) hrtc->Instance->TSSSR;
 434              		.loc 1 314 3 is_stmt 1 view .LVU141
 435              		.loc 1 314 53 is_stmt 0 view .LVU142
 436 0038 8E6B     		ldr	r6, [r1, #56]
 315:Drivers/STM32F0xx_HAL_Driver/Src/stm32f0xx_hal_rtc_ex.c **** 
 316:Drivers/STM32F0xx_HAL_Driver/Src/stm32f0xx_hal_rtc_ex.c ****   /* Fill the Date structure fields with the read parameters */
 317:Drivers/STM32F0xx_HAL_Driver/Src/stm32f0xx_hal_rtc_ex.c ****   sTimeStampDate->Year = 0;
 318:Drivers/STM32F0xx_HAL_Driver/Src/stm32f0xx_hal_rtc_ex.c ****   sTimeStampDate->Month = (uint8_t)((tmpdate & (RTC_DR_MT | RTC_DR_MU)) >> 8U);
 319:Drivers/STM32F0xx_HAL_Driver/Src/stm32f0xx_hal_rtc_ex.c ****   sTimeStampDate->Date = (uint8_t)(tmpdate & (RTC_DR_DT | RTC_DR_DU));
 320:Drivers/STM32F0xx_HAL_Driver/Src/stm32f0xx_hal_rtc_ex.c ****   sTimeStampDate->WeekDay = (uint8_t)((tmpdate & (RTC_DR_WDU)) >> 13U);
 321:Drivers/STM32F0xx_HAL_Driver/Src/stm32f0xx_hal_rtc_ex.c **** 
 322:Drivers/STM32F0xx_HAL_Driver/Src/stm32f0xx_hal_rtc_ex.c ****   /* Check the input parameters format */
 323:Drivers/STM32F0xx_HAL_Driver/Src/stm32f0xx_hal_rtc_ex.c ****   if(Format == RTC_FORMAT_BIN)
 437              		.loc 1 323 5 view .LVU143
 438 003a 4B46     		mov	r3, r9
 314:Drivers/STM32F0xx_HAL_Driver/Src/stm32f0xx_hal_rtc_ex.c ****   sTimeStamp->SubSeconds = (uint32_t) hrtc->Instance->TSSSR;
 439              		.loc 1 314 26 view .LVU144
 440 003c 6660     		str	r6, [r4, #4]
 317:Drivers/STM32F0xx_HAL_Driver/Src/stm32f0xx_hal_rtc_ex.c ****   sTimeStampDate->Month = (uint8_t)((tmpdate & (RTC_DR_MT | RTC_DR_MU)) >> 8U);
 441              		.loc 1 317 3 is_stmt 1 view .LVU145
 317:Drivers/STM32F0xx_HAL_Driver/Src/stm32f0xx_hal_rtc_ex.c ****   sTimeStampDate->Month = (uint8_t)((tmpdate & (RTC_DR_MT | RTC_DR_MU)) >> 8U);
 442              		.loc 1 317 24 is_stmt 0 view .LVU146
 443 003e 0026     		movs	r6, #0
 319:Drivers/STM32F0xx_HAL_Driver/Src/stm32f0xx_hal_rtc_ex.c ****   sTimeStampDate->WeekDay = (uint8_t)((tmpdate & (RTC_DR_WDU)) >> 13U);
 444              		.loc 1 319 24 view .LVU147
 445 0040 AA70     		strb	r2, [r5, #2]
 317:Drivers/STM32F0xx_HAL_Driver/Src/stm32f0xx_hal_rtc_ex.c ****   sTimeStampDate->Month = (uint8_t)((tmpdate & (RTC_DR_MT | RTC_DR_MU)) >> 8U);
 446              		.loc 1 317 24 view .LVU148
 447 0042 EE70     		strb	r6, [r5, #3]
 318:Drivers/STM32F0xx_HAL_Driver/Src/stm32f0xx_hal_rtc_ex.c ****   sTimeStampDate->Date = (uint8_t)(tmpdate & (RTC_DR_DT | RTC_DR_DU));
 448              		.loc 1 318 3 is_stmt 1 view .LVU149
 318:Drivers/STM32F0xx_HAL_Driver/Src/stm32f0xx_hal_rtc_ex.c ****   sTimeStampDate->Date = (uint8_t)(tmpdate & (RTC_DR_DT | RTC_DR_DU));
 449              		.loc 1 318 27 is_stmt 0 view .LVU150
 450 0044 D604     		lsls	r6, r2, #19
 320:Drivers/STM32F0xx_HAL_Driver/Src/stm32f0xx_hal_rtc_ex.c **** 
 451              		.loc 1 320 29 view .LVU151
 452 0046 1204     		lsls	r2, r2, #16
 453              	.LVL35:
 318:Drivers/STM32F0xx_HAL_Driver/Src/stm32f0xx_hal_rtc_ex.c ****   sTimeStampDate->Date = (uint8_t)(tmpdate & (RTC_DR_DT | RTC_DR_DU));
ARM GAS  /var/folders/vr/85797ndx6jd_r3n_lsprlrj40000gn/T//ccBlM6ZE.s 			page 15


 454              		.loc 1 318 27 view .LVU152
 455 0048 F60E     		lsrs	r6, r6, #27
 320:Drivers/STM32F0xx_HAL_Driver/Src/stm32f0xx_hal_rtc_ex.c **** 
 456              		.loc 1 320 29 view .LVU153
 457 004a 520F     		lsrs	r2, r2, #29
 318:Drivers/STM32F0xx_HAL_Driver/Src/stm32f0xx_hal_rtc_ex.c ****   sTimeStampDate->Date = (uint8_t)(tmpdate & (RTC_DR_DT | RTC_DR_DU));
 458              		.loc 1 318 25 view .LVU154
 459 004c 6E70     		strb	r6, [r5, #1]
 319:Drivers/STM32F0xx_HAL_Driver/Src/stm32f0xx_hal_rtc_ex.c ****   sTimeStampDate->WeekDay = (uint8_t)((tmpdate & (RTC_DR_WDU)) >> 13U);
 460              		.loc 1 319 3 is_stmt 1 view .LVU155
 320:Drivers/STM32F0xx_HAL_Driver/Src/stm32f0xx_hal_rtc_ex.c **** 
 461              		.loc 1 320 3 view .LVU156
 320:Drivers/STM32F0xx_HAL_Driver/Src/stm32f0xx_hal_rtc_ex.c **** 
 462              		.loc 1 320 27 is_stmt 0 view .LVU157
 463 004e 2A70     		strb	r2, [r5]
 464              		.loc 1 323 3 is_stmt 1 view .LVU158
 465              		.loc 1 323 5 is_stmt 0 view .LVU159
 466 0050 002B     		cmp	r3, #0
 467 0052 0AD0     		beq	.L19
 468              	.L18:
 324:Drivers/STM32F0xx_HAL_Driver/Src/stm32f0xx_hal_rtc_ex.c ****   {
 325:Drivers/STM32F0xx_HAL_Driver/Src/stm32f0xx_hal_rtc_ex.c ****     /* Convert the TimeStamp structure parameters to Binary format */
 326:Drivers/STM32F0xx_HAL_Driver/Src/stm32f0xx_hal_rtc_ex.c ****     sTimeStamp->Hours = (uint8_t)RTC_Bcd2ToByte(sTimeStamp->Hours);
 327:Drivers/STM32F0xx_HAL_Driver/Src/stm32f0xx_hal_rtc_ex.c ****     sTimeStamp->Minutes = (uint8_t)RTC_Bcd2ToByte(sTimeStamp->Minutes);
 328:Drivers/STM32F0xx_HAL_Driver/Src/stm32f0xx_hal_rtc_ex.c ****     sTimeStamp->Seconds = (uint8_t)RTC_Bcd2ToByte(sTimeStamp->Seconds);
 329:Drivers/STM32F0xx_HAL_Driver/Src/stm32f0xx_hal_rtc_ex.c **** 
 330:Drivers/STM32F0xx_HAL_Driver/Src/stm32f0xx_hal_rtc_ex.c ****     /* Convert the DateTimeStamp structure parameters to Binary format */
 331:Drivers/STM32F0xx_HAL_Driver/Src/stm32f0xx_hal_rtc_ex.c ****     sTimeStampDate->Month = (uint8_t)RTC_Bcd2ToByte(sTimeStampDate->Month);
 332:Drivers/STM32F0xx_HAL_Driver/Src/stm32f0xx_hal_rtc_ex.c ****     sTimeStampDate->Date = (uint8_t)RTC_Bcd2ToByte(sTimeStampDate->Date);
 333:Drivers/STM32F0xx_HAL_Driver/Src/stm32f0xx_hal_rtc_ex.c ****     sTimeStampDate->WeekDay = (uint8_t)RTC_Bcd2ToByte(sTimeStampDate->WeekDay);
 334:Drivers/STM32F0xx_HAL_Driver/Src/stm32f0xx_hal_rtc_ex.c ****   }
 335:Drivers/STM32F0xx_HAL_Driver/Src/stm32f0xx_hal_rtc_ex.c **** 
 336:Drivers/STM32F0xx_HAL_Driver/Src/stm32f0xx_hal_rtc_ex.c ****   /* Clear the TIMESTAMP Flag */
 337:Drivers/STM32F0xx_HAL_Driver/Src/stm32f0xx_hal_rtc_ex.c ****   __HAL_RTC_TIMESTAMP_CLEAR_FLAG(hrtc, RTC_FLAG_TSF);
 469              		.loc 1 337 3 is_stmt 1 view .LVU160
 470 0054 FF23     		movs	r3, #255
 471 0056 CA68     		ldr	r2, [r1, #12]
 338:Drivers/STM32F0xx_HAL_Driver/Src/stm32f0xx_hal_rtc_ex.c **** 
 339:Drivers/STM32F0xx_HAL_Driver/Src/stm32f0xx_hal_rtc_ex.c ****   return HAL_OK;
 340:Drivers/STM32F0xx_HAL_Driver/Src/stm32f0xx_hal_rtc_ex.c **** }
 472              		.loc 1 340 1 is_stmt 0 view .LVU161
 473 0058 0020     		movs	r0, #0
 337:Drivers/STM32F0xx_HAL_Driver/Src/stm32f0xx_hal_rtc_ex.c **** 
 474              		.loc 1 337 3 view .LVU162
 475 005a 1A40     		ands	r2, r3
 476 005c 114B     		ldr	r3, .L20+8
 477              		.loc 1 340 1 view .LVU163
 478              		@ sp needed
 337:Drivers/STM32F0xx_HAL_Driver/Src/stm32f0xx_hal_rtc_ex.c **** 
 479              		.loc 1 337 3 view .LVU164
 480 005e 1343     		orrs	r3, r2
 481 0060 CB60     		str	r3, [r1, #12]
 339:Drivers/STM32F0xx_HAL_Driver/Src/stm32f0xx_hal_rtc_ex.c **** }
 482              		.loc 1 339 3 is_stmt 1 view .LVU165
 483              	.LVL36:
 484              	.LVL37:
 485              	.LVL38:
ARM GAS  /var/folders/vr/85797ndx6jd_r3n_lsprlrj40000gn/T//ccBlM6ZE.s 			page 16


 486              	.LVL39:
 487              		.loc 1 340 1 is_stmt 0 view .LVU166
 488 0062 0CBC     		pop	{r2, r3}
 489 0064 9046     		mov	r8, r2
 490 0066 9946     		mov	r9, r3
 491 0068 F8BD     		pop	{r3, r4, r5, r6, r7, pc}
 492              	.LVL40:
 493              	.L19:
 326:Drivers/STM32F0xx_HAL_Driver/Src/stm32f0xx_hal_rtc_ex.c ****     sTimeStamp->Minutes = (uint8_t)RTC_Bcd2ToByte(sTimeStamp->Minutes);
 494              		.loc 1 326 5 is_stmt 1 view .LVU167
 326:Drivers/STM32F0xx_HAL_Driver/Src/stm32f0xx_hal_rtc_ex.c ****     sTimeStamp->Minutes = (uint8_t)RTC_Bcd2ToByte(sTimeStamp->Minutes);
 495              		.loc 1 326 34 is_stmt 0 view .LVU168
 496 006a FFF7FEFF 		bl	RTC_Bcd2ToByte
 497              	.LVL41:
 326:Drivers/STM32F0xx_HAL_Driver/Src/stm32f0xx_hal_rtc_ex.c ****     sTimeStamp->Minutes = (uint8_t)RTC_Bcd2ToByte(sTimeStamp->Minutes);
 498              		.loc 1 326 23 view .LVU169
 499 006e 2070     		strb	r0, [r4]
 327:Drivers/STM32F0xx_HAL_Driver/Src/stm32f0xx_hal_rtc_ex.c ****     sTimeStamp->Seconds = (uint8_t)RTC_Bcd2ToByte(sTimeStamp->Seconds);
 500              		.loc 1 327 5 is_stmt 1 view .LVU170
 327:Drivers/STM32F0xx_HAL_Driver/Src/stm32f0xx_hal_rtc_ex.c ****     sTimeStamp->Seconds = (uint8_t)RTC_Bcd2ToByte(sTimeStamp->Seconds);
 501              		.loc 1 327 36 is_stmt 0 view .LVU171
 502 0070 6078     		ldrb	r0, [r4, #1]
 503 0072 FFF7FEFF 		bl	RTC_Bcd2ToByte
 504              	.LVL42:
 327:Drivers/STM32F0xx_HAL_Driver/Src/stm32f0xx_hal_rtc_ex.c ****     sTimeStamp->Seconds = (uint8_t)RTC_Bcd2ToByte(sTimeStamp->Seconds);
 505              		.loc 1 327 25 view .LVU172
 506 0076 6070     		strb	r0, [r4, #1]
 328:Drivers/STM32F0xx_HAL_Driver/Src/stm32f0xx_hal_rtc_ex.c **** 
 507              		.loc 1 328 5 is_stmt 1 view .LVU173
 328:Drivers/STM32F0xx_HAL_Driver/Src/stm32f0xx_hal_rtc_ex.c **** 
 508              		.loc 1 328 36 is_stmt 0 view .LVU174
 509 0078 A078     		ldrb	r0, [r4, #2]
 510 007a FFF7FEFF 		bl	RTC_Bcd2ToByte
 511              	.LVL43:
 328:Drivers/STM32F0xx_HAL_Driver/Src/stm32f0xx_hal_rtc_ex.c **** 
 512              		.loc 1 328 25 view .LVU175
 513 007e A070     		strb	r0, [r4, #2]
 331:Drivers/STM32F0xx_HAL_Driver/Src/stm32f0xx_hal_rtc_ex.c ****     sTimeStampDate->Date = (uint8_t)RTC_Bcd2ToByte(sTimeStampDate->Date);
 514              		.loc 1 331 5 is_stmt 1 view .LVU176
 331:Drivers/STM32F0xx_HAL_Driver/Src/stm32f0xx_hal_rtc_ex.c ****     sTimeStampDate->Date = (uint8_t)RTC_Bcd2ToByte(sTimeStampDate->Date);
 515              		.loc 1 331 38 is_stmt 0 view .LVU177
 516 0080 6878     		ldrb	r0, [r5, #1]
 517 0082 FFF7FEFF 		bl	RTC_Bcd2ToByte
 518              	.LVL44:
 331:Drivers/STM32F0xx_HAL_Driver/Src/stm32f0xx_hal_rtc_ex.c ****     sTimeStampDate->Date = (uint8_t)RTC_Bcd2ToByte(sTimeStampDate->Date);
 519              		.loc 1 331 27 view .LVU178
 520 0086 6870     		strb	r0, [r5, #1]
 332:Drivers/STM32F0xx_HAL_Driver/Src/stm32f0xx_hal_rtc_ex.c ****     sTimeStampDate->WeekDay = (uint8_t)RTC_Bcd2ToByte(sTimeStampDate->WeekDay);
 521              		.loc 1 332 5 is_stmt 1 view .LVU179
 332:Drivers/STM32F0xx_HAL_Driver/Src/stm32f0xx_hal_rtc_ex.c ****     sTimeStampDate->WeekDay = (uint8_t)RTC_Bcd2ToByte(sTimeStampDate->WeekDay);
 522              		.loc 1 332 37 is_stmt 0 view .LVU180
 523 0088 A878     		ldrb	r0, [r5, #2]
 524 008a FFF7FEFF 		bl	RTC_Bcd2ToByte
 525              	.LVL45:
 332:Drivers/STM32F0xx_HAL_Driver/Src/stm32f0xx_hal_rtc_ex.c ****     sTimeStampDate->WeekDay = (uint8_t)RTC_Bcd2ToByte(sTimeStampDate->WeekDay);
 526              		.loc 1 332 26 view .LVU181
 527 008e A870     		strb	r0, [r5, #2]
ARM GAS  /var/folders/vr/85797ndx6jd_r3n_lsprlrj40000gn/T//ccBlM6ZE.s 			page 17


 333:Drivers/STM32F0xx_HAL_Driver/Src/stm32f0xx_hal_rtc_ex.c ****   }
 528              		.loc 1 333 5 is_stmt 1 view .LVU182
 333:Drivers/STM32F0xx_HAL_Driver/Src/stm32f0xx_hal_rtc_ex.c ****   }
 529              		.loc 1 333 40 is_stmt 0 view .LVU183
 530 0090 2878     		ldrb	r0, [r5]
 531 0092 FFF7FEFF 		bl	RTC_Bcd2ToByte
 532              	.LVL46:
 333:Drivers/STM32F0xx_HAL_Driver/Src/stm32f0xx_hal_rtc_ex.c ****   }
 533              		.loc 1 333 29 view .LVU184
 534 0096 2870     		strb	r0, [r5]
 535 0098 3968     		ldr	r1, [r7]
 536 009a DBE7     		b	.L18
 537              	.L21:
 538              		.align	2
 539              	.L20:
 540 009c 7F7F7F00 		.word	8355711
 541 00a0 3FFFFF00 		.word	16777023
 542 00a4 7FF7FFFF 		.word	-2177
 543              		.cfi_endproc
 544              	.LFE40:
 546              		.section	.text.HAL_RTCEx_SetTamper,"ax",%progbits
 547              		.align	1
 548              		.p2align 2,,3
 549              		.global	HAL_RTCEx_SetTamper
 550              		.syntax unified
 551              		.code	16
 552              		.thumb_func
 553              		.fpu softvfp
 555              	HAL_RTCEx_SetTamper:
 556              	.LVL47:
 557              	.LFB41:
 341:Drivers/STM32F0xx_HAL_Driver/Src/stm32f0xx_hal_rtc_ex.c **** 
 342:Drivers/STM32F0xx_HAL_Driver/Src/stm32f0xx_hal_rtc_ex.c **** /**
 343:Drivers/STM32F0xx_HAL_Driver/Src/stm32f0xx_hal_rtc_ex.c ****   * @brief  Set Tamper
 344:Drivers/STM32F0xx_HAL_Driver/Src/stm32f0xx_hal_rtc_ex.c ****   * @note   By calling this API we disable the tamper interrupt for all tampers.
 345:Drivers/STM32F0xx_HAL_Driver/Src/stm32f0xx_hal_rtc_ex.c ****   * @param  hrtc RTC handle
 346:Drivers/STM32F0xx_HAL_Driver/Src/stm32f0xx_hal_rtc_ex.c ****   * @param  sTamper Pointer to Tamper Structure.
 347:Drivers/STM32F0xx_HAL_Driver/Src/stm32f0xx_hal_rtc_ex.c ****   * @retval HAL status
 348:Drivers/STM32F0xx_HAL_Driver/Src/stm32f0xx_hal_rtc_ex.c ****   */
 349:Drivers/STM32F0xx_HAL_Driver/Src/stm32f0xx_hal_rtc_ex.c **** HAL_StatusTypeDef HAL_RTCEx_SetTamper(RTC_HandleTypeDef *hrtc, RTC_TamperTypeDef* sTamper)
 350:Drivers/STM32F0xx_HAL_Driver/Src/stm32f0xx_hal_rtc_ex.c **** {
 558              		.loc 1 350 1 is_stmt 1 view -0
 559              		.cfi_startproc
 560              		@ args = 0, pretend = 0, frame = 0
 561              		@ frame_needed = 0, uses_anonymous_args = 0
 351:Drivers/STM32F0xx_HAL_Driver/Src/stm32f0xx_hal_rtc_ex.c ****   uint32_t tmpreg = 0U;
 562              		.loc 1 351 3 view .LVU186
 352:Drivers/STM32F0xx_HAL_Driver/Src/stm32f0xx_hal_rtc_ex.c **** 
 353:Drivers/STM32F0xx_HAL_Driver/Src/stm32f0xx_hal_rtc_ex.c ****   /* Check the parameters */
 354:Drivers/STM32F0xx_HAL_Driver/Src/stm32f0xx_hal_rtc_ex.c ****   assert_param(IS_RTC_TAMPER(sTamper->Tamper));
 563              		.loc 1 354 3 view .LVU187
 355:Drivers/STM32F0xx_HAL_Driver/Src/stm32f0xx_hal_rtc_ex.c ****   assert_param(IS_RTC_TAMPER_TRIGGER(sTamper->Trigger));
 564              		.loc 1 355 3 view .LVU188
 356:Drivers/STM32F0xx_HAL_Driver/Src/stm32f0xx_hal_rtc_ex.c ****   assert_param(IS_RTC_TAMPER_FILTER(sTamper->Filter));
 565              		.loc 1 356 3 view .LVU189
 357:Drivers/STM32F0xx_HAL_Driver/Src/stm32f0xx_hal_rtc_ex.c ****   assert_param(IS_RTC_TAMPER_SAMPLING_FREQ(sTamper->SamplingFrequency));
 566              		.loc 1 357 3 view .LVU190
ARM GAS  /var/folders/vr/85797ndx6jd_r3n_lsprlrj40000gn/T//ccBlM6ZE.s 			page 18


 358:Drivers/STM32F0xx_HAL_Driver/Src/stm32f0xx_hal_rtc_ex.c ****   assert_param(IS_RTC_TAMPER_PRECHARGE_DURATION(sTamper->PrechargeDuration));
 567              		.loc 1 358 3 view .LVU191
 359:Drivers/STM32F0xx_HAL_Driver/Src/stm32f0xx_hal_rtc_ex.c ****   assert_param(IS_RTC_TAMPER_PULLUP_STATE(sTamper->TamperPullUp));
 568              		.loc 1 359 3 view .LVU192
 360:Drivers/STM32F0xx_HAL_Driver/Src/stm32f0xx_hal_rtc_ex.c ****   assert_param(IS_RTC_TAMPER_TIMESTAMPONTAMPER_DETECTION(sTamper->TimeStampOnTamperDetection));
 569              		.loc 1 360 3 view .LVU193
 361:Drivers/STM32F0xx_HAL_Driver/Src/stm32f0xx_hal_rtc_ex.c **** 
 362:Drivers/STM32F0xx_HAL_Driver/Src/stm32f0xx_hal_rtc_ex.c ****   /* Process Locked */
 363:Drivers/STM32F0xx_HAL_Driver/Src/stm32f0xx_hal_rtc_ex.c ****   __HAL_LOCK(hrtc);
 570              		.loc 1 363 3 view .LVU194
 571              		.loc 1 363 3 view .LVU195
 350:Drivers/STM32F0xx_HAL_Driver/Src/stm32f0xx_hal_rtc_ex.c ****   uint32_t tmpreg = 0U;
 572              		.loc 1 350 1 is_stmt 0 view .LVU196
 573 0000 70B5     		push	{r4, r5, r6, lr}
 574              	.LCFI4:
 575              		.cfi_def_cfa_offset 16
 576              		.cfi_offset 4, -16
 577              		.cfi_offset 5, -12
 578              		.cfi_offset 6, -8
 579              		.cfi_offset 14, -4
 580              		.loc 1 363 3 view .LVU197
 581 0002 037F     		ldrb	r3, [r0, #28]
 582 0004 012B     		cmp	r3, #1
 583 0006 26D0     		beq	.L25
 584              		.loc 1 363 3 is_stmt 1 discriminator 2 view .LVU198
 585 0008 0123     		movs	r3, #1
 586 000a 0A68     		ldr	r2, [r1]
 364:Drivers/STM32F0xx_HAL_Driver/Src/stm32f0xx_hal_rtc_ex.c **** 
 365:Drivers/STM32F0xx_HAL_Driver/Src/stm32f0xx_hal_rtc_ex.c ****   hrtc->State = HAL_RTC_STATE_BUSY;
 366:Drivers/STM32F0xx_HAL_Driver/Src/stm32f0xx_hal_rtc_ex.c **** 
 367:Drivers/STM32F0xx_HAL_Driver/Src/stm32f0xx_hal_rtc_ex.c ****   if(sTamper->Trigger != RTC_TAMPERTRIGGER_RISINGEDGE)
 587              		.loc 1 367 13 is_stmt 0 discriminator 2 view .LVU199
 588 000c 4C68     		ldr	r4, [r1, #4]
 363:Drivers/STM32F0xx_HAL_Driver/Src/stm32f0xx_hal_rtc_ex.c **** 
 589              		.loc 1 363 3 discriminator 2 view .LVU200
 590 000e 0377     		strb	r3, [r0, #28]
 365:Drivers/STM32F0xx_HAL_Driver/Src/stm32f0xx_hal_rtc_ex.c **** 
 591              		.loc 1 365 3 is_stmt 1 discriminator 2 view .LVU201
 365:Drivers/STM32F0xx_HAL_Driver/Src/stm32f0xx_hal_rtc_ex.c **** 
 592              		.loc 1 365 15 is_stmt 0 discriminator 2 view .LVU202
 593 0010 0133     		adds	r3, r3, #1
 594 0012 4377     		strb	r3, [r0, #29]
 595              		.loc 1 367 3 is_stmt 1 discriminator 2 view .LVU203
 596 0014 5600     		lsls	r6, r2, #1
 597              		.loc 1 367 5 is_stmt 0 discriminator 2 view .LVU204
 598 0016 002C     		cmp	r4, #0
 599 0018 1AD1     		bne	.L29
 600              	.L24:
 368:Drivers/STM32F0xx_HAL_Driver/Src/stm32f0xx_hal_rtc_ex.c ****   {
 369:Drivers/STM32F0xx_HAL_Driver/Src/stm32f0xx_hal_rtc_ex.c ****     sTamper->Trigger = (uint32_t)(sTamper->Tamper << 1U);
 370:Drivers/STM32F0xx_HAL_Driver/Src/stm32f0xx_hal_rtc_ex.c ****   }
 371:Drivers/STM32F0xx_HAL_Driver/Src/stm32f0xx_hal_rtc_ex.c **** 
 372:Drivers/STM32F0xx_HAL_Driver/Src/stm32f0xx_hal_rtc_ex.c ****   tmpreg = ((uint32_t)sTamper->Tamper | (uint32_t)sTamper->Trigger | (uint32_t)sTamper->Filter |\
 601              		.loc 1 372 3 is_stmt 1 view .LVU205
 602 001a 8B68     		ldr	r3, [r1, #8]
 603 001c CD68     		ldr	r5, [r1, #12]
 604 001e 1343     		orrs	r3, r2
ARM GAS  /var/folders/vr/85797ndx6jd_r3n_lsprlrj40000gn/T//ccBlM6ZE.s 			page 19


 605 0020 2B43     		orrs	r3, r5
 606 0022 0D69     		ldr	r5, [r1, #16]
 373:Drivers/STM32F0xx_HAL_Driver/Src/stm32f0xx_hal_rtc_ex.c ****             (uint32_t)sTamper->SamplingFrequency | (uint32_t)sTamper->PrechargeDuration |\
 374:Drivers/STM32F0xx_HAL_Driver/Src/stm32f0xx_hal_rtc_ex.c ****             (uint32_t)sTamper->TamperPullUp | sTamper->TimeStampOnTamperDetection);
 375:Drivers/STM32F0xx_HAL_Driver/Src/stm32f0xx_hal_rtc_ex.c **** 
 376:Drivers/STM32F0xx_HAL_Driver/Src/stm32f0xx_hal_rtc_ex.c ****   hrtc->Instance->TAFCR &= (uint32_t)~((uint32_t)sTamper->Tamper | (uint32_t)(sTamper->Tamper << 1U
 607              		.loc 1 376 66 is_stmt 0 view .LVU206
 608 0024 3243     		orrs	r2, r6
 609 0026 2B43     		orrs	r3, r5
 610 0028 4D69     		ldr	r5, [r1, #20]
 611 002a 8969     		ldr	r1, [r1, #24]
 612              	.LVL48:
 613              		.loc 1 376 66 view .LVU207
 614 002c 2B43     		orrs	r3, r5
 615 002e 0B43     		orrs	r3, r1
 616              	.LVL49:
 617              		.loc 1 376 3 is_stmt 1 view .LVU208
 618              		.loc 1 376 7 is_stmt 0 view .LVU209
 619 0030 0168     		ldr	r1, [r0]
 620              	.LVL50:
 377:Drivers/STM32F0xx_HAL_Driver/Src/stm32f0xx_hal_rtc_ex.c ****                                        (uint32_t)RTC_TAFCR_TAMPFREQ | (uint32_t)RTC_TAFCR_TAMPFLT |
 378:Drivers/STM32F0xx_HAL_Driver/Src/stm32f0xx_hal_rtc_ex.c ****                                        (uint32_t)RTC_TAFCR_TAMPPUDIS | (uint32_t)RTC_TAFCR_TAMPIE);
 621              		.loc 1 378 70 view .LVU210
 622 0032 0A4E     		ldr	r6, .L30
 376:Drivers/STM32F0xx_HAL_Driver/Src/stm32f0xx_hal_rtc_ex.c ****                                        (uint32_t)RTC_TAFCR_TAMPFREQ | (uint32_t)RTC_TAFCR_TAMPFLT |
 623              		.loc 1 376 25 view .LVU211
 624 0034 0D6C     		ldr	r5, [r1, #64]
 625              	.LVL51:
 626              		.loc 1 378 70 view .LVU212
 627 0036 3243     		orrs	r2, r6
 376:Drivers/STM32F0xx_HAL_Driver/Src/stm32f0xx_hal_rtc_ex.c ****                                        (uint32_t)RTC_TAFCR_TAMPFREQ | (uint32_t)RTC_TAFCR_TAMPFLT |
 628              		.loc 1 376 25 view .LVU213
 629 0038 9543     		bics	r5, r2
 630 003a 0D64     		str	r5, [r1, #64]
 379:Drivers/STM32F0xx_HAL_Driver/Src/stm32f0xx_hal_rtc_ex.c **** 
 380:Drivers/STM32F0xx_HAL_Driver/Src/stm32f0xx_hal_rtc_ex.c ****   hrtc->Instance->TAFCR |= tmpreg;
 631              		.loc 1 380 3 is_stmt 1 view .LVU214
 632              		.loc 1 380 25 is_stmt 0 view .LVU215
 633 003c 0A6C     		ldr	r2, [r1, #64]
 634 003e 1343     		orrs	r3, r2
 635 0040 2343     		orrs	r3, r4
 636 0042 0B64     		str	r3, [r1, #64]
 381:Drivers/STM32F0xx_HAL_Driver/Src/stm32f0xx_hal_rtc_ex.c ****   
 382:Drivers/STM32F0xx_HAL_Driver/Src/stm32f0xx_hal_rtc_ex.c ****   hrtc->State = HAL_RTC_STATE_READY; 
 637              		.loc 1 382 3 is_stmt 1 view .LVU216
 638              		.loc 1 382 15 is_stmt 0 view .LVU217
 639 0044 0123     		movs	r3, #1
 640 0046 4377     		strb	r3, [r0, #29]
 383:Drivers/STM32F0xx_HAL_Driver/Src/stm32f0xx_hal_rtc_ex.c **** 
 384:Drivers/STM32F0xx_HAL_Driver/Src/stm32f0xx_hal_rtc_ex.c ****   /* Process Unlocked */
 385:Drivers/STM32F0xx_HAL_Driver/Src/stm32f0xx_hal_rtc_ex.c ****   __HAL_UNLOCK(hrtc);
 641              		.loc 1 385 3 is_stmt 1 view .LVU218
 642              		.loc 1 385 3 view .LVU219
 643 0048 0023     		movs	r3, #0
 644 004a 0377     		strb	r3, [r0, #28]
 386:Drivers/STM32F0xx_HAL_Driver/Src/stm32f0xx_hal_rtc_ex.c **** 
 387:Drivers/STM32F0xx_HAL_Driver/Src/stm32f0xx_hal_rtc_ex.c ****   return HAL_OK;
ARM GAS  /var/folders/vr/85797ndx6jd_r3n_lsprlrj40000gn/T//ccBlM6ZE.s 			page 20


 645              		.loc 1 387 3 view .LVU220
 646              		.loc 1 387 10 is_stmt 0 view .LVU221
 647 004c 0020     		movs	r0, #0
 648              	.LVL52:
 649              	.L23:
 388:Drivers/STM32F0xx_HAL_Driver/Src/stm32f0xx_hal_rtc_ex.c **** }
 650              		.loc 1 388 1 view .LVU222
 651              		@ sp needed
 652 004e 70BD     		pop	{r4, r5, r6, pc}
 653              	.LVL53:
 654              	.L29:
 369:Drivers/STM32F0xx_HAL_Driver/Src/stm32f0xx_hal_rtc_ex.c ****   }
 655              		.loc 1 369 5 is_stmt 1 view .LVU223
 369:Drivers/STM32F0xx_HAL_Driver/Src/stm32f0xx_hal_rtc_ex.c ****   }
 656              		.loc 1 369 22 is_stmt 0 view .LVU224
 657 0050 4E60     		str	r6, [r1, #4]
 658 0052 3400     		movs	r4, r6
 659 0054 E1E7     		b	.L24
 660              	.L25:
 363:Drivers/STM32F0xx_HAL_Driver/Src/stm32f0xx_hal_rtc_ex.c **** 
 661              		.loc 1 363 3 view .LVU225
 662 0056 0220     		movs	r0, #2
 663              	.LVL54:
 363:Drivers/STM32F0xx_HAL_Driver/Src/stm32f0xx_hal_rtc_ex.c **** 
 664              		.loc 1 363 3 view .LVU226
 665 0058 F9E7     		b	.L23
 666              	.L31:
 667 005a C046     		.align	2
 668              	.L30:
 669 005c 84FF0000 		.word	65412
 670              		.cfi_endproc
 671              	.LFE41:
 673              		.section	.text.HAL_RTCEx_SetTamper_IT,"ax",%progbits
 674              		.align	1
 675              		.p2align 2,,3
 676              		.global	HAL_RTCEx_SetTamper_IT
 677              		.syntax unified
 678              		.code	16
 679              		.thumb_func
 680              		.fpu softvfp
 682              	HAL_RTCEx_SetTamper_IT:
 683              	.LVL55:
 684              	.LFB42:
 389:Drivers/STM32F0xx_HAL_Driver/Src/stm32f0xx_hal_rtc_ex.c **** 
 390:Drivers/STM32F0xx_HAL_Driver/Src/stm32f0xx_hal_rtc_ex.c **** /**
 391:Drivers/STM32F0xx_HAL_Driver/Src/stm32f0xx_hal_rtc_ex.c ****   * @brief  Sets Tamper with interrupt.
 392:Drivers/STM32F0xx_HAL_Driver/Src/stm32f0xx_hal_rtc_ex.c ****   * @note   By calling this API we force the tamper interrupt for all tampers.
 393:Drivers/STM32F0xx_HAL_Driver/Src/stm32f0xx_hal_rtc_ex.c ****   * @param  hrtc pointer to a RTC_HandleTypeDef structure that contains
 394:Drivers/STM32F0xx_HAL_Driver/Src/stm32f0xx_hal_rtc_ex.c ****   *                the configuration information for RTC.
 395:Drivers/STM32F0xx_HAL_Driver/Src/stm32f0xx_hal_rtc_ex.c ****   * @param  sTamper Pointer to RTC Tamper.
 396:Drivers/STM32F0xx_HAL_Driver/Src/stm32f0xx_hal_rtc_ex.c ****   * @retval HAL status
 397:Drivers/STM32F0xx_HAL_Driver/Src/stm32f0xx_hal_rtc_ex.c ****   */
 398:Drivers/STM32F0xx_HAL_Driver/Src/stm32f0xx_hal_rtc_ex.c **** HAL_StatusTypeDef HAL_RTCEx_SetTamper_IT(RTC_HandleTypeDef *hrtc, RTC_TamperTypeDef* sTamper)
 399:Drivers/STM32F0xx_HAL_Driver/Src/stm32f0xx_hal_rtc_ex.c **** {
 685              		.loc 1 399 1 is_stmt 1 view -0
 686              		.cfi_startproc
 687              		@ args = 0, pretend = 0, frame = 0
ARM GAS  /var/folders/vr/85797ndx6jd_r3n_lsprlrj40000gn/T//ccBlM6ZE.s 			page 21


 688              		@ frame_needed = 0, uses_anonymous_args = 0
 400:Drivers/STM32F0xx_HAL_Driver/Src/stm32f0xx_hal_rtc_ex.c ****   uint32_t tmpreg = 0U;
 689              		.loc 1 400 3 view .LVU228
 401:Drivers/STM32F0xx_HAL_Driver/Src/stm32f0xx_hal_rtc_ex.c **** 
 402:Drivers/STM32F0xx_HAL_Driver/Src/stm32f0xx_hal_rtc_ex.c ****   /* Check the parameters */
 403:Drivers/STM32F0xx_HAL_Driver/Src/stm32f0xx_hal_rtc_ex.c ****   assert_param(IS_RTC_TAMPER(sTamper->Tamper)); 
 690              		.loc 1 403 3 view .LVU229
 404:Drivers/STM32F0xx_HAL_Driver/Src/stm32f0xx_hal_rtc_ex.c ****   assert_param(IS_RTC_TAMPER_TRIGGER(sTamper->Trigger));
 691              		.loc 1 404 3 view .LVU230
 405:Drivers/STM32F0xx_HAL_Driver/Src/stm32f0xx_hal_rtc_ex.c ****   assert_param(IS_RTC_TAMPER_FILTER(sTamper->Filter));
 692              		.loc 1 405 3 view .LVU231
 406:Drivers/STM32F0xx_HAL_Driver/Src/stm32f0xx_hal_rtc_ex.c ****   assert_param(IS_RTC_TAMPER_SAMPLING_FREQ(sTamper->SamplingFrequency));
 693              		.loc 1 406 3 view .LVU232
 407:Drivers/STM32F0xx_HAL_Driver/Src/stm32f0xx_hal_rtc_ex.c ****   assert_param(IS_RTC_TAMPER_PRECHARGE_DURATION(sTamper->PrechargeDuration));
 694              		.loc 1 407 3 view .LVU233
 408:Drivers/STM32F0xx_HAL_Driver/Src/stm32f0xx_hal_rtc_ex.c ****   assert_param(IS_RTC_TAMPER_PULLUP_STATE(sTamper->TamperPullUp));
 695              		.loc 1 408 3 view .LVU234
 409:Drivers/STM32F0xx_HAL_Driver/Src/stm32f0xx_hal_rtc_ex.c ****   assert_param(IS_RTC_TAMPER_TIMESTAMPONTAMPER_DETECTION(sTamper->TimeStampOnTamperDetection));
 696              		.loc 1 409 3 view .LVU235
 410:Drivers/STM32F0xx_HAL_Driver/Src/stm32f0xx_hal_rtc_ex.c **** 
 411:Drivers/STM32F0xx_HAL_Driver/Src/stm32f0xx_hal_rtc_ex.c ****   /* Process Locked */
 412:Drivers/STM32F0xx_HAL_Driver/Src/stm32f0xx_hal_rtc_ex.c ****   __HAL_LOCK(hrtc);
 697              		.loc 1 412 3 view .LVU236
 698              		.loc 1 412 3 view .LVU237
 399:Drivers/STM32F0xx_HAL_Driver/Src/stm32f0xx_hal_rtc_ex.c ****   uint32_t tmpreg = 0U;
 699              		.loc 1 399 1 is_stmt 0 view .LVU238
 700 0000 70B5     		push	{r4, r5, r6, lr}
 701              	.LCFI5:
 702              		.cfi_def_cfa_offset 16
 703              		.cfi_offset 4, -16
 704              		.cfi_offset 5, -12
 705              		.cfi_offset 6, -8
 706              		.cfi_offset 14, -4
 707              		.loc 1 412 3 view .LVU239
 708 0002 037F     		ldrb	r3, [r0, #28]
 709 0004 012B     		cmp	r3, #1
 710 0006 33D0     		beq	.L35
 711              		.loc 1 412 3 is_stmt 1 discriminator 2 view .LVU240
 712 0008 0123     		movs	r3, #1
 713 000a 0C68     		ldr	r4, [r1]
 413:Drivers/STM32F0xx_HAL_Driver/Src/stm32f0xx_hal_rtc_ex.c **** 
 414:Drivers/STM32F0xx_HAL_Driver/Src/stm32f0xx_hal_rtc_ex.c ****   hrtc->State = HAL_RTC_STATE_BUSY;
 415:Drivers/STM32F0xx_HAL_Driver/Src/stm32f0xx_hal_rtc_ex.c **** 
 416:Drivers/STM32F0xx_HAL_Driver/Src/stm32f0xx_hal_rtc_ex.c ****   /* Configure the tamper trigger */
 417:Drivers/STM32F0xx_HAL_Driver/Src/stm32f0xx_hal_rtc_ex.c ****   if(sTamper->Trigger != RTC_TAMPERTRIGGER_RISINGEDGE)
 714              		.loc 1 417 13 is_stmt 0 discriminator 2 view .LVU241
 715 000c 4D68     		ldr	r5, [r1, #4]
 412:Drivers/STM32F0xx_HAL_Driver/Src/stm32f0xx_hal_rtc_ex.c **** 
 716              		.loc 1 412 3 discriminator 2 view .LVU242
 717 000e 0377     		strb	r3, [r0, #28]
 414:Drivers/STM32F0xx_HAL_Driver/Src/stm32f0xx_hal_rtc_ex.c **** 
 718              		.loc 1 414 3 is_stmt 1 discriminator 2 view .LVU243
 414:Drivers/STM32F0xx_HAL_Driver/Src/stm32f0xx_hal_rtc_ex.c **** 
 719              		.loc 1 414 15 is_stmt 0 discriminator 2 view .LVU244
 720 0010 0133     		adds	r3, r3, #1
 721 0012 4377     		strb	r3, [r0, #29]
 722              		.loc 1 417 3 is_stmt 1 discriminator 2 view .LVU245
ARM GAS  /var/folders/vr/85797ndx6jd_r3n_lsprlrj40000gn/T//ccBlM6ZE.s 			page 22


 723 0014 6600     		lsls	r6, r4, #1
 724              		.loc 1 417 5 is_stmt 0 discriminator 2 view .LVU246
 725 0016 002D     		cmp	r5, #0
 726 0018 27D1     		bne	.L39
 727              	.L34:
 418:Drivers/STM32F0xx_HAL_Driver/Src/stm32f0xx_hal_rtc_ex.c ****   {
 419:Drivers/STM32F0xx_HAL_Driver/Src/stm32f0xx_hal_rtc_ex.c ****     sTamper->Trigger = (uint32_t)(sTamper->Tamper << 1U);
 420:Drivers/STM32F0xx_HAL_Driver/Src/stm32f0xx_hal_rtc_ex.c ****   }
 421:Drivers/STM32F0xx_HAL_Driver/Src/stm32f0xx_hal_rtc_ex.c **** 
 422:Drivers/STM32F0xx_HAL_Driver/Src/stm32f0xx_hal_rtc_ex.c ****   tmpreg = ((uint32_t)sTamper->Tamper | (uint32_t)sTamper->Trigger | (uint32_t)sTamper->Filter |\
 728              		.loc 1 422 3 is_stmt 1 view .LVU247
 729 001a 8B68     		ldr	r3, [r1, #8]
 730 001c CA68     		ldr	r2, [r1, #12]
 731 001e 2343     		orrs	r3, r4
 732 0020 1343     		orrs	r3, r2
 733 0022 0A69     		ldr	r2, [r1, #16]
 423:Drivers/STM32F0xx_HAL_Driver/Src/stm32f0xx_hal_rtc_ex.c ****             (uint32_t)sTamper->SamplingFrequency | (uint32_t)sTamper->PrechargeDuration |\
 424:Drivers/STM32F0xx_HAL_Driver/Src/stm32f0xx_hal_rtc_ex.c ****             (uint32_t)sTamper->TamperPullUp | sTamper->TimeStampOnTamperDetection);
 425:Drivers/STM32F0xx_HAL_Driver/Src/stm32f0xx_hal_rtc_ex.c **** 
 426:Drivers/STM32F0xx_HAL_Driver/Src/stm32f0xx_hal_rtc_ex.c ****   hrtc->Instance->TAFCR &= (uint32_t)~((uint32_t)sTamper->Tamper | (uint32_t)(sTamper->Tamper << 1U
 734              		.loc 1 426 66 is_stmt 0 view .LVU248
 735 0024 3443     		orrs	r4, r6
 736 0026 1343     		orrs	r3, r2
 737 0028 4A69     		ldr	r2, [r1, #20]
 427:Drivers/STM32F0xx_HAL_Driver/Src/stm32f0xx_hal_rtc_ex.c ****                                        (uint32_t)RTC_TAFCR_TAMPFREQ | (uint32_t)RTC_TAFCR_TAMPFLT |
 738              		.loc 1 427 130 view .LVU249
 739 002a 124E     		ldr	r6, .L40
 740 002c 1343     		orrs	r3, r2
 741 002e 8A69     		ldr	r2, [r1, #24]
 742 0030 3443     		orrs	r4, r6
 743 0032 1343     		orrs	r3, r2
 744              	.LVL56:
 426:Drivers/STM32F0xx_HAL_Driver/Src/stm32f0xx_hal_rtc_ex.c ****                                        (uint32_t)RTC_TAFCR_TAMPFREQ | (uint32_t)RTC_TAFCR_TAMPFLT |
 745              		.loc 1 426 3 is_stmt 1 view .LVU250
 426:Drivers/STM32F0xx_HAL_Driver/Src/stm32f0xx_hal_rtc_ex.c ****                                        (uint32_t)RTC_TAFCR_TAMPFREQ | (uint32_t)RTC_TAFCR_TAMPFLT |
 746              		.loc 1 426 7 is_stmt 0 view .LVU251
 747 0034 0268     		ldr	r2, [r0]
 748              	.LVL57:
 426:Drivers/STM32F0xx_HAL_Driver/Src/stm32f0xx_hal_rtc_ex.c ****                                        (uint32_t)RTC_TAFCR_TAMPFREQ | (uint32_t)RTC_TAFCR_TAMPFLT |
 749              		.loc 1 426 25 view .LVU252
 750 0036 116C     		ldr	r1, [r2, #64]
 751              	.LVL58:
 426:Drivers/STM32F0xx_HAL_Driver/Src/stm32f0xx_hal_rtc_ex.c ****                                        (uint32_t)RTC_TAFCR_TAMPFREQ | (uint32_t)RTC_TAFCR_TAMPFLT |
 752              		.loc 1 426 25 view .LVU253
 753 0038 A143     		bics	r1, r4
 754 003a 1164     		str	r1, [r2, #64]
 428:Drivers/STM32F0xx_HAL_Driver/Src/stm32f0xx_hal_rtc_ex.c ****                                        (uint32_t)RTC_TAFCR_TAMPPUDIS);
 429:Drivers/STM32F0xx_HAL_Driver/Src/stm32f0xx_hal_rtc_ex.c **** 
 430:Drivers/STM32F0xx_HAL_Driver/Src/stm32f0xx_hal_rtc_ex.c ****   hrtc->Instance->TAFCR |= tmpreg;
 755              		.loc 1 430 3 is_stmt 1 view .LVU254
 756              		.loc 1 430 25 is_stmt 0 view .LVU255
 757 003c 116C     		ldr	r1, [r2, #64]
 758 003e 0B43     		orrs	r3, r1
 431:Drivers/STM32F0xx_HAL_Driver/Src/stm32f0xx_hal_rtc_ex.c **** 
 432:Drivers/STM32F0xx_HAL_Driver/Src/stm32f0xx_hal_rtc_ex.c ****   /* Configure the Tamper Interrupt in the RTC_TAFCR */
 433:Drivers/STM32F0xx_HAL_Driver/Src/stm32f0xx_hal_rtc_ex.c ****   hrtc->Instance->TAFCR |= (uint32_t)RTC_TAFCR_TAMPIE;
 759              		.loc 1 433 25 view .LVU256
ARM GAS  /var/folders/vr/85797ndx6jd_r3n_lsprlrj40000gn/T//ccBlM6ZE.s 			page 23


 760 0040 0421     		movs	r1, #4
 430:Drivers/STM32F0xx_HAL_Driver/Src/stm32f0xx_hal_rtc_ex.c **** 
 761              		.loc 1 430 25 view .LVU257
 762 0042 2B43     		orrs	r3, r5
 763 0044 1364     		str	r3, [r2, #64]
 764              		.loc 1 433 3 is_stmt 1 view .LVU258
 765              		.loc 1 433 25 is_stmt 0 view .LVU259
 766 0046 136C     		ldr	r3, [r2, #64]
 767 0048 0B43     		orrs	r3, r1
 768 004a 1364     		str	r3, [r2, #64]
 434:Drivers/STM32F0xx_HAL_Driver/Src/stm32f0xx_hal_rtc_ex.c **** 
 435:Drivers/STM32F0xx_HAL_Driver/Src/stm32f0xx_hal_rtc_ex.c ****   /* RTC Tamper Interrupt Configuration: EXTI configuration */
 436:Drivers/STM32F0xx_HAL_Driver/Src/stm32f0xx_hal_rtc_ex.c ****   __HAL_RTC_TAMPER_TIMESTAMP_EXTI_ENABLE_IT();
 769              		.loc 1 436 3 is_stmt 1 view .LVU260
 770 004c 8022     		movs	r2, #128
 771 004e 0A4B     		ldr	r3, .L40+4
 772 0050 1203     		lsls	r2, r2, #12
 773 0052 1968     		ldr	r1, [r3]
 774 0054 1143     		orrs	r1, r2
 775 0056 1960     		str	r1, [r3]
 776              	.LVL59:
 437:Drivers/STM32F0xx_HAL_Driver/Src/stm32f0xx_hal_rtc_ex.c ****   
 438:Drivers/STM32F0xx_HAL_Driver/Src/stm32f0xx_hal_rtc_ex.c ****   __HAL_RTC_TAMPER_TIMESTAMP_EXTI_ENABLE_RISING_EDGE();
 777              		.loc 1 438 3 view .LVU261
 778 0058 9968     		ldr	r1, [r3, #8]
 779 005a 0A43     		orrs	r2, r1
 780 005c 9A60     		str	r2, [r3, #8]
 439:Drivers/STM32F0xx_HAL_Driver/Src/stm32f0xx_hal_rtc_ex.c **** 
 440:Drivers/STM32F0xx_HAL_Driver/Src/stm32f0xx_hal_rtc_ex.c ****   hrtc->State = HAL_RTC_STATE_READY;
 781              		.loc 1 440 3 view .LVU262
 782              		.loc 1 440 15 is_stmt 0 view .LVU263
 783 005e 0123     		movs	r3, #1
 784 0060 4377     		strb	r3, [r0, #29]
 441:Drivers/STM32F0xx_HAL_Driver/Src/stm32f0xx_hal_rtc_ex.c **** 
 442:Drivers/STM32F0xx_HAL_Driver/Src/stm32f0xx_hal_rtc_ex.c ****   /* Process Unlocked */
 443:Drivers/STM32F0xx_HAL_Driver/Src/stm32f0xx_hal_rtc_ex.c ****   __HAL_UNLOCK(hrtc);
 785              		.loc 1 443 3 is_stmt 1 view .LVU264
 786              		.loc 1 443 3 view .LVU265
 787 0062 0023     		movs	r3, #0
 788 0064 0377     		strb	r3, [r0, #28]
 444:Drivers/STM32F0xx_HAL_Driver/Src/stm32f0xx_hal_rtc_ex.c **** 
 445:Drivers/STM32F0xx_HAL_Driver/Src/stm32f0xx_hal_rtc_ex.c ****   return HAL_OK;
 789              		.loc 1 445 3 view .LVU266
 790              		.loc 1 445 10 is_stmt 0 view .LVU267
 791 0066 0020     		movs	r0, #0
 792              	.LVL60:
 793              	.L33:
 446:Drivers/STM32F0xx_HAL_Driver/Src/stm32f0xx_hal_rtc_ex.c **** }
 794              		.loc 1 446 1 view .LVU268
 795              		@ sp needed
 796 0068 70BD     		pop	{r4, r5, r6, pc}
 797              	.LVL61:
 798              	.L39:
 419:Drivers/STM32F0xx_HAL_Driver/Src/stm32f0xx_hal_rtc_ex.c ****   }
 799              		.loc 1 419 5 is_stmt 1 view .LVU269
 419:Drivers/STM32F0xx_HAL_Driver/Src/stm32f0xx_hal_rtc_ex.c ****   }
 800              		.loc 1 419 22 is_stmt 0 view .LVU270
ARM GAS  /var/folders/vr/85797ndx6jd_r3n_lsprlrj40000gn/T//ccBlM6ZE.s 			page 24


 801 006a 4E60     		str	r6, [r1, #4]
 802 006c 3500     		movs	r5, r6
 803 006e D4E7     		b	.L34
 804              	.L35:
 412:Drivers/STM32F0xx_HAL_Driver/Src/stm32f0xx_hal_rtc_ex.c **** 
 805              		.loc 1 412 3 view .LVU271
 806 0070 0220     		movs	r0, #2
 807              	.LVL62:
 412:Drivers/STM32F0xx_HAL_Driver/Src/stm32f0xx_hal_rtc_ex.c **** 
 808              		.loc 1 412 3 view .LVU272
 809 0072 F9E7     		b	.L33
 810              	.L41:
 811              		.align	2
 812              	.L40:
 813 0074 80FF0000 		.word	65408
 814 0078 00040140 		.word	1073808384
 815              		.cfi_endproc
 816              	.LFE42:
 818              		.section	.text.HAL_RTCEx_DeactivateTamper,"ax",%progbits
 819              		.align	1
 820              		.p2align 2,,3
 821              		.global	HAL_RTCEx_DeactivateTamper
 822              		.syntax unified
 823              		.code	16
 824              		.thumb_func
 825              		.fpu softvfp
 827              	HAL_RTCEx_DeactivateTamper:
 828              	.LVL63:
 829              	.LFB43:
 447:Drivers/STM32F0xx_HAL_Driver/Src/stm32f0xx_hal_rtc_ex.c **** 
 448:Drivers/STM32F0xx_HAL_Driver/Src/stm32f0xx_hal_rtc_ex.c **** /**
 449:Drivers/STM32F0xx_HAL_Driver/Src/stm32f0xx_hal_rtc_ex.c ****   * @brief  Deactivate Tamper.
 450:Drivers/STM32F0xx_HAL_Driver/Src/stm32f0xx_hal_rtc_ex.c ****   * @param  hrtc RTC handle
 451:Drivers/STM32F0xx_HAL_Driver/Src/stm32f0xx_hal_rtc_ex.c ****   * @param  Tamper Selected tamper pin.
 452:Drivers/STM32F0xx_HAL_Driver/Src/stm32f0xx_hal_rtc_ex.c ****   *          This parameter can be any combination of RTC_TAMPER_1, RTC_TAMPER_2 and RTC_TAMPER_3.
 453:Drivers/STM32F0xx_HAL_Driver/Src/stm32f0xx_hal_rtc_ex.c ****   * @retval HAL status
 454:Drivers/STM32F0xx_HAL_Driver/Src/stm32f0xx_hal_rtc_ex.c ****   */
 455:Drivers/STM32F0xx_HAL_Driver/Src/stm32f0xx_hal_rtc_ex.c **** HAL_StatusTypeDef HAL_RTCEx_DeactivateTamper(RTC_HandleTypeDef *hrtc, uint32_t Tamper)
 456:Drivers/STM32F0xx_HAL_Driver/Src/stm32f0xx_hal_rtc_ex.c **** {
 830              		.loc 1 456 1 is_stmt 1 view -0
 831              		.cfi_startproc
 832              		@ args = 0, pretend = 0, frame = 0
 833              		@ frame_needed = 0, uses_anonymous_args = 0
 834              		@ link register save eliminated.
 457:Drivers/STM32F0xx_HAL_Driver/Src/stm32f0xx_hal_rtc_ex.c ****   assert_param(IS_RTC_TAMPER(Tamper));
 835              		.loc 1 457 3 view .LVU274
 458:Drivers/STM32F0xx_HAL_Driver/Src/stm32f0xx_hal_rtc_ex.c **** 
 459:Drivers/STM32F0xx_HAL_Driver/Src/stm32f0xx_hal_rtc_ex.c ****   /* Process Locked */
 460:Drivers/STM32F0xx_HAL_Driver/Src/stm32f0xx_hal_rtc_ex.c ****   __HAL_LOCK(hrtc);
 836              		.loc 1 460 3 view .LVU275
 837              		.loc 1 460 3 view .LVU276
 838 0000 037F     		ldrb	r3, [r0, #28]
 839 0002 012B     		cmp	r3, #1
 840 0004 0BD0     		beq	.L44
 841              		.loc 1 460 3 discriminator 2 view .LVU277
 461:Drivers/STM32F0xx_HAL_Driver/Src/stm32f0xx_hal_rtc_ex.c **** 
 462:Drivers/STM32F0xx_HAL_Driver/Src/stm32f0xx_hal_rtc_ex.c ****   hrtc->State = HAL_RTC_STATE_BUSY;
ARM GAS  /var/folders/vr/85797ndx6jd_r3n_lsprlrj40000gn/T//ccBlM6ZE.s 			page 25


 842              		.loc 1 462 3 discriminator 2 view .LVU278
 843              		.loc 1 462 15 is_stmt 0 discriminator 2 view .LVU279
 844 0006 0223     		movs	r3, #2
 463:Drivers/STM32F0xx_HAL_Driver/Src/stm32f0xx_hal_rtc_ex.c **** 
 464:Drivers/STM32F0xx_HAL_Driver/Src/stm32f0xx_hal_rtc_ex.c ****   /* Disable the selected Tamper pin */
 465:Drivers/STM32F0xx_HAL_Driver/Src/stm32f0xx_hal_rtc_ex.c ****   hrtc->Instance->TAFCR &= (uint32_t)~Tamper;
 845              		.loc 1 465 7 discriminator 2 view .LVU280
 846 0008 0268     		ldr	r2, [r0]
 462:Drivers/STM32F0xx_HAL_Driver/Src/stm32f0xx_hal_rtc_ex.c **** 
 847              		.loc 1 462 15 discriminator 2 view .LVU281
 848 000a 4377     		strb	r3, [r0, #29]
 849              		.loc 1 465 3 is_stmt 1 discriminator 2 view .LVU282
 850              		.loc 1 465 25 is_stmt 0 discriminator 2 view .LVU283
 851 000c 136C     		ldr	r3, [r2, #64]
 852 000e 8B43     		bics	r3, r1
 853 0010 1364     		str	r3, [r2, #64]
 466:Drivers/STM32F0xx_HAL_Driver/Src/stm32f0xx_hal_rtc_ex.c **** 
 467:Drivers/STM32F0xx_HAL_Driver/Src/stm32f0xx_hal_rtc_ex.c ****   hrtc->State = HAL_RTC_STATE_READY;
 854              		.loc 1 467 3 is_stmt 1 discriminator 2 view .LVU284
 855              		.loc 1 467 15 is_stmt 0 discriminator 2 view .LVU285
 856 0012 0123     		movs	r3, #1
 857 0014 4377     		strb	r3, [r0, #29]
 468:Drivers/STM32F0xx_HAL_Driver/Src/stm32f0xx_hal_rtc_ex.c **** 
 469:Drivers/STM32F0xx_HAL_Driver/Src/stm32f0xx_hal_rtc_ex.c ****   /* Process Unlocked */
 470:Drivers/STM32F0xx_HAL_Driver/Src/stm32f0xx_hal_rtc_ex.c ****   __HAL_UNLOCK(hrtc);
 858              		.loc 1 470 3 is_stmt 1 discriminator 2 view .LVU286
 859              		.loc 1 470 3 discriminator 2 view .LVU287
 860 0016 0023     		movs	r3, #0
 861 0018 0377     		strb	r3, [r0, #28]
 471:Drivers/STM32F0xx_HAL_Driver/Src/stm32f0xx_hal_rtc_ex.c **** 
 472:Drivers/STM32F0xx_HAL_Driver/Src/stm32f0xx_hal_rtc_ex.c ****   return HAL_OK;
 862              		.loc 1 472 3 discriminator 2 view .LVU288
 863              		.loc 1 472 10 is_stmt 0 discriminator 2 view .LVU289
 864 001a 0020     		movs	r0, #0
 865              	.LVL64:
 866              	.L43:
 473:Drivers/STM32F0xx_HAL_Driver/Src/stm32f0xx_hal_rtc_ex.c **** }
 867              		.loc 1 473 1 view .LVU290
 868              		@ sp needed
 869 001c 7047     		bx	lr
 870              	.LVL65:
 871              	.L44:
 460:Drivers/STM32F0xx_HAL_Driver/Src/stm32f0xx_hal_rtc_ex.c **** 
 872              		.loc 1 460 3 view .LVU291
 873 001e 0220     		movs	r0, #2
 874              	.LVL66:
 460:Drivers/STM32F0xx_HAL_Driver/Src/stm32f0xx_hal_rtc_ex.c **** 
 875              		.loc 1 460 3 view .LVU292
 876 0020 FCE7     		b	.L43
 877              		.cfi_endproc
 878              	.LFE43:
 880 0022 C046     		.section	.text.HAL_RTCEx_TimeStampEventCallback,"ax",%progbits
 881              		.align	1
 882              		.p2align 2,,3
 883              		.weak	HAL_RTCEx_TimeStampEventCallback
 884              		.syntax unified
 885              		.code	16
ARM GAS  /var/folders/vr/85797ndx6jd_r3n_lsprlrj40000gn/T//ccBlM6ZE.s 			page 26


 886              		.thumb_func
 887              		.fpu softvfp
 889              	HAL_RTCEx_TimeStampEventCallback:
 890              	.LFB69:
 891              		.cfi_startproc
 892              		@ args = 0, pretend = 0, frame = 0
 893              		@ frame_needed = 0, uses_anonymous_args = 0
 894              		@ link register save eliminated.
 895              		@ sp needed
 896 0000 7047     		bx	lr
 897              		.cfi_endproc
 898              	.LFE69:
 900 0002 C046     		.section	.text.HAL_RTCEx_Tamper1EventCallback,"ax",%progbits
 901              		.align	1
 902              		.p2align 2,,3
 903              		.weak	HAL_RTCEx_Tamper1EventCallback
 904              		.syntax unified
 905              		.code	16
 906              		.thumb_func
 907              		.fpu softvfp
 909              	HAL_RTCEx_Tamper1EventCallback:
 910              	.LVL67:
 911              	.LFB46:
 474:Drivers/STM32F0xx_HAL_Driver/Src/stm32f0xx_hal_rtc_ex.c **** 
 475:Drivers/STM32F0xx_HAL_Driver/Src/stm32f0xx_hal_rtc_ex.c **** /**
 476:Drivers/STM32F0xx_HAL_Driver/Src/stm32f0xx_hal_rtc_ex.c ****   * @brief  Handle TimeStamp interrupt request.
 477:Drivers/STM32F0xx_HAL_Driver/Src/stm32f0xx_hal_rtc_ex.c ****   * @param  hrtc RTC handle
 478:Drivers/STM32F0xx_HAL_Driver/Src/stm32f0xx_hal_rtc_ex.c ****   * @retval None
 479:Drivers/STM32F0xx_HAL_Driver/Src/stm32f0xx_hal_rtc_ex.c ****   */
 480:Drivers/STM32F0xx_HAL_Driver/Src/stm32f0xx_hal_rtc_ex.c **** void HAL_RTCEx_TamperTimeStampIRQHandler(RTC_HandleTypeDef *hrtc)
 481:Drivers/STM32F0xx_HAL_Driver/Src/stm32f0xx_hal_rtc_ex.c **** {  
 482:Drivers/STM32F0xx_HAL_Driver/Src/stm32f0xx_hal_rtc_ex.c ****   /* Get the TimeStamp interrupt source enable status */
 483:Drivers/STM32F0xx_HAL_Driver/Src/stm32f0xx_hal_rtc_ex.c ****   if(__HAL_RTC_TIMESTAMP_GET_IT_SOURCE(hrtc, RTC_IT_TS) != RESET)
 484:Drivers/STM32F0xx_HAL_Driver/Src/stm32f0xx_hal_rtc_ex.c ****   {
 485:Drivers/STM32F0xx_HAL_Driver/Src/stm32f0xx_hal_rtc_ex.c ****     /* Get the pending status of the TIMESTAMP Interrupt */
 486:Drivers/STM32F0xx_HAL_Driver/Src/stm32f0xx_hal_rtc_ex.c ****     if(__HAL_RTC_TIMESTAMP_GET_FLAG(hrtc, RTC_FLAG_TSF) != RESET)
 487:Drivers/STM32F0xx_HAL_Driver/Src/stm32f0xx_hal_rtc_ex.c ****     {
 488:Drivers/STM32F0xx_HAL_Driver/Src/stm32f0xx_hal_rtc_ex.c ****       /* TIMESTAMP callback */ 
 489:Drivers/STM32F0xx_HAL_Driver/Src/stm32f0xx_hal_rtc_ex.c ****       HAL_RTCEx_TimeStampEventCallback(hrtc);
 490:Drivers/STM32F0xx_HAL_Driver/Src/stm32f0xx_hal_rtc_ex.c ****       
 491:Drivers/STM32F0xx_HAL_Driver/Src/stm32f0xx_hal_rtc_ex.c ****       /* Clear the TIMESTAMP interrupt pending bit */
 492:Drivers/STM32F0xx_HAL_Driver/Src/stm32f0xx_hal_rtc_ex.c ****       __HAL_RTC_TIMESTAMP_CLEAR_FLAG(hrtc, RTC_FLAG_TSF);
 493:Drivers/STM32F0xx_HAL_Driver/Src/stm32f0xx_hal_rtc_ex.c ****     }
 494:Drivers/STM32F0xx_HAL_Driver/Src/stm32f0xx_hal_rtc_ex.c ****   }
 495:Drivers/STM32F0xx_HAL_Driver/Src/stm32f0xx_hal_rtc_ex.c **** 
 496:Drivers/STM32F0xx_HAL_Driver/Src/stm32f0xx_hal_rtc_ex.c ****   /* Get the Tamper interrupts source enable status */
 497:Drivers/STM32F0xx_HAL_Driver/Src/stm32f0xx_hal_rtc_ex.c ****   if(__HAL_RTC_TAMPER_GET_IT_SOURCE(hrtc, RTC_IT_TAMP))
 498:Drivers/STM32F0xx_HAL_Driver/Src/stm32f0xx_hal_rtc_ex.c ****   {
 499:Drivers/STM32F0xx_HAL_Driver/Src/stm32f0xx_hal_rtc_ex.c ****    /* Get the pending status of the Tamper1 Interrupt */
 500:Drivers/STM32F0xx_HAL_Driver/Src/stm32f0xx_hal_rtc_ex.c ****     if(__HAL_RTC_TAMPER_GET_FLAG(hrtc, RTC_FLAG_TAMP1F) != RESET)
 501:Drivers/STM32F0xx_HAL_Driver/Src/stm32f0xx_hal_rtc_ex.c ****     {
 502:Drivers/STM32F0xx_HAL_Driver/Src/stm32f0xx_hal_rtc_ex.c ****       /* Tamper1 callback */
 503:Drivers/STM32F0xx_HAL_Driver/Src/stm32f0xx_hal_rtc_ex.c ****       HAL_RTCEx_Tamper1EventCallback(hrtc);
 504:Drivers/STM32F0xx_HAL_Driver/Src/stm32f0xx_hal_rtc_ex.c **** 
 505:Drivers/STM32F0xx_HAL_Driver/Src/stm32f0xx_hal_rtc_ex.c ****       /* Clear the Tamper1 interrupt pending bit */
 506:Drivers/STM32F0xx_HAL_Driver/Src/stm32f0xx_hal_rtc_ex.c ****       __HAL_RTC_TAMPER_CLEAR_FLAG(hrtc, RTC_FLAG_TAMP1F);
 507:Drivers/STM32F0xx_HAL_Driver/Src/stm32f0xx_hal_rtc_ex.c ****     }
ARM GAS  /var/folders/vr/85797ndx6jd_r3n_lsprlrj40000gn/T//ccBlM6ZE.s 			page 27


 508:Drivers/STM32F0xx_HAL_Driver/Src/stm32f0xx_hal_rtc_ex.c ****   }
 509:Drivers/STM32F0xx_HAL_Driver/Src/stm32f0xx_hal_rtc_ex.c **** 
 510:Drivers/STM32F0xx_HAL_Driver/Src/stm32f0xx_hal_rtc_ex.c ****   /* Get the Tamper interrupts source enable status */
 511:Drivers/STM32F0xx_HAL_Driver/Src/stm32f0xx_hal_rtc_ex.c ****   if(__HAL_RTC_TAMPER_GET_IT_SOURCE(hrtc, RTC_IT_TAMP))
 512:Drivers/STM32F0xx_HAL_Driver/Src/stm32f0xx_hal_rtc_ex.c ****   {
 513:Drivers/STM32F0xx_HAL_Driver/Src/stm32f0xx_hal_rtc_ex.c ****    /* Get the pending status of the Tamper2 Interrupt */
 514:Drivers/STM32F0xx_HAL_Driver/Src/stm32f0xx_hal_rtc_ex.c ****     if(__HAL_RTC_TAMPER_GET_FLAG(hrtc, RTC_FLAG_TAMP2F) != RESET)
 515:Drivers/STM32F0xx_HAL_Driver/Src/stm32f0xx_hal_rtc_ex.c ****     {
 516:Drivers/STM32F0xx_HAL_Driver/Src/stm32f0xx_hal_rtc_ex.c ****       /* Tamper2 callback */
 517:Drivers/STM32F0xx_HAL_Driver/Src/stm32f0xx_hal_rtc_ex.c ****       HAL_RTCEx_Tamper2EventCallback(hrtc);
 518:Drivers/STM32F0xx_HAL_Driver/Src/stm32f0xx_hal_rtc_ex.c **** 
 519:Drivers/STM32F0xx_HAL_Driver/Src/stm32f0xx_hal_rtc_ex.c ****       /* Clear the Tamper2 interrupt pending bit */
 520:Drivers/STM32F0xx_HAL_Driver/Src/stm32f0xx_hal_rtc_ex.c ****       __HAL_RTC_TAMPER_CLEAR_FLAG(hrtc, RTC_FLAG_TAMP2F);
 521:Drivers/STM32F0xx_HAL_Driver/Src/stm32f0xx_hal_rtc_ex.c ****     }
 522:Drivers/STM32F0xx_HAL_Driver/Src/stm32f0xx_hal_rtc_ex.c ****   }
 523:Drivers/STM32F0xx_HAL_Driver/Src/stm32f0xx_hal_rtc_ex.c **** 
 524:Drivers/STM32F0xx_HAL_Driver/Src/stm32f0xx_hal_rtc_ex.c **** #if defined(STM32F071xB) || defined(STM32F072xB) || defined(STM32F078xx) || defined(STM32F091xC) ||
 525:Drivers/STM32F0xx_HAL_Driver/Src/stm32f0xx_hal_rtc_ex.c ****   /* Get the Tamper interrupts source enable status */
 526:Drivers/STM32F0xx_HAL_Driver/Src/stm32f0xx_hal_rtc_ex.c ****   if(__HAL_RTC_TAMPER_GET_IT_SOURCE(hrtc, RTC_IT_TAMP))
 527:Drivers/STM32F0xx_HAL_Driver/Src/stm32f0xx_hal_rtc_ex.c ****   {
 528:Drivers/STM32F0xx_HAL_Driver/Src/stm32f0xx_hal_rtc_ex.c ****    /* Get the pending status of the Tamper3 Interrupt */
 529:Drivers/STM32F0xx_HAL_Driver/Src/stm32f0xx_hal_rtc_ex.c ****     if(__HAL_RTC_TAMPER_GET_FLAG(hrtc, RTC_FLAG_TAMP3F) != RESET)
 530:Drivers/STM32F0xx_HAL_Driver/Src/stm32f0xx_hal_rtc_ex.c ****     {
 531:Drivers/STM32F0xx_HAL_Driver/Src/stm32f0xx_hal_rtc_ex.c ****       /* Tamper3 callback */
 532:Drivers/STM32F0xx_HAL_Driver/Src/stm32f0xx_hal_rtc_ex.c ****       HAL_RTCEx_Tamper3EventCallback(hrtc);
 533:Drivers/STM32F0xx_HAL_Driver/Src/stm32f0xx_hal_rtc_ex.c **** 
 534:Drivers/STM32F0xx_HAL_Driver/Src/stm32f0xx_hal_rtc_ex.c ****       /* Clear the Tamper3 interrupt pending bit */
 535:Drivers/STM32F0xx_HAL_Driver/Src/stm32f0xx_hal_rtc_ex.c ****       __HAL_RTC_TAMPER_CLEAR_FLAG(hrtc, RTC_FLAG_TAMP3F);
 536:Drivers/STM32F0xx_HAL_Driver/Src/stm32f0xx_hal_rtc_ex.c ****     }
 537:Drivers/STM32F0xx_HAL_Driver/Src/stm32f0xx_hal_rtc_ex.c ****   }
 538:Drivers/STM32F0xx_HAL_Driver/Src/stm32f0xx_hal_rtc_ex.c **** #endif
 539:Drivers/STM32F0xx_HAL_Driver/Src/stm32f0xx_hal_rtc_ex.c **** 
 540:Drivers/STM32F0xx_HAL_Driver/Src/stm32f0xx_hal_rtc_ex.c ****   /* Clear the EXTI's Flag for RTC TimeStamp and Tamper */
 541:Drivers/STM32F0xx_HAL_Driver/Src/stm32f0xx_hal_rtc_ex.c ****   __HAL_RTC_TAMPER_TIMESTAMP_EXTI_CLEAR_FLAG();
 542:Drivers/STM32F0xx_HAL_Driver/Src/stm32f0xx_hal_rtc_ex.c **** 
 543:Drivers/STM32F0xx_HAL_Driver/Src/stm32f0xx_hal_rtc_ex.c ****   /* Change RTC state */
 544:Drivers/STM32F0xx_HAL_Driver/Src/stm32f0xx_hal_rtc_ex.c ****   hrtc->State = HAL_RTC_STATE_READY;
 545:Drivers/STM32F0xx_HAL_Driver/Src/stm32f0xx_hal_rtc_ex.c **** }
 546:Drivers/STM32F0xx_HAL_Driver/Src/stm32f0xx_hal_rtc_ex.c **** 
 547:Drivers/STM32F0xx_HAL_Driver/Src/stm32f0xx_hal_rtc_ex.c **** /**
 548:Drivers/STM32F0xx_HAL_Driver/Src/stm32f0xx_hal_rtc_ex.c ****   * @brief  TimeStamp callback. 
 549:Drivers/STM32F0xx_HAL_Driver/Src/stm32f0xx_hal_rtc_ex.c ****   * @param  hrtc RTC handle
 550:Drivers/STM32F0xx_HAL_Driver/Src/stm32f0xx_hal_rtc_ex.c ****   * @retval None
 551:Drivers/STM32F0xx_HAL_Driver/Src/stm32f0xx_hal_rtc_ex.c ****   */
 552:Drivers/STM32F0xx_HAL_Driver/Src/stm32f0xx_hal_rtc_ex.c **** __weak void HAL_RTCEx_TimeStampEventCallback(RTC_HandleTypeDef *hrtc)
 553:Drivers/STM32F0xx_HAL_Driver/Src/stm32f0xx_hal_rtc_ex.c **** {
 554:Drivers/STM32F0xx_HAL_Driver/Src/stm32f0xx_hal_rtc_ex.c ****   /* Prevent unused argument(s) compilation warning */
 555:Drivers/STM32F0xx_HAL_Driver/Src/stm32f0xx_hal_rtc_ex.c ****   UNUSED(hrtc);
 556:Drivers/STM32F0xx_HAL_Driver/Src/stm32f0xx_hal_rtc_ex.c **** 
 557:Drivers/STM32F0xx_HAL_Driver/Src/stm32f0xx_hal_rtc_ex.c ****   /* NOTE : This function should not be modified, when the callback is needed,
 558:Drivers/STM32F0xx_HAL_Driver/Src/stm32f0xx_hal_rtc_ex.c ****             the HAL_RTCEx_TimeStampEventCallback could be implemented in the user file
 559:Drivers/STM32F0xx_HAL_Driver/Src/stm32f0xx_hal_rtc_ex.c ****   */
 560:Drivers/STM32F0xx_HAL_Driver/Src/stm32f0xx_hal_rtc_ex.c **** }
 561:Drivers/STM32F0xx_HAL_Driver/Src/stm32f0xx_hal_rtc_ex.c **** 
 562:Drivers/STM32F0xx_HAL_Driver/Src/stm32f0xx_hal_rtc_ex.c **** /**
 563:Drivers/STM32F0xx_HAL_Driver/Src/stm32f0xx_hal_rtc_ex.c ****   * @brief  Tamper 1 callback.
 564:Drivers/STM32F0xx_HAL_Driver/Src/stm32f0xx_hal_rtc_ex.c ****   * @param  hrtc RTC handle
ARM GAS  /var/folders/vr/85797ndx6jd_r3n_lsprlrj40000gn/T//ccBlM6ZE.s 			page 28


 565:Drivers/STM32F0xx_HAL_Driver/Src/stm32f0xx_hal_rtc_ex.c ****   * @retval None
 566:Drivers/STM32F0xx_HAL_Driver/Src/stm32f0xx_hal_rtc_ex.c ****   */
 567:Drivers/STM32F0xx_HAL_Driver/Src/stm32f0xx_hal_rtc_ex.c **** __weak void HAL_RTCEx_Tamper1EventCallback(RTC_HandleTypeDef *hrtc)
 568:Drivers/STM32F0xx_HAL_Driver/Src/stm32f0xx_hal_rtc_ex.c **** {
 912              		.loc 1 568 1 is_stmt 1 view -0
 913              		.cfi_startproc
 914              		@ args = 0, pretend = 0, frame = 0
 915              		@ frame_needed = 0, uses_anonymous_args = 0
 916              		@ link register save eliminated.
 569:Drivers/STM32F0xx_HAL_Driver/Src/stm32f0xx_hal_rtc_ex.c ****   /* Prevent unused argument(s) compilation warning */
 570:Drivers/STM32F0xx_HAL_Driver/Src/stm32f0xx_hal_rtc_ex.c ****   UNUSED(hrtc);
 917              		.loc 1 570 3 view .LVU294
 571:Drivers/STM32F0xx_HAL_Driver/Src/stm32f0xx_hal_rtc_ex.c **** 
 572:Drivers/STM32F0xx_HAL_Driver/Src/stm32f0xx_hal_rtc_ex.c ****   /* NOTE : This function should not be modified, when the callback is needed,
 573:Drivers/STM32F0xx_HAL_Driver/Src/stm32f0xx_hal_rtc_ex.c ****             the HAL_RTCEx_Tamper1EventCallback could be implemented in the user file
 574:Drivers/STM32F0xx_HAL_Driver/Src/stm32f0xx_hal_rtc_ex.c ****    */
 575:Drivers/STM32F0xx_HAL_Driver/Src/stm32f0xx_hal_rtc_ex.c **** }
 918              		.loc 1 575 1 is_stmt 0 view .LVU295
 919              		@ sp needed
 920 0000 7047     		bx	lr
 921              		.cfi_endproc
 922              	.LFE46:
 924 0002 C046     		.section	.text.HAL_RTCEx_Tamper2EventCallback,"ax",%progbits
 925              		.align	1
 926              		.p2align 2,,3
 927              		.weak	HAL_RTCEx_Tamper2EventCallback
 928              		.syntax unified
 929              		.code	16
 930              		.thumb_func
 931              		.fpu softvfp
 933              	HAL_RTCEx_Tamper2EventCallback:
 934              	.LFB67:
 935              		.cfi_startproc
 936              		@ args = 0, pretend = 0, frame = 0
 937              		@ frame_needed = 0, uses_anonymous_args = 0
 938              		@ link register save eliminated.
 939              		@ sp needed
 940 0000 7047     		bx	lr
 941              		.cfi_endproc
 942              	.LFE67:
 944 0002 C046     		.section	.text.HAL_RTCEx_TamperTimeStampIRQHandler,"ax",%progbits
 945              		.align	1
 946              		.p2align 2,,3
 947              		.global	HAL_RTCEx_TamperTimeStampIRQHandler
 948              		.syntax unified
 949              		.code	16
 950              		.thumb_func
 951              		.fpu softvfp
 953              	HAL_RTCEx_TamperTimeStampIRQHandler:
 954              	.LVL68:
 955              	.LFB44:
 481:Drivers/STM32F0xx_HAL_Driver/Src/stm32f0xx_hal_rtc_ex.c ****   /* Get the TimeStamp interrupt source enable status */
 956              		.loc 1 481 1 is_stmt 1 view -0
 957              		.cfi_startproc
 958              		@ args = 0, pretend = 0, frame = 0
 959              		@ frame_needed = 0, uses_anonymous_args = 0
 483:Drivers/STM32F0xx_HAL_Driver/Src/stm32f0xx_hal_rtc_ex.c ****   {
ARM GAS  /var/folders/vr/85797ndx6jd_r3n_lsprlrj40000gn/T//ccBlM6ZE.s 			page 29


 960              		.loc 1 483 3 view .LVU297
 483:Drivers/STM32F0xx_HAL_Driver/Src/stm32f0xx_hal_rtc_ex.c ****   {
 961              		.loc 1 483 6 is_stmt 0 view .LVU298
 962 0000 0368     		ldr	r3, [r0]
 481:Drivers/STM32F0xx_HAL_Driver/Src/stm32f0xx_hal_rtc_ex.c ****   /* Get the TimeStamp interrupt source enable status */
 963              		.loc 1 481 1 view .LVU299
 964 0002 10B5     		push	{r4, lr}
 965              	.LCFI6:
 966              		.cfi_def_cfa_offset 8
 967              		.cfi_offset 4, -8
 968              		.cfi_offset 14, -4
 483:Drivers/STM32F0xx_HAL_Driver/Src/stm32f0xx_hal_rtc_ex.c ****   {
 969              		.loc 1 483 6 view .LVU300
 970 0004 9A68     		ldr	r2, [r3, #8]
 481:Drivers/STM32F0xx_HAL_Driver/Src/stm32f0xx_hal_rtc_ex.c ****   /* Get the TimeStamp interrupt source enable status */
 971              		.loc 1 481 1 view .LVU301
 972 0006 0400     		movs	r4, r0
 483:Drivers/STM32F0xx_HAL_Driver/Src/stm32f0xx_hal_rtc_ex.c ****   {
 973              		.loc 1 483 5 view .LVU302
 974 0008 1204     		lsls	r2, r2, #16
 975 000a 02D5     		bpl	.L49
 486:Drivers/STM32F0xx_HAL_Driver/Src/stm32f0xx_hal_rtc_ex.c ****     {
 976              		.loc 1 486 5 is_stmt 1 view .LVU303
 486:Drivers/STM32F0xx_HAL_Driver/Src/stm32f0xx_hal_rtc_ex.c ****     {
 977              		.loc 1 486 8 is_stmt 0 view .LVU304
 978 000c DA68     		ldr	r2, [r3, #12]
 486:Drivers/STM32F0xx_HAL_Driver/Src/stm32f0xx_hal_rtc_ex.c ****     {
 979              		.loc 1 486 7 view .LVU305
 980 000e 1205     		lsls	r2, r2, #20
 981 0010 1DD4     		bmi	.L70
 982              	.LVL69:
 983              	.L49:
 497:Drivers/STM32F0xx_HAL_Driver/Src/stm32f0xx_hal_rtc_ex.c ****   {
 984              		.loc 1 497 3 is_stmt 1 view .LVU306
 497:Drivers/STM32F0xx_HAL_Driver/Src/stm32f0xx_hal_rtc_ex.c ****   {
 985              		.loc 1 497 6 is_stmt 0 view .LVU307
 986 0012 1A6C     		ldr	r2, [r3, #64]
 497:Drivers/STM32F0xx_HAL_Driver/Src/stm32f0xx_hal_rtc_ex.c ****   {
 987              		.loc 1 497 5 view .LVU308
 988 0014 5207     		lsls	r2, r2, #29
 989 0016 02D5     		bpl	.L50
 500:Drivers/STM32F0xx_HAL_Driver/Src/stm32f0xx_hal_rtc_ex.c ****     {
 990              		.loc 1 500 5 is_stmt 1 view .LVU309
 500:Drivers/STM32F0xx_HAL_Driver/Src/stm32f0xx_hal_rtc_ex.c ****     {
 991              		.loc 1 500 8 is_stmt 0 view .LVU310
 992 0018 DA68     		ldr	r2, [r3, #12]
 500:Drivers/STM32F0xx_HAL_Driver/Src/stm32f0xx_hal_rtc_ex.c ****     {
 993              		.loc 1 500 7 view .LVU311
 994 001a 9204     		lsls	r2, r2, #18
 995 001c 21D4     		bmi	.L71
 996              	.L50:
 511:Drivers/STM32F0xx_HAL_Driver/Src/stm32f0xx_hal_rtc_ex.c ****   {
 997              		.loc 1 511 3 is_stmt 1 view .LVU312
 511:Drivers/STM32F0xx_HAL_Driver/Src/stm32f0xx_hal_rtc_ex.c ****   {
 998              		.loc 1 511 6 is_stmt 0 view .LVU313
 999 001e 1A6C     		ldr	r2, [r3, #64]
 511:Drivers/STM32F0xx_HAL_Driver/Src/stm32f0xx_hal_rtc_ex.c ****   {
ARM GAS  /var/folders/vr/85797ndx6jd_r3n_lsprlrj40000gn/T//ccBlM6ZE.s 			page 30


 1000              		.loc 1 511 5 view .LVU314
 1001 0020 5207     		lsls	r2, r2, #29
 1002 0022 02D5     		bpl	.L51
 514:Drivers/STM32F0xx_HAL_Driver/Src/stm32f0xx_hal_rtc_ex.c ****     {
 1003              		.loc 1 514 5 is_stmt 1 view .LVU315
 514:Drivers/STM32F0xx_HAL_Driver/Src/stm32f0xx_hal_rtc_ex.c ****     {
 1004              		.loc 1 514 8 is_stmt 0 view .LVU316
 1005 0024 DB68     		ldr	r3, [r3, #12]
 514:Drivers/STM32F0xx_HAL_Driver/Src/stm32f0xx_hal_rtc_ex.c ****     {
 1006              		.loc 1 514 7 view .LVU317
 1007 0026 5B04     		lsls	r3, r3, #17
 1008 0028 06D4     		bmi	.L72
 1009              	.L51:
 541:Drivers/STM32F0xx_HAL_Driver/Src/stm32f0xx_hal_rtc_ex.c **** 
 1010              		.loc 1 541 3 is_stmt 1 view .LVU318
 1011 002a 8022     		movs	r2, #128
 1012 002c 124B     		ldr	r3, .L73
 1013 002e 1203     		lsls	r2, r2, #12
 1014 0030 5A61     		str	r2, [r3, #20]
 544:Drivers/STM32F0xx_HAL_Driver/Src/stm32f0xx_hal_rtc_ex.c **** }
 1015              		.loc 1 544 3 view .LVU319
 544:Drivers/STM32F0xx_HAL_Driver/Src/stm32f0xx_hal_rtc_ex.c **** }
 1016              		.loc 1 544 15 is_stmt 0 view .LVU320
 1017 0032 0123     		movs	r3, #1
 545:Drivers/STM32F0xx_HAL_Driver/Src/stm32f0xx_hal_rtc_ex.c **** 
 1018              		.loc 1 545 1 view .LVU321
 1019              		@ sp needed
 544:Drivers/STM32F0xx_HAL_Driver/Src/stm32f0xx_hal_rtc_ex.c **** }
 1020              		.loc 1 544 15 view .LVU322
 1021 0034 6377     		strb	r3, [r4, #29]
 1022              	.LVL70:
 545:Drivers/STM32F0xx_HAL_Driver/Src/stm32f0xx_hal_rtc_ex.c **** 
 1023              		.loc 1 545 1 view .LVU323
 1024 0036 10BD     		pop	{r4, pc}
 1025              	.LVL71:
 1026              	.L72:
 517:Drivers/STM32F0xx_HAL_Driver/Src/stm32f0xx_hal_rtc_ex.c **** 
 1027              		.loc 1 517 7 is_stmt 1 view .LVU324
 1028 0038 2000     		movs	r0, r4
 1029 003a FFF7FEFF 		bl	HAL_RTCEx_Tamper2EventCallback
 1030              	.LVL72:
 520:Drivers/STM32F0xx_HAL_Driver/Src/stm32f0xx_hal_rtc_ex.c ****     }
 1031              		.loc 1 520 7 view .LVU325
 1032 003e FF23     		movs	r3, #255
 1033 0040 2168     		ldr	r1, [r4]
 1034 0042 CA68     		ldr	r2, [r1, #12]
 1035 0044 1A40     		ands	r2, r3
 1036 0046 0D4B     		ldr	r3, .L73+4
 1037 0048 1343     		orrs	r3, r2
 1038 004a CB60     		str	r3, [r1, #12]
 1039 004c EDE7     		b	.L51
 1040              	.LVL73:
 1041              	.L70:
 489:Drivers/STM32F0xx_HAL_Driver/Src/stm32f0xx_hal_rtc_ex.c ****       
 1042              		.loc 1 489 7 view .LVU326
 1043 004e FFF7FEFF 		bl	HAL_RTCEx_TimeStampEventCallback
 1044              	.LVL74:
ARM GAS  /var/folders/vr/85797ndx6jd_r3n_lsprlrj40000gn/T//ccBlM6ZE.s 			page 31


 492:Drivers/STM32F0xx_HAL_Driver/Src/stm32f0xx_hal_rtc_ex.c ****     }
 1045              		.loc 1 492 7 view .LVU327
 1046 0052 FF22     		movs	r2, #255
 1047 0054 2368     		ldr	r3, [r4]
 1048 0056 D968     		ldr	r1, [r3, #12]
 1049 0058 1140     		ands	r1, r2
 1050 005a 094A     		ldr	r2, .L73+8
 1051 005c 0A43     		orrs	r2, r1
 1052 005e DA60     		str	r2, [r3, #12]
 1053 0060 D7E7     		b	.L49
 1054              	.L71:
 503:Drivers/STM32F0xx_HAL_Driver/Src/stm32f0xx_hal_rtc_ex.c **** 
 1055              		.loc 1 503 7 view .LVU328
 1056 0062 2000     		movs	r0, r4
 1057 0064 FFF7FEFF 		bl	HAL_RTCEx_Tamper1EventCallback
 1058              	.LVL75:
 506:Drivers/STM32F0xx_HAL_Driver/Src/stm32f0xx_hal_rtc_ex.c ****     }
 1059              		.loc 1 506 7 view .LVU329
 1060 0068 FF22     		movs	r2, #255
 1061 006a 2368     		ldr	r3, [r4]
 1062 006c D968     		ldr	r1, [r3, #12]
 1063 006e 1140     		ands	r1, r2
 1064 0070 044A     		ldr	r2, .L73+12
 1065 0072 0A43     		orrs	r2, r1
 1066 0074 DA60     		str	r2, [r3, #12]
 1067 0076 D2E7     		b	.L50
 1068              	.L74:
 1069              		.align	2
 1070              	.L73:
 1071 0078 00040140 		.word	1073808384
 1072 007c 7FBFFFFF 		.word	-16513
 1073 0080 7FF7FFFF 		.word	-2177
 1074 0084 7FDFFFFF 		.word	-8321
 1075              		.cfi_endproc
 1076              	.LFE44:
 1078              		.section	.text.HAL_RTCEx_PollForTimeStampEvent,"ax",%progbits
 1079              		.align	1
 1080              		.p2align 2,,3
 1081              		.global	HAL_RTCEx_PollForTimeStampEvent
 1082              		.syntax unified
 1083              		.code	16
 1084              		.thumb_func
 1085              		.fpu softvfp
 1087              	HAL_RTCEx_PollForTimeStampEvent:
 1088              	.LVL76:
 1089              	.LFB48:
 576:Drivers/STM32F0xx_HAL_Driver/Src/stm32f0xx_hal_rtc_ex.c **** 
 577:Drivers/STM32F0xx_HAL_Driver/Src/stm32f0xx_hal_rtc_ex.c **** /**
 578:Drivers/STM32F0xx_HAL_Driver/Src/stm32f0xx_hal_rtc_ex.c ****   * @brief  Tamper 2 callback. 
 579:Drivers/STM32F0xx_HAL_Driver/Src/stm32f0xx_hal_rtc_ex.c ****   * @param  hrtc RTC handle
 580:Drivers/STM32F0xx_HAL_Driver/Src/stm32f0xx_hal_rtc_ex.c ****   * @retval None
 581:Drivers/STM32F0xx_HAL_Driver/Src/stm32f0xx_hal_rtc_ex.c ****   */
 582:Drivers/STM32F0xx_HAL_Driver/Src/stm32f0xx_hal_rtc_ex.c **** __weak void HAL_RTCEx_Tamper2EventCallback(RTC_HandleTypeDef *hrtc)
 583:Drivers/STM32F0xx_HAL_Driver/Src/stm32f0xx_hal_rtc_ex.c **** {
 584:Drivers/STM32F0xx_HAL_Driver/Src/stm32f0xx_hal_rtc_ex.c ****   /* Prevent unused argument(s) compilation warning */
 585:Drivers/STM32F0xx_HAL_Driver/Src/stm32f0xx_hal_rtc_ex.c ****   UNUSED(hrtc);
 586:Drivers/STM32F0xx_HAL_Driver/Src/stm32f0xx_hal_rtc_ex.c **** 
ARM GAS  /var/folders/vr/85797ndx6jd_r3n_lsprlrj40000gn/T//ccBlM6ZE.s 			page 32


 587:Drivers/STM32F0xx_HAL_Driver/Src/stm32f0xx_hal_rtc_ex.c ****   /* NOTE : This function should not be modified, when the callback is needed,
 588:Drivers/STM32F0xx_HAL_Driver/Src/stm32f0xx_hal_rtc_ex.c ****             the HAL_RTCEx_Tamper2EventCallback could be implemented in the user file
 589:Drivers/STM32F0xx_HAL_Driver/Src/stm32f0xx_hal_rtc_ex.c ****    */
 590:Drivers/STM32F0xx_HAL_Driver/Src/stm32f0xx_hal_rtc_ex.c **** }
 591:Drivers/STM32F0xx_HAL_Driver/Src/stm32f0xx_hal_rtc_ex.c **** 
 592:Drivers/STM32F0xx_HAL_Driver/Src/stm32f0xx_hal_rtc_ex.c **** #if defined(STM32F071xB) || defined(STM32F072xB) || defined(STM32F078xx) || defined(STM32F091xC) ||
 593:Drivers/STM32F0xx_HAL_Driver/Src/stm32f0xx_hal_rtc_ex.c **** /**
 594:Drivers/STM32F0xx_HAL_Driver/Src/stm32f0xx_hal_rtc_ex.c ****   * @brief  Tamper 3 callback. 
 595:Drivers/STM32F0xx_HAL_Driver/Src/stm32f0xx_hal_rtc_ex.c ****   * @param  hrtc RTC handle
 596:Drivers/STM32F0xx_HAL_Driver/Src/stm32f0xx_hal_rtc_ex.c ****   * @retval None
 597:Drivers/STM32F0xx_HAL_Driver/Src/stm32f0xx_hal_rtc_ex.c ****   */
 598:Drivers/STM32F0xx_HAL_Driver/Src/stm32f0xx_hal_rtc_ex.c **** __weak void HAL_RTCEx_Tamper3EventCallback(RTC_HandleTypeDef *hrtc)
 599:Drivers/STM32F0xx_HAL_Driver/Src/stm32f0xx_hal_rtc_ex.c **** {
 600:Drivers/STM32F0xx_HAL_Driver/Src/stm32f0xx_hal_rtc_ex.c ****   /* Prevent unused argument(s) compilation warning */
 601:Drivers/STM32F0xx_HAL_Driver/Src/stm32f0xx_hal_rtc_ex.c ****   UNUSED(hrtc);
 602:Drivers/STM32F0xx_HAL_Driver/Src/stm32f0xx_hal_rtc_ex.c **** 
 603:Drivers/STM32F0xx_HAL_Driver/Src/stm32f0xx_hal_rtc_ex.c ****   /* NOTE : This function should not be modified, when the callback is needed,
 604:Drivers/STM32F0xx_HAL_Driver/Src/stm32f0xx_hal_rtc_ex.c ****             the HAL_RTCEx_Tamper3EventCallback could be implemented in the user file
 605:Drivers/STM32F0xx_HAL_Driver/Src/stm32f0xx_hal_rtc_ex.c ****    */
 606:Drivers/STM32F0xx_HAL_Driver/Src/stm32f0xx_hal_rtc_ex.c **** }
 607:Drivers/STM32F0xx_HAL_Driver/Src/stm32f0xx_hal_rtc_ex.c **** #endif
 608:Drivers/STM32F0xx_HAL_Driver/Src/stm32f0xx_hal_rtc_ex.c **** 
 609:Drivers/STM32F0xx_HAL_Driver/Src/stm32f0xx_hal_rtc_ex.c **** /**
 610:Drivers/STM32F0xx_HAL_Driver/Src/stm32f0xx_hal_rtc_ex.c ****   * @brief  Handle TimeStamp polling request.
 611:Drivers/STM32F0xx_HAL_Driver/Src/stm32f0xx_hal_rtc_ex.c ****   * @param  hrtc RTC handle
 612:Drivers/STM32F0xx_HAL_Driver/Src/stm32f0xx_hal_rtc_ex.c ****   * @param  Timeout Timeout duration
 613:Drivers/STM32F0xx_HAL_Driver/Src/stm32f0xx_hal_rtc_ex.c ****   * @retval HAL status
 614:Drivers/STM32F0xx_HAL_Driver/Src/stm32f0xx_hal_rtc_ex.c ****   */
 615:Drivers/STM32F0xx_HAL_Driver/Src/stm32f0xx_hal_rtc_ex.c **** HAL_StatusTypeDef HAL_RTCEx_PollForTimeStampEvent(RTC_HandleTypeDef *hrtc, uint32_t Timeout)
 616:Drivers/STM32F0xx_HAL_Driver/Src/stm32f0xx_hal_rtc_ex.c **** { 
 1090              		.loc 1 616 1 view -0
 1091              		.cfi_startproc
 1092              		@ args = 0, pretend = 0, frame = 0
 1093              		@ frame_needed = 0, uses_anonymous_args = 0
 617:Drivers/STM32F0xx_HAL_Driver/Src/stm32f0xx_hal_rtc_ex.c ****   uint32_t tickstart = HAL_GetTick();
 1094              		.loc 1 617 3 view .LVU331
 616:Drivers/STM32F0xx_HAL_Driver/Src/stm32f0xx_hal_rtc_ex.c ****   uint32_t tickstart = HAL_GetTick();
 1095              		.loc 1 616 1 is_stmt 0 view .LVU332
 1096 0000 F0B5     		push	{r4, r5, r6, r7, lr}
 1097              	.LCFI7:
 1098              		.cfi_def_cfa_offset 20
 1099              		.cfi_offset 4, -20
 1100              		.cfi_offset 5, -16
 1101              		.cfi_offset 6, -12
 1102              		.cfi_offset 7, -8
 1103              		.cfi_offset 14, -4
 1104 0002 C646     		mov	lr, r8
 1105 0004 00B5     		push	{lr}
 1106              	.LCFI8:
 1107              		.cfi_def_cfa_offset 24
 1108              		.cfi_offset 8, -24
 616:Drivers/STM32F0xx_HAL_Driver/Src/stm32f0xx_hal_rtc_ex.c ****   uint32_t tickstart = HAL_GetTick();
 1109              		.loc 1 616 1 view .LVU333
 1110 0006 0700     		movs	r7, r0
 1111 0008 0D00     		movs	r5, r1
 1112              		.loc 1 617 24 view .LVU334
 1113 000a FFF7FEFF 		bl	HAL_GetTick
ARM GAS  /var/folders/vr/85797ndx6jd_r3n_lsprlrj40000gn/T//ccBlM6ZE.s 			page 33


 1114              	.LVL77:
 618:Drivers/STM32F0xx_HAL_Driver/Src/stm32f0xx_hal_rtc_ex.c **** 
 619:Drivers/STM32F0xx_HAL_Driver/Src/stm32f0xx_hal_rtc_ex.c ****   while(__HAL_RTC_TIMESTAMP_GET_FLAG(hrtc, RTC_FLAG_TSF) == RESET)
 1115              		.loc 1 619 9 view .LVU335
 1116 000e 8024     		movs	r4, #128
 620:Drivers/STM32F0xx_HAL_Driver/Src/stm32f0xx_hal_rtc_ex.c ****   {
 621:Drivers/STM32F0xx_HAL_Driver/Src/stm32f0xx_hal_rtc_ex.c ****     if(__HAL_RTC_TIMESTAMP_GET_FLAG(hrtc, RTC_FLAG_TSOVF) != RESET)
 1117              		.loc 1 621 8 view .LVU336
 1118 0010 8026     		movs	r6, #128
 617:Drivers/STM32F0xx_HAL_Driver/Src/stm32f0xx_hal_rtc_ex.c **** 
 1119              		.loc 1 617 24 view .LVU337
 1120 0012 8046     		mov	r8, r0
 1121              	.LVL78:
 619:Drivers/STM32F0xx_HAL_Driver/Src/stm32f0xx_hal_rtc_ex.c ****   {
 1122              		.loc 1 619 3 is_stmt 1 view .LVU338
 619:Drivers/STM32F0xx_HAL_Driver/Src/stm32f0xx_hal_rtc_ex.c ****   {
 1123              		.loc 1 619 9 is_stmt 0 view .LVU339
 1124 0014 2401     		lsls	r4, r4, #4
 1125              		.loc 1 621 8 view .LVU340
 1126 0016 7601     		lsls	r6, r6, #5
 1127              	.LVL79:
 1128              	.L76:
 619:Drivers/STM32F0xx_HAL_Driver/Src/stm32f0xx_hal_rtc_ex.c ****   {
 1129              		.loc 1 619 9 view .LVU341
 1130 0018 3B68     		ldr	r3, [r7]
 1131 001a 04E0     		b	.L79
 1132              	.L82:
 1133              		.loc 1 621 5 is_stmt 1 view .LVU342
 1134              		.loc 1 621 8 is_stmt 0 view .LVU343
 1135 001c DA68     		ldr	r2, [r3, #12]
 1136              		.loc 1 621 7 view .LVU344
 1137 001e 3242     		tst	r2, r6
 1138 0020 0AD1     		bne	.L85
 622:Drivers/STM32F0xx_HAL_Driver/Src/stm32f0xx_hal_rtc_ex.c ****     {
 623:Drivers/STM32F0xx_HAL_Driver/Src/stm32f0xx_hal_rtc_ex.c ****       /* Clear the TIMESTAMP OverRun Flag */
 624:Drivers/STM32F0xx_HAL_Driver/Src/stm32f0xx_hal_rtc_ex.c ****       __HAL_RTC_TIMESTAMP_CLEAR_FLAG(hrtc, RTC_FLAG_TSOVF);
 625:Drivers/STM32F0xx_HAL_Driver/Src/stm32f0xx_hal_rtc_ex.c **** 
 626:Drivers/STM32F0xx_HAL_Driver/Src/stm32f0xx_hal_rtc_ex.c ****       /* Change TIMESTAMP state */
 627:Drivers/STM32F0xx_HAL_Driver/Src/stm32f0xx_hal_rtc_ex.c ****       hrtc->State = HAL_RTC_STATE_ERROR;
 628:Drivers/STM32F0xx_HAL_Driver/Src/stm32f0xx_hal_rtc_ex.c **** 
 629:Drivers/STM32F0xx_HAL_Driver/Src/stm32f0xx_hal_rtc_ex.c ****       return HAL_ERROR;
 630:Drivers/STM32F0xx_HAL_Driver/Src/stm32f0xx_hal_rtc_ex.c ****     }
 631:Drivers/STM32F0xx_HAL_Driver/Src/stm32f0xx_hal_rtc_ex.c **** 
 632:Drivers/STM32F0xx_HAL_Driver/Src/stm32f0xx_hal_rtc_ex.c ****     if(Timeout != HAL_MAX_DELAY)
 1139              		.loc 1 632 5 is_stmt 1 view .LVU345
 1140              		.loc 1 632 7 is_stmt 0 view .LVU346
 1141 0022 6A1C     		adds	r2, r5, #1
 1142 0024 12D1     		bne	.L86
 1143              	.L79:
 619:Drivers/STM32F0xx_HAL_Driver/Src/stm32f0xx_hal_rtc_ex.c ****   {
 1144              		.loc 1 619 9 view .LVU347
 1145 0026 DA68     		ldr	r2, [r3, #12]
 619:Drivers/STM32F0xx_HAL_Driver/Src/stm32f0xx_hal_rtc_ex.c ****   {
 1146              		.loc 1 619 8 view .LVU348
 1147 0028 2242     		tst	r2, r4
 1148 002a F7D0     		beq	.L82
 633:Drivers/STM32F0xx_HAL_Driver/Src/stm32f0xx_hal_rtc_ex.c ****     {
ARM GAS  /var/folders/vr/85797ndx6jd_r3n_lsprlrj40000gn/T//ccBlM6ZE.s 			page 34


 634:Drivers/STM32F0xx_HAL_Driver/Src/stm32f0xx_hal_rtc_ex.c ****       if((Timeout == 0U) || ((HAL_GetTick() - tickstart) > Timeout))
 635:Drivers/STM32F0xx_HAL_Driver/Src/stm32f0xx_hal_rtc_ex.c ****       {
 636:Drivers/STM32F0xx_HAL_Driver/Src/stm32f0xx_hal_rtc_ex.c ****         hrtc->State = HAL_RTC_STATE_TIMEOUT;
 637:Drivers/STM32F0xx_HAL_Driver/Src/stm32f0xx_hal_rtc_ex.c ****         return HAL_TIMEOUT;
 638:Drivers/STM32F0xx_HAL_Driver/Src/stm32f0xx_hal_rtc_ex.c ****       }
 639:Drivers/STM32F0xx_HAL_Driver/Src/stm32f0xx_hal_rtc_ex.c ****     }
 640:Drivers/STM32F0xx_HAL_Driver/Src/stm32f0xx_hal_rtc_ex.c ****   }
 641:Drivers/STM32F0xx_HAL_Driver/Src/stm32f0xx_hal_rtc_ex.c **** 
 642:Drivers/STM32F0xx_HAL_Driver/Src/stm32f0xx_hal_rtc_ex.c ****   /* Change RTC state */
 643:Drivers/STM32F0xx_HAL_Driver/Src/stm32f0xx_hal_rtc_ex.c ****   hrtc->State = HAL_RTC_STATE_READY;
 1149              		.loc 1 643 3 is_stmt 1 view .LVU349
 1150              		.loc 1 643 15 is_stmt 0 view .LVU350
 1151 002c 0123     		movs	r3, #1
 644:Drivers/STM32F0xx_HAL_Driver/Src/stm32f0xx_hal_rtc_ex.c ****   
 645:Drivers/STM32F0xx_HAL_Driver/Src/stm32f0xx_hal_rtc_ex.c ****   return HAL_OK;
 1152              		.loc 1 645 10 view .LVU351
 1153 002e 0020     		movs	r0, #0
 643:Drivers/STM32F0xx_HAL_Driver/Src/stm32f0xx_hal_rtc_ex.c ****   
 1154              		.loc 1 643 15 view .LVU352
 1155 0030 7B77     		strb	r3, [r7, #29]
 1156              		.loc 1 645 3 is_stmt 1 view .LVU353
 1157              	.L78:
 646:Drivers/STM32F0xx_HAL_Driver/Src/stm32f0xx_hal_rtc_ex.c **** }
 1158              		.loc 1 646 1 is_stmt 0 view .LVU354
 1159              		@ sp needed
 1160              	.LVL80:
 1161              	.LVL81:
 1162              	.LVL82:
 1163              		.loc 1 646 1 view .LVU355
 1164 0032 04BC     		pop	{r2}
 1165 0034 9046     		mov	r8, r2
 1166 0036 F0BD     		pop	{r4, r5, r6, r7, pc}
 1167              	.LVL83:
 1168              	.L85:
 624:Drivers/STM32F0xx_HAL_Driver/Src/stm32f0xx_hal_rtc_ex.c **** 
 1169              		.loc 1 624 7 is_stmt 1 view .LVU356
 1170 0038 FF22     		movs	r2, #255
 1171 003a D968     		ldr	r1, [r3, #12]
 629:Drivers/STM32F0xx_HAL_Driver/Src/stm32f0xx_hal_rtc_ex.c ****     }
 1172              		.loc 1 629 14 is_stmt 0 view .LVU357
 1173 003c 0120     		movs	r0, #1
 624:Drivers/STM32F0xx_HAL_Driver/Src/stm32f0xx_hal_rtc_ex.c **** 
 1174              		.loc 1 624 7 view .LVU358
 1175 003e 1140     		ands	r1, r2
 1176 0040 084A     		ldr	r2, .L87
 1177 0042 0A43     		orrs	r2, r1
 1178 0044 DA60     		str	r2, [r3, #12]
 627:Drivers/STM32F0xx_HAL_Driver/Src/stm32f0xx_hal_rtc_ex.c **** 
 1179              		.loc 1 627 7 is_stmt 1 view .LVU359
 627:Drivers/STM32F0xx_HAL_Driver/Src/stm32f0xx_hal_rtc_ex.c **** 
 1180              		.loc 1 627 19 is_stmt 0 view .LVU360
 1181 0046 0423     		movs	r3, #4
 1182 0048 7B77     		strb	r3, [r7, #29]
 629:Drivers/STM32F0xx_HAL_Driver/Src/stm32f0xx_hal_rtc_ex.c ****     }
 1183              		.loc 1 629 7 is_stmt 1 view .LVU361
 629:Drivers/STM32F0xx_HAL_Driver/Src/stm32f0xx_hal_rtc_ex.c ****     }
 1184              		.loc 1 629 14 is_stmt 0 view .LVU362
ARM GAS  /var/folders/vr/85797ndx6jd_r3n_lsprlrj40000gn/T//ccBlM6ZE.s 			page 35


 1185 004a F2E7     		b	.L78
 1186              	.L86:
 634:Drivers/STM32F0xx_HAL_Driver/Src/stm32f0xx_hal_rtc_ex.c ****       {
 1187              		.loc 1 634 7 is_stmt 1 view .LVU363
 634:Drivers/STM32F0xx_HAL_Driver/Src/stm32f0xx_hal_rtc_ex.c ****       {
 1188              		.loc 1 634 9 is_stmt 0 view .LVU364
 1189 004c 002D     		cmp	r5, #0
 1190 004e 05D0     		beq	.L81
 634:Drivers/STM32F0xx_HAL_Driver/Src/stm32f0xx_hal_rtc_ex.c ****       {
 1191              		.loc 1 634 31 discriminator 1 view .LVU365
 1192 0050 FFF7FEFF 		bl	HAL_GetTick
 1193              	.LVL84:
 634:Drivers/STM32F0xx_HAL_Driver/Src/stm32f0xx_hal_rtc_ex.c ****       {
 1194              		.loc 1 634 45 discriminator 1 view .LVU366
 1195 0054 4346     		mov	r3, r8
 1196 0056 C01A     		subs	r0, r0, r3
 634:Drivers/STM32F0xx_HAL_Driver/Src/stm32f0xx_hal_rtc_ex.c ****       {
 1197              		.loc 1 634 26 discriminator 1 view .LVU367
 1198 0058 A842     		cmp	r0, r5
 1199 005a DDD9     		bls	.L76
 1200              	.L81:
 636:Drivers/STM32F0xx_HAL_Driver/Src/stm32f0xx_hal_rtc_ex.c ****         return HAL_TIMEOUT;
 1201              		.loc 1 636 9 is_stmt 1 view .LVU368
 636:Drivers/STM32F0xx_HAL_Driver/Src/stm32f0xx_hal_rtc_ex.c ****         return HAL_TIMEOUT;
 1202              		.loc 1 636 21 is_stmt 0 view .LVU369
 1203 005c 0323     		movs	r3, #3
 637:Drivers/STM32F0xx_HAL_Driver/Src/stm32f0xx_hal_rtc_ex.c ****       }
 1204              		.loc 1 637 16 view .LVU370
 1205 005e 0320     		movs	r0, #3
 636:Drivers/STM32F0xx_HAL_Driver/Src/stm32f0xx_hal_rtc_ex.c ****         return HAL_TIMEOUT;
 1206              		.loc 1 636 21 view .LVU371
 1207 0060 7B77     		strb	r3, [r7, #29]
 637:Drivers/STM32F0xx_HAL_Driver/Src/stm32f0xx_hal_rtc_ex.c ****       }
 1208              		.loc 1 637 9 is_stmt 1 view .LVU372
 637:Drivers/STM32F0xx_HAL_Driver/Src/stm32f0xx_hal_rtc_ex.c ****       }
 1209              		.loc 1 637 16 is_stmt 0 view .LVU373
 1210 0062 E6E7     		b	.L78
 1211              	.L88:
 1212              		.align	2
 1213              	.L87:
 1214 0064 7FEFFFFF 		.word	-4225
 1215              		.cfi_endproc
 1216              	.LFE48:
 1218              		.section	.text.HAL_RTCEx_PollForTamper1Event,"ax",%progbits
 1219              		.align	1
 1220              		.p2align 2,,3
 1221              		.global	HAL_RTCEx_PollForTamper1Event
 1222              		.syntax unified
 1223              		.code	16
 1224              		.thumb_func
 1225              		.fpu softvfp
 1227              	HAL_RTCEx_PollForTamper1Event:
 1228              	.LVL85:
 1229              	.LFB49:
 647:Drivers/STM32F0xx_HAL_Driver/Src/stm32f0xx_hal_rtc_ex.c **** 
 648:Drivers/STM32F0xx_HAL_Driver/Src/stm32f0xx_hal_rtc_ex.c **** /**
 649:Drivers/STM32F0xx_HAL_Driver/Src/stm32f0xx_hal_rtc_ex.c ****   * @brief  Handle Tamper 1 Polling.
ARM GAS  /var/folders/vr/85797ndx6jd_r3n_lsprlrj40000gn/T//ccBlM6ZE.s 			page 36


 650:Drivers/STM32F0xx_HAL_Driver/Src/stm32f0xx_hal_rtc_ex.c ****   * @param  hrtc RTC handle
 651:Drivers/STM32F0xx_HAL_Driver/Src/stm32f0xx_hal_rtc_ex.c ****   * @param  Timeout Timeout duration
 652:Drivers/STM32F0xx_HAL_Driver/Src/stm32f0xx_hal_rtc_ex.c ****   * @retval HAL status
 653:Drivers/STM32F0xx_HAL_Driver/Src/stm32f0xx_hal_rtc_ex.c ****   */
 654:Drivers/STM32F0xx_HAL_Driver/Src/stm32f0xx_hal_rtc_ex.c **** HAL_StatusTypeDef HAL_RTCEx_PollForTamper1Event(RTC_HandleTypeDef *hrtc, uint32_t Timeout)
 655:Drivers/STM32F0xx_HAL_Driver/Src/stm32f0xx_hal_rtc_ex.c **** {
 1230              		.loc 1 655 1 is_stmt 1 view -0
 1231              		.cfi_startproc
 1232              		@ args = 0, pretend = 0, frame = 0
 1233              		@ frame_needed = 0, uses_anonymous_args = 0
 656:Drivers/STM32F0xx_HAL_Driver/Src/stm32f0xx_hal_rtc_ex.c ****   uint32_t tickstart = HAL_GetTick();
 1234              		.loc 1 656 3 view .LVU375
 655:Drivers/STM32F0xx_HAL_Driver/Src/stm32f0xx_hal_rtc_ex.c ****   uint32_t tickstart = HAL_GetTick();
 1235              		.loc 1 655 1 is_stmt 0 view .LVU376
 1236 0000 F8B5     		push	{r3, r4, r5, r6, r7, lr}
 1237              	.LCFI9:
 1238              		.cfi_def_cfa_offset 24
 1239              		.cfi_offset 3, -24
 1240              		.cfi_offset 4, -20
 1241              		.cfi_offset 5, -16
 1242              		.cfi_offset 6, -12
 1243              		.cfi_offset 7, -8
 1244              		.cfi_offset 14, -4
 655:Drivers/STM32F0xx_HAL_Driver/Src/stm32f0xx_hal_rtc_ex.c ****   uint32_t tickstart = HAL_GetTick();
 1245              		.loc 1 655 1 view .LVU377
 1246 0002 0600     		movs	r6, r0
 1247 0004 0C00     		movs	r4, r1
 1248              		.loc 1 656 24 view .LVU378
 1249 0006 FFF7FEFF 		bl	HAL_GetTick
 1250              	.LVL86:
 657:Drivers/STM32F0xx_HAL_Driver/Src/stm32f0xx_hal_rtc_ex.c **** 
 658:Drivers/STM32F0xx_HAL_Driver/Src/stm32f0xx_hal_rtc_ex.c ****   /* Get the status of the Interrupt */
 659:Drivers/STM32F0xx_HAL_Driver/Src/stm32f0xx_hal_rtc_ex.c ****   while(__HAL_RTC_TAMPER_GET_FLAG(hrtc,RTC_FLAG_TAMP1F)== RESET)
 1251              		.loc 1 659 9 view .LVU379
 1252 000a 8025     		movs	r5, #128
 656:Drivers/STM32F0xx_HAL_Driver/Src/stm32f0xx_hal_rtc_ex.c **** 
 1253              		.loc 1 656 24 view .LVU380
 1254 000c 0700     		movs	r7, r0
 1255              	.LVL87:
 1256              		.loc 1 659 3 is_stmt 1 view .LVU381
 1257              		.loc 1 659 9 is_stmt 0 view .LVU382
 1258 000e AD01     		lsls	r5, r5, #6
 1259              	.LVL88:
 1260              	.L90:
 1261              		.loc 1 659 9 view .LVU383
 1262 0010 3268     		ldr	r2, [r6]
 1263 0012 01E0     		b	.L91
 1264              	.L95:
 660:Drivers/STM32F0xx_HAL_Driver/Src/stm32f0xx_hal_rtc_ex.c ****   {
 661:Drivers/STM32F0xx_HAL_Driver/Src/stm32f0xx_hal_rtc_ex.c ****     if(Timeout != HAL_MAX_DELAY)
 1265              		.loc 1 661 5 is_stmt 1 view .LVU384
 1266              		.loc 1 661 7 is_stmt 0 view .LVU385
 1267 0014 631C     		adds	r3, r4, #1
 1268 0016 0CD1     		bne	.L98
 1269              	.L91:
 659:Drivers/STM32F0xx_HAL_Driver/Src/stm32f0xx_hal_rtc_ex.c ****   {
 1270              		.loc 1 659 9 view .LVU386
ARM GAS  /var/folders/vr/85797ndx6jd_r3n_lsprlrj40000gn/T//ccBlM6ZE.s 			page 37


 1271 0018 D368     		ldr	r3, [r2, #12]
 659:Drivers/STM32F0xx_HAL_Driver/Src/stm32f0xx_hal_rtc_ex.c ****   {
 1272              		.loc 1 659 8 view .LVU387
 1273 001a 2B42     		tst	r3, r5
 1274 001c FAD0     		beq	.L95
 662:Drivers/STM32F0xx_HAL_Driver/Src/stm32f0xx_hal_rtc_ex.c ****     {
 663:Drivers/STM32F0xx_HAL_Driver/Src/stm32f0xx_hal_rtc_ex.c ****       if((Timeout == 0U) || ((HAL_GetTick() - tickstart) > Timeout))
 664:Drivers/STM32F0xx_HAL_Driver/Src/stm32f0xx_hal_rtc_ex.c ****       {
 665:Drivers/STM32F0xx_HAL_Driver/Src/stm32f0xx_hal_rtc_ex.c ****         hrtc->State = HAL_RTC_STATE_TIMEOUT;
 666:Drivers/STM32F0xx_HAL_Driver/Src/stm32f0xx_hal_rtc_ex.c ****         return HAL_TIMEOUT;
 667:Drivers/STM32F0xx_HAL_Driver/Src/stm32f0xx_hal_rtc_ex.c ****       }
 668:Drivers/STM32F0xx_HAL_Driver/Src/stm32f0xx_hal_rtc_ex.c ****     }
 669:Drivers/STM32F0xx_HAL_Driver/Src/stm32f0xx_hal_rtc_ex.c ****   }
 670:Drivers/STM32F0xx_HAL_Driver/Src/stm32f0xx_hal_rtc_ex.c **** 
 671:Drivers/STM32F0xx_HAL_Driver/Src/stm32f0xx_hal_rtc_ex.c ****   /* Clear the Tamper Flag */
 672:Drivers/STM32F0xx_HAL_Driver/Src/stm32f0xx_hal_rtc_ex.c ****   __HAL_RTC_TAMPER_CLEAR_FLAG(hrtc,RTC_FLAG_TAMP1F);
 1275              		.loc 1 672 3 is_stmt 1 view .LVU388
 1276 001e FF23     		movs	r3, #255
 1277 0020 D168     		ldr	r1, [r2, #12]
 673:Drivers/STM32F0xx_HAL_Driver/Src/stm32f0xx_hal_rtc_ex.c ****   
 674:Drivers/STM32F0xx_HAL_Driver/Src/stm32f0xx_hal_rtc_ex.c ****   /* Change RTC state */
 675:Drivers/STM32F0xx_HAL_Driver/Src/stm32f0xx_hal_rtc_ex.c ****   hrtc->State = HAL_RTC_STATE_READY;
 676:Drivers/STM32F0xx_HAL_Driver/Src/stm32f0xx_hal_rtc_ex.c ****   
 677:Drivers/STM32F0xx_HAL_Driver/Src/stm32f0xx_hal_rtc_ex.c ****   return HAL_OK; 
 1278              		.loc 1 677 10 is_stmt 0 view .LVU389
 1279 0022 0020     		movs	r0, #0
 672:Drivers/STM32F0xx_HAL_Driver/Src/stm32f0xx_hal_rtc_ex.c ****   
 1280              		.loc 1 672 3 view .LVU390
 1281 0024 1940     		ands	r1, r3
 1282 0026 084B     		ldr	r3, .L99
 1283 0028 0B43     		orrs	r3, r1
 1284 002a D360     		str	r3, [r2, #12]
 675:Drivers/STM32F0xx_HAL_Driver/Src/stm32f0xx_hal_rtc_ex.c ****   
 1285              		.loc 1 675 3 is_stmt 1 view .LVU391
 675:Drivers/STM32F0xx_HAL_Driver/Src/stm32f0xx_hal_rtc_ex.c ****   
 1286              		.loc 1 675 15 is_stmt 0 view .LVU392
 1287 002c 0123     		movs	r3, #1
 1288 002e 7377     		strb	r3, [r6, #29]
 1289              		.loc 1 677 3 is_stmt 1 view .LVU393
 1290              	.L93:
 678:Drivers/STM32F0xx_HAL_Driver/Src/stm32f0xx_hal_rtc_ex.c **** }
 1291              		.loc 1 678 1 is_stmt 0 view .LVU394
 1292              		@ sp needed
 1293              	.LVL89:
 1294              	.LVL90:
 1295              	.LVL91:
 1296              		.loc 1 678 1 view .LVU395
 1297 0030 F8BD     		pop	{r3, r4, r5, r6, r7, pc}
 1298              	.LVL92:
 1299              	.L98:
 663:Drivers/STM32F0xx_HAL_Driver/Src/stm32f0xx_hal_rtc_ex.c ****       {
 1300              		.loc 1 663 7 is_stmt 1 view .LVU396
 663:Drivers/STM32F0xx_HAL_Driver/Src/stm32f0xx_hal_rtc_ex.c ****       {
 1301              		.loc 1 663 9 is_stmt 0 view .LVU397
 1302 0032 002C     		cmp	r4, #0
 1303 0034 04D0     		beq	.L94
 663:Drivers/STM32F0xx_HAL_Driver/Src/stm32f0xx_hal_rtc_ex.c ****       {
ARM GAS  /var/folders/vr/85797ndx6jd_r3n_lsprlrj40000gn/T//ccBlM6ZE.s 			page 38


 1304              		.loc 1 663 31 discriminator 1 view .LVU398
 1305 0036 FFF7FEFF 		bl	HAL_GetTick
 1306              	.LVL93:
 663:Drivers/STM32F0xx_HAL_Driver/Src/stm32f0xx_hal_rtc_ex.c ****       {
 1307              		.loc 1 663 45 discriminator 1 view .LVU399
 1308 003a C01B     		subs	r0, r0, r7
 663:Drivers/STM32F0xx_HAL_Driver/Src/stm32f0xx_hal_rtc_ex.c ****       {
 1309              		.loc 1 663 26 discriminator 1 view .LVU400
 1310 003c A042     		cmp	r0, r4
 1311 003e E7D9     		bls	.L90
 1312              	.L94:
 665:Drivers/STM32F0xx_HAL_Driver/Src/stm32f0xx_hal_rtc_ex.c ****         return HAL_TIMEOUT;
 1313              		.loc 1 665 9 is_stmt 1 view .LVU401
 665:Drivers/STM32F0xx_HAL_Driver/Src/stm32f0xx_hal_rtc_ex.c ****         return HAL_TIMEOUT;
 1314              		.loc 1 665 21 is_stmt 0 view .LVU402
 1315 0040 0323     		movs	r3, #3
 666:Drivers/STM32F0xx_HAL_Driver/Src/stm32f0xx_hal_rtc_ex.c ****       }
 1316              		.loc 1 666 16 view .LVU403
 1317 0042 0320     		movs	r0, #3
 665:Drivers/STM32F0xx_HAL_Driver/Src/stm32f0xx_hal_rtc_ex.c ****         return HAL_TIMEOUT;
 1318              		.loc 1 665 21 view .LVU404
 1319 0044 7377     		strb	r3, [r6, #29]
 666:Drivers/STM32F0xx_HAL_Driver/Src/stm32f0xx_hal_rtc_ex.c ****       }
 1320              		.loc 1 666 9 is_stmt 1 view .LVU405
 666:Drivers/STM32F0xx_HAL_Driver/Src/stm32f0xx_hal_rtc_ex.c ****       }
 1321              		.loc 1 666 16 is_stmt 0 view .LVU406
 1322 0046 F3E7     		b	.L93
 1323              	.L100:
 1324              		.align	2
 1325              	.L99:
 1326 0048 7FDFFFFF 		.word	-8321
 1327              		.cfi_endproc
 1328              	.LFE49:
 1330              		.section	.text.HAL_RTCEx_PollForTamper2Event,"ax",%progbits
 1331              		.align	1
 1332              		.p2align 2,,3
 1333              		.global	HAL_RTCEx_PollForTamper2Event
 1334              		.syntax unified
 1335              		.code	16
 1336              		.thumb_func
 1337              		.fpu softvfp
 1339              	HAL_RTCEx_PollForTamper2Event:
 1340              	.LVL94:
 1341              	.LFB50:
 679:Drivers/STM32F0xx_HAL_Driver/Src/stm32f0xx_hal_rtc_ex.c **** 
 680:Drivers/STM32F0xx_HAL_Driver/Src/stm32f0xx_hal_rtc_ex.c **** /**
 681:Drivers/STM32F0xx_HAL_Driver/Src/stm32f0xx_hal_rtc_ex.c ****   * @brief  Handle Tamper 2 Polling.
 682:Drivers/STM32F0xx_HAL_Driver/Src/stm32f0xx_hal_rtc_ex.c ****   * @param  hrtc RTC handle
 683:Drivers/STM32F0xx_HAL_Driver/Src/stm32f0xx_hal_rtc_ex.c ****   * @param  Timeout Timeout duration
 684:Drivers/STM32F0xx_HAL_Driver/Src/stm32f0xx_hal_rtc_ex.c ****   * @retval HAL status
 685:Drivers/STM32F0xx_HAL_Driver/Src/stm32f0xx_hal_rtc_ex.c ****   */
 686:Drivers/STM32F0xx_HAL_Driver/Src/stm32f0xx_hal_rtc_ex.c **** HAL_StatusTypeDef HAL_RTCEx_PollForTamper2Event(RTC_HandleTypeDef *hrtc, uint32_t Timeout)
 687:Drivers/STM32F0xx_HAL_Driver/Src/stm32f0xx_hal_rtc_ex.c **** {
 1342              		.loc 1 687 1 is_stmt 1 view -0
 1343              		.cfi_startproc
 1344              		@ args = 0, pretend = 0, frame = 0
 1345              		@ frame_needed = 0, uses_anonymous_args = 0
ARM GAS  /var/folders/vr/85797ndx6jd_r3n_lsprlrj40000gn/T//ccBlM6ZE.s 			page 39


 688:Drivers/STM32F0xx_HAL_Driver/Src/stm32f0xx_hal_rtc_ex.c ****   uint32_t tickstart = HAL_GetTick();
 1346              		.loc 1 688 3 view .LVU408
 687:Drivers/STM32F0xx_HAL_Driver/Src/stm32f0xx_hal_rtc_ex.c ****   uint32_t tickstart = HAL_GetTick();
 1347              		.loc 1 687 1 is_stmt 0 view .LVU409
 1348 0000 F8B5     		push	{r3, r4, r5, r6, r7, lr}
 1349              	.LCFI10:
 1350              		.cfi_def_cfa_offset 24
 1351              		.cfi_offset 3, -24
 1352              		.cfi_offset 4, -20
 1353              		.cfi_offset 5, -16
 1354              		.cfi_offset 6, -12
 1355              		.cfi_offset 7, -8
 1356              		.cfi_offset 14, -4
 687:Drivers/STM32F0xx_HAL_Driver/Src/stm32f0xx_hal_rtc_ex.c ****   uint32_t tickstart = HAL_GetTick();
 1357              		.loc 1 687 1 view .LVU410
 1358 0002 0600     		movs	r6, r0
 1359 0004 0C00     		movs	r4, r1
 1360              		.loc 1 688 24 view .LVU411
 1361 0006 FFF7FEFF 		bl	HAL_GetTick
 1362              	.LVL95:
 689:Drivers/STM32F0xx_HAL_Driver/Src/stm32f0xx_hal_rtc_ex.c **** 
 690:Drivers/STM32F0xx_HAL_Driver/Src/stm32f0xx_hal_rtc_ex.c ****   /* Get the status of the Interrupt */
 691:Drivers/STM32F0xx_HAL_Driver/Src/stm32f0xx_hal_rtc_ex.c ****   while(__HAL_RTC_TAMPER_GET_FLAG(hrtc,RTC_FLAG_TAMP2F) == RESET)
 1363              		.loc 1 691 9 view .LVU412
 1364 000a 8025     		movs	r5, #128
 688:Drivers/STM32F0xx_HAL_Driver/Src/stm32f0xx_hal_rtc_ex.c **** 
 1365              		.loc 1 688 24 view .LVU413
 1366 000c 0700     		movs	r7, r0
 1367              	.LVL96:
 1368              		.loc 1 691 3 is_stmt 1 view .LVU414
 1369              		.loc 1 691 9 is_stmt 0 view .LVU415
 1370 000e ED01     		lsls	r5, r5, #7
 1371              	.LVL97:
 1372              	.L102:
 1373              		.loc 1 691 9 view .LVU416
 1374 0010 3268     		ldr	r2, [r6]
 1375 0012 01E0     		b	.L103
 1376              	.L107:
 692:Drivers/STM32F0xx_HAL_Driver/Src/stm32f0xx_hal_rtc_ex.c ****   {
 693:Drivers/STM32F0xx_HAL_Driver/Src/stm32f0xx_hal_rtc_ex.c ****     if(Timeout != HAL_MAX_DELAY)
 1377              		.loc 1 693 5 is_stmt 1 view .LVU417
 1378              		.loc 1 693 7 is_stmt 0 view .LVU418
 1379 0014 631C     		adds	r3, r4, #1
 1380 0016 0CD1     		bne	.L110
 1381              	.L103:
 691:Drivers/STM32F0xx_HAL_Driver/Src/stm32f0xx_hal_rtc_ex.c ****   {
 1382              		.loc 1 691 9 view .LVU419
 1383 0018 D368     		ldr	r3, [r2, #12]
 691:Drivers/STM32F0xx_HAL_Driver/Src/stm32f0xx_hal_rtc_ex.c ****   {
 1384              		.loc 1 691 8 view .LVU420
 1385 001a 2B42     		tst	r3, r5
 1386 001c FAD0     		beq	.L107
 694:Drivers/STM32F0xx_HAL_Driver/Src/stm32f0xx_hal_rtc_ex.c ****     {
 695:Drivers/STM32F0xx_HAL_Driver/Src/stm32f0xx_hal_rtc_ex.c ****       if((Timeout == 0U) || ((HAL_GetTick() - tickstart) > Timeout))
 696:Drivers/STM32F0xx_HAL_Driver/Src/stm32f0xx_hal_rtc_ex.c ****       {
 697:Drivers/STM32F0xx_HAL_Driver/Src/stm32f0xx_hal_rtc_ex.c ****         hrtc->State = HAL_RTC_STATE_TIMEOUT;
 698:Drivers/STM32F0xx_HAL_Driver/Src/stm32f0xx_hal_rtc_ex.c ****         return HAL_TIMEOUT;
ARM GAS  /var/folders/vr/85797ndx6jd_r3n_lsprlrj40000gn/T//ccBlM6ZE.s 			page 40


 699:Drivers/STM32F0xx_HAL_Driver/Src/stm32f0xx_hal_rtc_ex.c ****       }
 700:Drivers/STM32F0xx_HAL_Driver/Src/stm32f0xx_hal_rtc_ex.c ****     }
 701:Drivers/STM32F0xx_HAL_Driver/Src/stm32f0xx_hal_rtc_ex.c ****   }
 702:Drivers/STM32F0xx_HAL_Driver/Src/stm32f0xx_hal_rtc_ex.c **** 
 703:Drivers/STM32F0xx_HAL_Driver/Src/stm32f0xx_hal_rtc_ex.c ****   /* Clear the Tamper Flag */
 704:Drivers/STM32F0xx_HAL_Driver/Src/stm32f0xx_hal_rtc_ex.c ****   __HAL_RTC_TAMPER_CLEAR_FLAG(hrtc,RTC_FLAG_TAMP2F);
 1387              		.loc 1 704 3 is_stmt 1 view .LVU421
 1388 001e FF23     		movs	r3, #255
 1389 0020 D168     		ldr	r1, [r2, #12]
 705:Drivers/STM32F0xx_HAL_Driver/Src/stm32f0xx_hal_rtc_ex.c **** 
 706:Drivers/STM32F0xx_HAL_Driver/Src/stm32f0xx_hal_rtc_ex.c ****   /* Change RTC state */
 707:Drivers/STM32F0xx_HAL_Driver/Src/stm32f0xx_hal_rtc_ex.c ****   hrtc->State = HAL_RTC_STATE_READY;
 708:Drivers/STM32F0xx_HAL_Driver/Src/stm32f0xx_hal_rtc_ex.c **** 
 709:Drivers/STM32F0xx_HAL_Driver/Src/stm32f0xx_hal_rtc_ex.c ****   return HAL_OK;
 1390              		.loc 1 709 10 is_stmt 0 view .LVU422
 1391 0022 0020     		movs	r0, #0
 704:Drivers/STM32F0xx_HAL_Driver/Src/stm32f0xx_hal_rtc_ex.c **** 
 1392              		.loc 1 704 3 view .LVU423
 1393 0024 1940     		ands	r1, r3
 1394 0026 084B     		ldr	r3, .L111
 1395 0028 0B43     		orrs	r3, r1
 1396 002a D360     		str	r3, [r2, #12]
 707:Drivers/STM32F0xx_HAL_Driver/Src/stm32f0xx_hal_rtc_ex.c **** 
 1397              		.loc 1 707 3 is_stmt 1 view .LVU424
 707:Drivers/STM32F0xx_HAL_Driver/Src/stm32f0xx_hal_rtc_ex.c **** 
 1398              		.loc 1 707 15 is_stmt 0 view .LVU425
 1399 002c 0123     		movs	r3, #1
 1400 002e 7377     		strb	r3, [r6, #29]
 1401              		.loc 1 709 3 is_stmt 1 view .LVU426
 1402              	.L105:
 710:Drivers/STM32F0xx_HAL_Driver/Src/stm32f0xx_hal_rtc_ex.c **** }
 1403              		.loc 1 710 1 is_stmt 0 view .LVU427
 1404              		@ sp needed
 1405              	.LVL98:
 1406              	.LVL99:
 1407              	.LVL100:
 1408              		.loc 1 710 1 view .LVU428
 1409 0030 F8BD     		pop	{r3, r4, r5, r6, r7, pc}
 1410              	.LVL101:
 1411              	.L110:
 695:Drivers/STM32F0xx_HAL_Driver/Src/stm32f0xx_hal_rtc_ex.c ****       {
 1412              		.loc 1 695 7 is_stmt 1 view .LVU429
 695:Drivers/STM32F0xx_HAL_Driver/Src/stm32f0xx_hal_rtc_ex.c ****       {
 1413              		.loc 1 695 9 is_stmt 0 view .LVU430
 1414 0032 002C     		cmp	r4, #0
 1415 0034 04D0     		beq	.L106
 695:Drivers/STM32F0xx_HAL_Driver/Src/stm32f0xx_hal_rtc_ex.c ****       {
 1416              		.loc 1 695 31 discriminator 1 view .LVU431
 1417 0036 FFF7FEFF 		bl	HAL_GetTick
 1418              	.LVL102:
 695:Drivers/STM32F0xx_HAL_Driver/Src/stm32f0xx_hal_rtc_ex.c ****       {
 1419              		.loc 1 695 45 discriminator 1 view .LVU432
 1420 003a C01B     		subs	r0, r0, r7
 695:Drivers/STM32F0xx_HAL_Driver/Src/stm32f0xx_hal_rtc_ex.c ****       {
 1421              		.loc 1 695 26 discriminator 1 view .LVU433
 1422 003c A042     		cmp	r0, r4
 1423 003e E7D9     		bls	.L102
ARM GAS  /var/folders/vr/85797ndx6jd_r3n_lsprlrj40000gn/T//ccBlM6ZE.s 			page 41


 1424              	.L106:
 697:Drivers/STM32F0xx_HAL_Driver/Src/stm32f0xx_hal_rtc_ex.c ****         return HAL_TIMEOUT;
 1425              		.loc 1 697 9 is_stmt 1 view .LVU434
 697:Drivers/STM32F0xx_HAL_Driver/Src/stm32f0xx_hal_rtc_ex.c ****         return HAL_TIMEOUT;
 1426              		.loc 1 697 21 is_stmt 0 view .LVU435
 1427 0040 0323     		movs	r3, #3
 698:Drivers/STM32F0xx_HAL_Driver/Src/stm32f0xx_hal_rtc_ex.c ****       }
 1428              		.loc 1 698 16 view .LVU436
 1429 0042 0320     		movs	r0, #3
 697:Drivers/STM32F0xx_HAL_Driver/Src/stm32f0xx_hal_rtc_ex.c ****         return HAL_TIMEOUT;
 1430              		.loc 1 697 21 view .LVU437
 1431 0044 7377     		strb	r3, [r6, #29]
 698:Drivers/STM32F0xx_HAL_Driver/Src/stm32f0xx_hal_rtc_ex.c ****       }
 1432              		.loc 1 698 9 is_stmt 1 view .LVU438
 698:Drivers/STM32F0xx_HAL_Driver/Src/stm32f0xx_hal_rtc_ex.c ****       }
 1433              		.loc 1 698 16 is_stmt 0 view .LVU439
 1434 0046 F3E7     		b	.L105
 1435              	.L112:
 1436              		.align	2
 1437              	.L111:
 1438 0048 7FBFFFFF 		.word	-16513
 1439              		.cfi_endproc
 1440              	.LFE50:
 1442              		.section	.text.HAL_RTCEx_SetWakeUpTimer,"ax",%progbits
 1443              		.align	1
 1444              		.p2align 2,,3
 1445              		.global	HAL_RTCEx_SetWakeUpTimer
 1446              		.syntax unified
 1447              		.code	16
 1448              		.thumb_func
 1449              		.fpu softvfp
 1451              	HAL_RTCEx_SetWakeUpTimer:
 1452              	.LVL103:
 1453              	.LFB51:
 711:Drivers/STM32F0xx_HAL_Driver/Src/stm32f0xx_hal_rtc_ex.c **** 
 712:Drivers/STM32F0xx_HAL_Driver/Src/stm32f0xx_hal_rtc_ex.c **** #if defined(STM32F071xB) || defined(STM32F072xB) || defined(STM32F078xx) || defined(STM32F091xC) ||
 713:Drivers/STM32F0xx_HAL_Driver/Src/stm32f0xx_hal_rtc_ex.c **** /**
 714:Drivers/STM32F0xx_HAL_Driver/Src/stm32f0xx_hal_rtc_ex.c ****   * @brief  Handle Tamper 3 Polling.
 715:Drivers/STM32F0xx_HAL_Driver/Src/stm32f0xx_hal_rtc_ex.c ****   * @param  hrtc RTC handle
 716:Drivers/STM32F0xx_HAL_Driver/Src/stm32f0xx_hal_rtc_ex.c ****   * @param  Timeout Timeout duration
 717:Drivers/STM32F0xx_HAL_Driver/Src/stm32f0xx_hal_rtc_ex.c ****   * @retval HAL status
 718:Drivers/STM32F0xx_HAL_Driver/Src/stm32f0xx_hal_rtc_ex.c ****   */
 719:Drivers/STM32F0xx_HAL_Driver/Src/stm32f0xx_hal_rtc_ex.c **** HAL_StatusTypeDef HAL_RTCEx_PollForTamper3Event(RTC_HandleTypeDef *hrtc, uint32_t Timeout)
 720:Drivers/STM32F0xx_HAL_Driver/Src/stm32f0xx_hal_rtc_ex.c **** {  
 721:Drivers/STM32F0xx_HAL_Driver/Src/stm32f0xx_hal_rtc_ex.c ****   uint32_t tickstart = HAL_GetTick();
 722:Drivers/STM32F0xx_HAL_Driver/Src/stm32f0xx_hal_rtc_ex.c **** 
 723:Drivers/STM32F0xx_HAL_Driver/Src/stm32f0xx_hal_rtc_ex.c ****   /* Get the status of the Interrupt */
 724:Drivers/STM32F0xx_HAL_Driver/Src/stm32f0xx_hal_rtc_ex.c ****   while(__HAL_RTC_TAMPER_GET_FLAG(hrtc,RTC_FLAG_TAMP3F) == RESET)
 725:Drivers/STM32F0xx_HAL_Driver/Src/stm32f0xx_hal_rtc_ex.c ****   {
 726:Drivers/STM32F0xx_HAL_Driver/Src/stm32f0xx_hal_rtc_ex.c ****     if(Timeout != HAL_MAX_DELAY)
 727:Drivers/STM32F0xx_HAL_Driver/Src/stm32f0xx_hal_rtc_ex.c ****     {
 728:Drivers/STM32F0xx_HAL_Driver/Src/stm32f0xx_hal_rtc_ex.c ****       if((Timeout == 0U) || ((HAL_GetTick() - tickstart) > Timeout))
 729:Drivers/STM32F0xx_HAL_Driver/Src/stm32f0xx_hal_rtc_ex.c ****       {
 730:Drivers/STM32F0xx_HAL_Driver/Src/stm32f0xx_hal_rtc_ex.c ****         hrtc->State = HAL_RTC_STATE_TIMEOUT;
 731:Drivers/STM32F0xx_HAL_Driver/Src/stm32f0xx_hal_rtc_ex.c ****         return HAL_TIMEOUT;
 732:Drivers/STM32F0xx_HAL_Driver/Src/stm32f0xx_hal_rtc_ex.c ****       }
 733:Drivers/STM32F0xx_HAL_Driver/Src/stm32f0xx_hal_rtc_ex.c ****     }
ARM GAS  /var/folders/vr/85797ndx6jd_r3n_lsprlrj40000gn/T//ccBlM6ZE.s 			page 42


 734:Drivers/STM32F0xx_HAL_Driver/Src/stm32f0xx_hal_rtc_ex.c ****   }
 735:Drivers/STM32F0xx_HAL_Driver/Src/stm32f0xx_hal_rtc_ex.c **** 
 736:Drivers/STM32F0xx_HAL_Driver/Src/stm32f0xx_hal_rtc_ex.c ****   /* Clear the Tamper Flag */
 737:Drivers/STM32F0xx_HAL_Driver/Src/stm32f0xx_hal_rtc_ex.c ****   __HAL_RTC_TAMPER_CLEAR_FLAG(hrtc,RTC_FLAG_TAMP3F);
 738:Drivers/STM32F0xx_HAL_Driver/Src/stm32f0xx_hal_rtc_ex.c **** 
 739:Drivers/STM32F0xx_HAL_Driver/Src/stm32f0xx_hal_rtc_ex.c ****   /* Change RTC state */
 740:Drivers/STM32F0xx_HAL_Driver/Src/stm32f0xx_hal_rtc_ex.c ****   hrtc->State = HAL_RTC_STATE_READY;
 741:Drivers/STM32F0xx_HAL_Driver/Src/stm32f0xx_hal_rtc_ex.c **** 
 742:Drivers/STM32F0xx_HAL_Driver/Src/stm32f0xx_hal_rtc_ex.c ****   return HAL_OK;
 743:Drivers/STM32F0xx_HAL_Driver/Src/stm32f0xx_hal_rtc_ex.c **** }
 744:Drivers/STM32F0xx_HAL_Driver/Src/stm32f0xx_hal_rtc_ex.c **** #endif
 745:Drivers/STM32F0xx_HAL_Driver/Src/stm32f0xx_hal_rtc_ex.c **** 
 746:Drivers/STM32F0xx_HAL_Driver/Src/stm32f0xx_hal_rtc_ex.c **** /**
 747:Drivers/STM32F0xx_HAL_Driver/Src/stm32f0xx_hal_rtc_ex.c ****   * @}
 748:Drivers/STM32F0xx_HAL_Driver/Src/stm32f0xx_hal_rtc_ex.c ****   */
 749:Drivers/STM32F0xx_HAL_Driver/Src/stm32f0xx_hal_rtc_ex.c ****   
 750:Drivers/STM32F0xx_HAL_Driver/Src/stm32f0xx_hal_rtc_ex.c **** #if defined(STM32F070xB) || defined(STM32F071xB) || defined(STM32F072xB) || defined(STM32F078xx) ||
 751:Drivers/STM32F0xx_HAL_Driver/Src/stm32f0xx_hal_rtc_ex.c **** /** @addtogroup RTCEx_Exported_Functions_Group2
 752:Drivers/STM32F0xx_HAL_Driver/Src/stm32f0xx_hal_rtc_ex.c ****   * @brief    RTC Wake-up functions
 753:Drivers/STM32F0xx_HAL_Driver/Src/stm32f0xx_hal_rtc_ex.c ****   *
 754:Drivers/STM32F0xx_HAL_Driver/Src/stm32f0xx_hal_rtc_ex.c **** @verbatim   
 755:Drivers/STM32F0xx_HAL_Driver/Src/stm32f0xx_hal_rtc_ex.c ****  ===============================================================================
 756:Drivers/STM32F0xx_HAL_Driver/Src/stm32f0xx_hal_rtc_ex.c ****                         ##### RTC Wake-up functions #####
 757:Drivers/STM32F0xx_HAL_Driver/Src/stm32f0xx_hal_rtc_ex.c ****  ===============================================================================  
 758:Drivers/STM32F0xx_HAL_Driver/Src/stm32f0xx_hal_rtc_ex.c ****  
 759:Drivers/STM32F0xx_HAL_Driver/Src/stm32f0xx_hal_rtc_ex.c ****  [..] This section provides functions allowing to configure Wake-up feature
 760:Drivers/STM32F0xx_HAL_Driver/Src/stm32f0xx_hal_rtc_ex.c **** 
 761:Drivers/STM32F0xx_HAL_Driver/Src/stm32f0xx_hal_rtc_ex.c **** @endverbatim
 762:Drivers/STM32F0xx_HAL_Driver/Src/stm32f0xx_hal_rtc_ex.c ****   * @{
 763:Drivers/STM32F0xx_HAL_Driver/Src/stm32f0xx_hal_rtc_ex.c ****   */
 764:Drivers/STM32F0xx_HAL_Driver/Src/stm32f0xx_hal_rtc_ex.c **** 
 765:Drivers/STM32F0xx_HAL_Driver/Src/stm32f0xx_hal_rtc_ex.c **** /**
 766:Drivers/STM32F0xx_HAL_Driver/Src/stm32f0xx_hal_rtc_ex.c ****   * @brief  Set wake up timer.
 767:Drivers/STM32F0xx_HAL_Driver/Src/stm32f0xx_hal_rtc_ex.c ****   * @param  hrtc RTC handle
 768:Drivers/STM32F0xx_HAL_Driver/Src/stm32f0xx_hal_rtc_ex.c ****   * @param  WakeUpCounter Wake up counter
 769:Drivers/STM32F0xx_HAL_Driver/Src/stm32f0xx_hal_rtc_ex.c ****   * @param  WakeUpClock Wake up clock
 770:Drivers/STM32F0xx_HAL_Driver/Src/stm32f0xx_hal_rtc_ex.c ****   * @retval HAL status
 771:Drivers/STM32F0xx_HAL_Driver/Src/stm32f0xx_hal_rtc_ex.c ****   */
 772:Drivers/STM32F0xx_HAL_Driver/Src/stm32f0xx_hal_rtc_ex.c **** HAL_StatusTypeDef HAL_RTCEx_SetWakeUpTimer(RTC_HandleTypeDef *hrtc, uint32_t WakeUpCounter, uint32_
 773:Drivers/STM32F0xx_HAL_Driver/Src/stm32f0xx_hal_rtc_ex.c **** {
 1454              		.loc 1 773 1 is_stmt 1 view -0
 1455              		.cfi_startproc
 1456              		@ args = 0, pretend = 0, frame = 0
 1457              		@ frame_needed = 0, uses_anonymous_args = 0
 774:Drivers/STM32F0xx_HAL_Driver/Src/stm32f0xx_hal_rtc_ex.c ****   uint32_t tickstart = 0U;
 1458              		.loc 1 774 3 view .LVU441
 775:Drivers/STM32F0xx_HAL_Driver/Src/stm32f0xx_hal_rtc_ex.c **** 
 776:Drivers/STM32F0xx_HAL_Driver/Src/stm32f0xx_hal_rtc_ex.c ****   /* Check the parameters */
 777:Drivers/STM32F0xx_HAL_Driver/Src/stm32f0xx_hal_rtc_ex.c ****   assert_param(IS_RTC_WAKEUP_CLOCK(WakeUpClock));
 1459              		.loc 1 777 3 view .LVU442
 778:Drivers/STM32F0xx_HAL_Driver/Src/stm32f0xx_hal_rtc_ex.c ****   assert_param(IS_RTC_WAKEUP_COUNTER(WakeUpCounter));
 1460              		.loc 1 778 3 view .LVU443
 779:Drivers/STM32F0xx_HAL_Driver/Src/stm32f0xx_hal_rtc_ex.c **** 
 780:Drivers/STM32F0xx_HAL_Driver/Src/stm32f0xx_hal_rtc_ex.c ****   /* Process Locked */
 781:Drivers/STM32F0xx_HAL_Driver/Src/stm32f0xx_hal_rtc_ex.c ****   __HAL_LOCK(hrtc);
 1461              		.loc 1 781 3 view .LVU444
 1462              		.loc 1 781 3 view .LVU445
ARM GAS  /var/folders/vr/85797ndx6jd_r3n_lsprlrj40000gn/T//ccBlM6ZE.s 			page 43


 773:Drivers/STM32F0xx_HAL_Driver/Src/stm32f0xx_hal_rtc_ex.c ****   uint32_t tickstart = 0U;
 1463              		.loc 1 773 1 is_stmt 0 view .LVU446
 1464 0000 F0B5     		push	{r4, r5, r6, r7, lr}
 1465              	.LCFI11:
 1466              		.cfi_def_cfa_offset 20
 1467              		.cfi_offset 4, -20
 1468              		.cfi_offset 5, -16
 1469              		.cfi_offset 6, -12
 1470              		.cfi_offset 7, -8
 1471              		.cfi_offset 14, -4
 1472 0002 D646     		mov	lr, r10
 1473 0004 4F46     		mov	r7, r9
 1474 0006 4646     		mov	r6, r8
 1475 0008 C0B5     		push	{r6, r7, lr}
 1476              	.LCFI12:
 1477              		.cfi_def_cfa_offset 32
 1478              		.cfi_offset 8, -32
 1479              		.cfi_offset 9, -28
 1480              		.cfi_offset 10, -24
 1481              		.loc 1 781 3 view .LVU447
 1482 000a 037F     		ldrb	r3, [r0, #28]
 773:Drivers/STM32F0xx_HAL_Driver/Src/stm32f0xx_hal_rtc_ex.c ****   uint32_t tickstart = 0U;
 1483              		.loc 1 773 1 view .LVU448
 1484 000c 0500     		movs	r5, r0
 1485 000e 8946     		mov	r9, r1
 1486 0010 9246     		mov	r10, r2
 1487              		.loc 1 781 3 view .LVU449
 1488 0012 012B     		cmp	r3, #1
 1489 0014 5CD0     		beq	.L120
 1490              		.loc 1 781 3 is_stmt 1 discriminator 2 view .LVU450
 1491 0016 0123     		movs	r3, #1
 782:Drivers/STM32F0xx_HAL_Driver/Src/stm32f0xx_hal_rtc_ex.c **** 
 783:Drivers/STM32F0xx_HAL_Driver/Src/stm32f0xx_hal_rtc_ex.c ****   hrtc->State = HAL_RTC_STATE_BUSY;
 784:Drivers/STM32F0xx_HAL_Driver/Src/stm32f0xx_hal_rtc_ex.c **** 
 785:Drivers/STM32F0xx_HAL_Driver/Src/stm32f0xx_hal_rtc_ex.c ****   /* Disable the write protection for RTC registers */
 786:Drivers/STM32F0xx_HAL_Driver/Src/stm32f0xx_hal_rtc_ex.c ****   __HAL_RTC_WRITEPROTECTION_DISABLE(hrtc);
 1492              		.loc 1 786 3 is_stmt 0 discriminator 2 view .LVU451
 1493 0018 CA22     		movs	r2, #202
 1494              	.LVL104:
 781:Drivers/STM32F0xx_HAL_Driver/Src/stm32f0xx_hal_rtc_ex.c **** 
 1495              		.loc 1 781 3 discriminator 2 view .LVU452
 1496 001a 0377     		strb	r3, [r0, #28]
 783:Drivers/STM32F0xx_HAL_Driver/Src/stm32f0xx_hal_rtc_ex.c **** 
 1497              		.loc 1 783 3 is_stmt 1 discriminator 2 view .LVU453
 783:Drivers/STM32F0xx_HAL_Driver/Src/stm32f0xx_hal_rtc_ex.c **** 
 1498              		.loc 1 783 15 is_stmt 0 discriminator 2 view .LVU454
 1499 001c 0133     		adds	r3, r3, #1
 1500 001e 4377     		strb	r3, [r0, #29]
 1501              		.loc 1 786 3 is_stmt 1 discriminator 2 view .LVU455
 1502              		.loc 1 786 3 discriminator 2 view .LVU456
 1503 0020 0368     		ldr	r3, [r0]
 1504 0022 5A62     		str	r2, [r3, #36]
 1505              		.loc 1 786 3 discriminator 2 view .LVU457
 1506 0024 773A     		subs	r2, r2, #119
 1507 0026 5A62     		str	r2, [r3, #36]
 787:Drivers/STM32F0xx_HAL_Driver/Src/stm32f0xx_hal_rtc_ex.c **** 
 788:Drivers/STM32F0xx_HAL_Driver/Src/stm32f0xx_hal_rtc_ex.c ****   /*Check RTC WUTWF flag is reset only when wake up timer enabled*/
ARM GAS  /var/folders/vr/85797ndx6jd_r3n_lsprlrj40000gn/T//ccBlM6ZE.s 			page 44


 789:Drivers/STM32F0xx_HAL_Driver/Src/stm32f0xx_hal_rtc_ex.c ****   if((hrtc->Instance->CR & RTC_CR_WUTE) != RESET){
 1508              		.loc 1 789 3 discriminator 2 view .LVU458
 1509              		.loc 1 789 21 is_stmt 0 discriminator 2 view .LVU459
 1510 0028 9A68     		ldr	r2, [r3, #8]
 1511              		.loc 1 789 5 discriminator 2 view .LVU460
 1512 002a 5205     		lsls	r2, r2, #21
 1513 002c 0FD5     		bpl	.L115
 790:Drivers/STM32F0xx_HAL_Driver/Src/stm32f0xx_hal_rtc_ex.c ****     tickstart = HAL_GetTick();
 1514              		.loc 1 790 5 is_stmt 1 view .LVU461
 1515              		.loc 1 790 17 is_stmt 0 view .LVU462
 1516 002e FFF7FEFF 		bl	HAL_GetTick
 1517              	.LVL105:
 791:Drivers/STM32F0xx_HAL_Driver/Src/stm32f0xx_hal_rtc_ex.c **** 
 792:Drivers/STM32F0xx_HAL_Driver/Src/stm32f0xx_hal_rtc_ex.c ****    /* Wait till RTC WUTWF flag is reset and if Time out is reached exit */
 793:Drivers/STM32F0xx_HAL_Driver/Src/stm32f0xx_hal_rtc_ex.c ****    while(__HAL_RTC_WAKEUPTIMER_GET_FLAG(hrtc, RTC_FLAG_WUTWF) == SET)
 794:Drivers/STM32F0xx_HAL_Driver/Src/stm32f0xx_hal_rtc_ex.c ****    {
 795:Drivers/STM32F0xx_HAL_Driver/Src/stm32f0xx_hal_rtc_ex.c ****     if((HAL_GetTick() - tickstart ) > RTC_TIMEOUT_VALUE)
 1518              		.loc 1 795 7 view .LVU463
 1519 0032 FA26     		movs	r6, #250
 790:Drivers/STM32F0xx_HAL_Driver/Src/stm32f0xx_hal_rtc_ex.c ****     tickstart = HAL_GetTick();
 1520              		.loc 1 790 17 view .LVU464
 1521 0034 0700     		movs	r7, r0
 1522              	.LVL106:
 793:Drivers/STM32F0xx_HAL_Driver/Src/stm32f0xx_hal_rtc_ex.c ****    {
 1523              		.loc 1 793 4 is_stmt 1 view .LVU465
 793:Drivers/STM32F0xx_HAL_Driver/Src/stm32f0xx_hal_rtc_ex.c ****    {
 1524              		.loc 1 793 10 is_stmt 0 view .LVU466
 1525 0036 0424     		movs	r4, #4
 1526              		.loc 1 795 7 view .LVU467
 1527 0038 B600     		lsls	r6, r6, #2
 793:Drivers/STM32F0xx_HAL_Driver/Src/stm32f0xx_hal_rtc_ex.c ****    {
 1528              		.loc 1 793 9 view .LVU468
 1529 003a 04E0     		b	.L116
 1530              	.LVL107:
 1531              	.L117:
 1532              		.loc 1 795 5 is_stmt 1 view .LVU469
 1533              		.loc 1 795 9 is_stmt 0 view .LVU470
 1534 003c FFF7FEFF 		bl	HAL_GetTick
 1535              	.LVL108:
 1536              		.loc 1 795 23 view .LVU471
 1537 0040 C01B     		subs	r0, r0, r7
 1538              		.loc 1 795 7 view .LVU472
 1539 0042 B042     		cmp	r0, r6
 1540 0044 3BD8     		bhi	.L126
 1541              	.L116:
 793:Drivers/STM32F0xx_HAL_Driver/Src/stm32f0xx_hal_rtc_ex.c ****    {
 1542              		.loc 1 793 10 view .LVU473
 1543 0046 2B68     		ldr	r3, [r5]
 1544 0048 DA68     		ldr	r2, [r3, #12]
 793:Drivers/STM32F0xx_HAL_Driver/Src/stm32f0xx_hal_rtc_ex.c ****    {
 1545              		.loc 1 793 9 view .LVU474
 1546 004a 1442     		tst	r4, r2
 1547 004c F6D1     		bne	.L117
 1548              	.LVL109:
 1549              	.L115:
 796:Drivers/STM32F0xx_HAL_Driver/Src/stm32f0xx_hal_rtc_ex.c ****       {
 797:Drivers/STM32F0xx_HAL_Driver/Src/stm32f0xx_hal_rtc_ex.c ****        /* Enable the write protection for RTC registers */
ARM GAS  /var/folders/vr/85797ndx6jd_r3n_lsprlrj40000gn/T//ccBlM6ZE.s 			page 45


 798:Drivers/STM32F0xx_HAL_Driver/Src/stm32f0xx_hal_rtc_ex.c ****        __HAL_RTC_WRITEPROTECTION_ENABLE(hrtc);
 799:Drivers/STM32F0xx_HAL_Driver/Src/stm32f0xx_hal_rtc_ex.c **** 
 800:Drivers/STM32F0xx_HAL_Driver/Src/stm32f0xx_hal_rtc_ex.c ****        hrtc->State = HAL_RTC_STATE_TIMEOUT;
 801:Drivers/STM32F0xx_HAL_Driver/Src/stm32f0xx_hal_rtc_ex.c **** 
 802:Drivers/STM32F0xx_HAL_Driver/Src/stm32f0xx_hal_rtc_ex.c ****        /* Process Unlocked */ 
 803:Drivers/STM32F0xx_HAL_Driver/Src/stm32f0xx_hal_rtc_ex.c ****        __HAL_UNLOCK(hrtc);
 804:Drivers/STM32F0xx_HAL_Driver/Src/stm32f0xx_hal_rtc_ex.c **** 
 805:Drivers/STM32F0xx_HAL_Driver/Src/stm32f0xx_hal_rtc_ex.c ****        return HAL_TIMEOUT;
 806:Drivers/STM32F0xx_HAL_Driver/Src/stm32f0xx_hal_rtc_ex.c ****       }
 807:Drivers/STM32F0xx_HAL_Driver/Src/stm32f0xx_hal_rtc_ex.c ****     }
 808:Drivers/STM32F0xx_HAL_Driver/Src/stm32f0xx_hal_rtc_ex.c ****   }
 809:Drivers/STM32F0xx_HAL_Driver/Src/stm32f0xx_hal_rtc_ex.c **** 
 810:Drivers/STM32F0xx_HAL_Driver/Src/stm32f0xx_hal_rtc_ex.c ****   __HAL_RTC_WAKEUPTIMER_DISABLE(hrtc);
 1550              		.loc 1 810 3 is_stmt 1 view .LVU475
 1551 004e 9A68     		ldr	r2, [r3, #8]
 1552 0050 2049     		ldr	r1, .L128
 811:Drivers/STM32F0xx_HAL_Driver/Src/stm32f0xx_hal_rtc_ex.c **** 
 812:Drivers/STM32F0xx_HAL_Driver/Src/stm32f0xx_hal_rtc_ex.c ****   tickstart = HAL_GetTick();
 813:Drivers/STM32F0xx_HAL_Driver/Src/stm32f0xx_hal_rtc_ex.c **** 
 814:Drivers/STM32F0xx_HAL_Driver/Src/stm32f0xx_hal_rtc_ex.c ****   /* Wait till RTC WUTWF flag is set and if Time out is reached exit */
 815:Drivers/STM32F0xx_HAL_Driver/Src/stm32f0xx_hal_rtc_ex.c ****   while(__HAL_RTC_WAKEUPTIMER_GET_FLAG(hrtc, RTC_FLAG_WUTWF) == RESET)
 816:Drivers/STM32F0xx_HAL_Driver/Src/stm32f0xx_hal_rtc_ex.c ****   {
 817:Drivers/STM32F0xx_HAL_Driver/Src/stm32f0xx_hal_rtc_ex.c ****     if((HAL_GetTick()-tickstart) > RTC_TIMEOUT_VALUE)
 1553              		.loc 1 817 7 is_stmt 0 view .LVU476
 1554 0052 FA27     		movs	r7, #250
 810:Drivers/STM32F0xx_HAL_Driver/Src/stm32f0xx_hal_rtc_ex.c **** 
 1555              		.loc 1 810 3 view .LVU477
 1556 0054 0A40     		ands	r2, r1
 1557 0056 9A60     		str	r2, [r3, #8]
 812:Drivers/STM32F0xx_HAL_Driver/Src/stm32f0xx_hal_rtc_ex.c **** 
 1558              		.loc 1 812 3 is_stmt 1 view .LVU478
 812:Drivers/STM32F0xx_HAL_Driver/Src/stm32f0xx_hal_rtc_ex.c **** 
 1559              		.loc 1 812 15 is_stmt 0 view .LVU479
 1560 0058 FFF7FEFF 		bl	HAL_GetTick
 1561              	.LVL110:
 815:Drivers/STM32F0xx_HAL_Driver/Src/stm32f0xx_hal_rtc_ex.c ****   {
 1562              		.loc 1 815 9 view .LVU480
 1563 005c 0426     		movs	r6, #4
 812:Drivers/STM32F0xx_HAL_Driver/Src/stm32f0xx_hal_rtc_ex.c **** 
 1564              		.loc 1 812 15 view .LVU481
 1565 005e 8046     		mov	r8, r0
 1566              	.LVL111:
 815:Drivers/STM32F0xx_HAL_Driver/Src/stm32f0xx_hal_rtc_ex.c ****   {
 1567              		.loc 1 815 3 is_stmt 1 view .LVU482
 1568              		.loc 1 817 7 is_stmt 0 view .LVU483
 1569 0060 BF00     		lsls	r7, r7, #2
 815:Drivers/STM32F0xx_HAL_Driver/Src/stm32f0xx_hal_rtc_ex.c ****   {
 1570              		.loc 1 815 8 view .LVU484
 1571 0062 05E0     		b	.L118
 1572              	.LVL112:
 1573              	.L119:
 1574              		.loc 1 817 5 is_stmt 1 view .LVU485
 1575              		.loc 1 817 9 is_stmt 0 view .LVU486
 1576 0064 FFF7FEFF 		bl	HAL_GetTick
 1577              	.LVL113:
 1578              		.loc 1 817 22 view .LVU487
 1579 0068 4346     		mov	r3, r8
ARM GAS  /var/folders/vr/85797ndx6jd_r3n_lsprlrj40000gn/T//ccBlM6ZE.s 			page 46


 1580 006a C01A     		subs	r0, r0, r3
 1581              		.loc 1 817 7 view .LVU488
 1582 006c B842     		cmp	r0, r7
 1583 006e 1ED8     		bhi	.L127
 1584              	.L118:
 815:Drivers/STM32F0xx_HAL_Driver/Src/stm32f0xx_hal_rtc_ex.c ****   {
 1585              		.loc 1 815 9 view .LVU489
 1586 0070 2B68     		ldr	r3, [r5]
 1587 0072 DC68     		ldr	r4, [r3, #12]
 1588 0074 3440     		ands	r4, r6
 815:Drivers/STM32F0xx_HAL_Driver/Src/stm32f0xx_hal_rtc_ex.c ****   {
 1589              		.loc 1 815 8 view .LVU490
 1590 0076 F5D0     		beq	.L119
 818:Drivers/STM32F0xx_HAL_Driver/Src/stm32f0xx_hal_rtc_ex.c ****     {
 819:Drivers/STM32F0xx_HAL_Driver/Src/stm32f0xx_hal_rtc_ex.c ****       /* Enable the write protection for RTC registers */
 820:Drivers/STM32F0xx_HAL_Driver/Src/stm32f0xx_hal_rtc_ex.c ****       __HAL_RTC_WRITEPROTECTION_ENABLE(hrtc);
 821:Drivers/STM32F0xx_HAL_Driver/Src/stm32f0xx_hal_rtc_ex.c **** 
 822:Drivers/STM32F0xx_HAL_Driver/Src/stm32f0xx_hal_rtc_ex.c ****       hrtc->State = HAL_RTC_STATE_TIMEOUT;
 823:Drivers/STM32F0xx_HAL_Driver/Src/stm32f0xx_hal_rtc_ex.c **** 
 824:Drivers/STM32F0xx_HAL_Driver/Src/stm32f0xx_hal_rtc_ex.c ****       /* Process Unlocked */
 825:Drivers/STM32F0xx_HAL_Driver/Src/stm32f0xx_hal_rtc_ex.c ****       __HAL_UNLOCK(hrtc);
 826:Drivers/STM32F0xx_HAL_Driver/Src/stm32f0xx_hal_rtc_ex.c **** 
 827:Drivers/STM32F0xx_HAL_Driver/Src/stm32f0xx_hal_rtc_ex.c ****       return HAL_TIMEOUT;
 828:Drivers/STM32F0xx_HAL_Driver/Src/stm32f0xx_hal_rtc_ex.c ****     }
 829:Drivers/STM32F0xx_HAL_Driver/Src/stm32f0xx_hal_rtc_ex.c ****   }
 830:Drivers/STM32F0xx_HAL_Driver/Src/stm32f0xx_hal_rtc_ex.c **** 
 831:Drivers/STM32F0xx_HAL_Driver/Src/stm32f0xx_hal_rtc_ex.c ****   /* Clear the Wakeup Timer clock source bits in CR register */
 832:Drivers/STM32F0xx_HAL_Driver/Src/stm32f0xx_hal_rtc_ex.c ****   hrtc->Instance->CR &= (uint32_t)~RTC_CR_WUCKSEL;
 1591              		.loc 1 832 3 is_stmt 1 view .LVU491
 1592              		.loc 1 832 22 is_stmt 0 view .LVU492
 1593 0078 0721     		movs	r1, #7
 1594 007a 9A68     		ldr	r2, [r3, #8]
 833:Drivers/STM32F0xx_HAL_Driver/Src/stm32f0xx_hal_rtc_ex.c **** 
 834:Drivers/STM32F0xx_HAL_Driver/Src/stm32f0xx_hal_rtc_ex.c ****   /* Configure the clock source */
 835:Drivers/STM32F0xx_HAL_Driver/Src/stm32f0xx_hal_rtc_ex.c ****   hrtc->Instance->CR |= (uint32_t)WakeUpClock;
 836:Drivers/STM32F0xx_HAL_Driver/Src/stm32f0xx_hal_rtc_ex.c **** 
 837:Drivers/STM32F0xx_HAL_Driver/Src/stm32f0xx_hal_rtc_ex.c ****   /* Configure the Wakeup Timer counter */
 838:Drivers/STM32F0xx_HAL_Driver/Src/stm32f0xx_hal_rtc_ex.c ****   hrtc->Instance->WUTR = (uint32_t)WakeUpCounter;
 839:Drivers/STM32F0xx_HAL_Driver/Src/stm32f0xx_hal_rtc_ex.c **** 
 840:Drivers/STM32F0xx_HAL_Driver/Src/stm32f0xx_hal_rtc_ex.c ****    /* Enable the Wakeup Timer */
 841:Drivers/STM32F0xx_HAL_Driver/Src/stm32f0xx_hal_rtc_ex.c ****   __HAL_RTC_WAKEUPTIMER_ENABLE(hrtc);
 842:Drivers/STM32F0xx_HAL_Driver/Src/stm32f0xx_hal_rtc_ex.c **** 
 843:Drivers/STM32F0xx_HAL_Driver/Src/stm32f0xx_hal_rtc_ex.c ****   /* Enable the write protection for RTC registers */
 844:Drivers/STM32F0xx_HAL_Driver/Src/stm32f0xx_hal_rtc_ex.c ****   __HAL_RTC_WRITEPROTECTION_ENABLE(hrtc);
 845:Drivers/STM32F0xx_HAL_Driver/Src/stm32f0xx_hal_rtc_ex.c **** 
 846:Drivers/STM32F0xx_HAL_Driver/Src/stm32f0xx_hal_rtc_ex.c ****   hrtc->State = HAL_RTC_STATE_READY;
 847:Drivers/STM32F0xx_HAL_Driver/Src/stm32f0xx_hal_rtc_ex.c **** 
 848:Drivers/STM32F0xx_HAL_Driver/Src/stm32f0xx_hal_rtc_ex.c ****   /* Process Unlocked */
 849:Drivers/STM32F0xx_HAL_Driver/Src/stm32f0xx_hal_rtc_ex.c ****   __HAL_UNLOCK(hrtc);
 850:Drivers/STM32F0xx_HAL_Driver/Src/stm32f0xx_hal_rtc_ex.c **** 
 851:Drivers/STM32F0xx_HAL_Driver/Src/stm32f0xx_hal_rtc_ex.c ****   return HAL_OK;
 1595              		.loc 1 851 10 view .LVU493
 1596 007c 0020     		movs	r0, #0
 832:Drivers/STM32F0xx_HAL_Driver/Src/stm32f0xx_hal_rtc_ex.c **** 
 1597              		.loc 1 832 22 view .LVU494
 1598 007e 8A43     		bics	r2, r1
 835:Drivers/STM32F0xx_HAL_Driver/Src/stm32f0xx_hal_rtc_ex.c **** 
ARM GAS  /var/folders/vr/85797ndx6jd_r3n_lsprlrj40000gn/T//ccBlM6ZE.s 			page 47


 1599              		.loc 1 835 22 view .LVU495
 1600 0080 5146     		mov	r1, r10
 832:Drivers/STM32F0xx_HAL_Driver/Src/stm32f0xx_hal_rtc_ex.c **** 
 1601              		.loc 1 832 22 view .LVU496
 1602 0082 9A60     		str	r2, [r3, #8]
 835:Drivers/STM32F0xx_HAL_Driver/Src/stm32f0xx_hal_rtc_ex.c **** 
 1603              		.loc 1 835 3 is_stmt 1 view .LVU497
 835:Drivers/STM32F0xx_HAL_Driver/Src/stm32f0xx_hal_rtc_ex.c **** 
 1604              		.loc 1 835 22 is_stmt 0 view .LVU498
 1605 0084 9A68     		ldr	r2, [r3, #8]
 1606 0086 0A43     		orrs	r2, r1
 1607 0088 9A60     		str	r2, [r3, #8]
 838:Drivers/STM32F0xx_HAL_Driver/Src/stm32f0xx_hal_rtc_ex.c **** 
 1608              		.loc 1 838 3 is_stmt 1 view .LVU499
 838:Drivers/STM32F0xx_HAL_Driver/Src/stm32f0xx_hal_rtc_ex.c **** 
 1609              		.loc 1 838 24 is_stmt 0 view .LVU500
 1610 008a 4A46     		mov	r2, r9
 1611 008c 5A61     		str	r2, [r3, #20]
 841:Drivers/STM32F0xx_HAL_Driver/Src/stm32f0xx_hal_rtc_ex.c **** 
 1612              		.loc 1 841 3 is_stmt 1 view .LVU501
 1613 008e 8022     		movs	r2, #128
 1614 0090 9968     		ldr	r1, [r3, #8]
 1615 0092 D200     		lsls	r2, r2, #3
 1616 0094 0A43     		orrs	r2, r1
 1617 0096 9A60     		str	r2, [r3, #8]
 844:Drivers/STM32F0xx_HAL_Driver/Src/stm32f0xx_hal_rtc_ex.c **** 
 1618              		.loc 1 844 3 view .LVU502
 844:Drivers/STM32F0xx_HAL_Driver/Src/stm32f0xx_hal_rtc_ex.c **** 
 1619              		.loc 1 844 3 view .LVU503
 1620 0098 FF22     		movs	r2, #255
 1621 009a 5A62     		str	r2, [r3, #36]
 846:Drivers/STM32F0xx_HAL_Driver/Src/stm32f0xx_hal_rtc_ex.c **** 
 1622              		.loc 1 846 3 view .LVU504
 846:Drivers/STM32F0xx_HAL_Driver/Src/stm32f0xx_hal_rtc_ex.c **** 
 1623              		.loc 1 846 15 is_stmt 0 view .LVU505
 1624 009c 0123     		movs	r3, #1
 1625 009e 6B77     		strb	r3, [r5, #29]
 849:Drivers/STM32F0xx_HAL_Driver/Src/stm32f0xx_hal_rtc_ex.c **** 
 1626              		.loc 1 849 3 is_stmt 1 view .LVU506
 849:Drivers/STM32F0xx_HAL_Driver/Src/stm32f0xx_hal_rtc_ex.c **** 
 1627              		.loc 1 849 3 view .LVU507
 1628 00a0 0023     		movs	r3, #0
 1629 00a2 2B77     		strb	r3, [r5, #28]
 1630              		.loc 1 851 3 view .LVU508
 1631              	.LVL114:
 1632              	.L114:
 852:Drivers/STM32F0xx_HAL_Driver/Src/stm32f0xx_hal_rtc_ex.c **** }
 1633              		.loc 1 852 1 is_stmt 0 view .LVU509
 1634              		@ sp needed
 1635              	.LVL115:
 1636              	.LVL116:
 1637              	.LVL117:
 1638              		.loc 1 852 1 view .LVU510
 1639 00a4 1CBC     		pop	{r2, r3, r4}
 1640 00a6 9046     		mov	r8, r2
 1641 00a8 9946     		mov	r9, r3
 1642 00aa A246     		mov	r10, r4
ARM GAS  /var/folders/vr/85797ndx6jd_r3n_lsprlrj40000gn/T//ccBlM6ZE.s 			page 48


 1643 00ac F0BD     		pop	{r4, r5, r6, r7, pc}
 1644              	.LVL118:
 1645              	.L127:
 820:Drivers/STM32F0xx_HAL_Driver/Src/stm32f0xx_hal_rtc_ex.c **** 
 1646              		.loc 1 820 7 is_stmt 1 view .LVU511
 820:Drivers/STM32F0xx_HAL_Driver/Src/stm32f0xx_hal_rtc_ex.c **** 
 1647              		.loc 1 820 7 view .LVU512
 1648 00ae FF22     		movs	r2, #255
 1649 00b0 2B68     		ldr	r3, [r5]
 1650              	.LVL119:
 827:Drivers/STM32F0xx_HAL_Driver/Src/stm32f0xx_hal_rtc_ex.c ****     }
 1651              		.loc 1 827 14 is_stmt 0 view .LVU513
 1652 00b2 0320     		movs	r0, #3
 820:Drivers/STM32F0xx_HAL_Driver/Src/stm32f0xx_hal_rtc_ex.c **** 
 1653              		.loc 1 820 7 view .LVU514
 1654 00b4 5A62     		str	r2, [r3, #36]
 822:Drivers/STM32F0xx_HAL_Driver/Src/stm32f0xx_hal_rtc_ex.c **** 
 1655              		.loc 1 822 7 is_stmt 1 view .LVU515
 822:Drivers/STM32F0xx_HAL_Driver/Src/stm32f0xx_hal_rtc_ex.c **** 
 1656              		.loc 1 822 19 is_stmt 0 view .LVU516
 1657 00b6 0323     		movs	r3, #3
 825:Drivers/STM32F0xx_HAL_Driver/Src/stm32f0xx_hal_rtc_ex.c **** 
 1658              		.loc 1 825 7 view .LVU517
 1659 00b8 2C77     		strb	r4, [r5, #28]
 822:Drivers/STM32F0xx_HAL_Driver/Src/stm32f0xx_hal_rtc_ex.c **** 
 1660              		.loc 1 822 19 view .LVU518
 1661 00ba 6B77     		strb	r3, [r5, #29]
 825:Drivers/STM32F0xx_HAL_Driver/Src/stm32f0xx_hal_rtc_ex.c **** 
 1662              		.loc 1 825 7 is_stmt 1 view .LVU519
 825:Drivers/STM32F0xx_HAL_Driver/Src/stm32f0xx_hal_rtc_ex.c **** 
 1663              		.loc 1 825 7 view .LVU520
 827:Drivers/STM32F0xx_HAL_Driver/Src/stm32f0xx_hal_rtc_ex.c ****     }
 1664              		.loc 1 827 7 view .LVU521
 827:Drivers/STM32F0xx_HAL_Driver/Src/stm32f0xx_hal_rtc_ex.c ****     }
 1665              		.loc 1 827 14 is_stmt 0 view .LVU522
 1666 00bc F2E7     		b	.L114
 1667              	.LVL120:
 1668              	.L126:
 798:Drivers/STM32F0xx_HAL_Driver/Src/stm32f0xx_hal_rtc_ex.c **** 
 1669              		.loc 1 798 8 is_stmt 1 view .LVU523
 798:Drivers/STM32F0xx_HAL_Driver/Src/stm32f0xx_hal_rtc_ex.c **** 
 1670              		.loc 1 798 8 view .LVU524
 1671 00be FF22     		movs	r2, #255
 1672 00c0 2B68     		ldr	r3, [r5]
 805:Drivers/STM32F0xx_HAL_Driver/Src/stm32f0xx_hal_rtc_ex.c ****       }
 1673              		.loc 1 805 15 is_stmt 0 view .LVU525
 1674 00c2 0320     		movs	r0, #3
 798:Drivers/STM32F0xx_HAL_Driver/Src/stm32f0xx_hal_rtc_ex.c **** 
 1675              		.loc 1 798 8 view .LVU526
 1676 00c4 5A62     		str	r2, [r3, #36]
 800:Drivers/STM32F0xx_HAL_Driver/Src/stm32f0xx_hal_rtc_ex.c **** 
 1677              		.loc 1 800 8 is_stmt 1 view .LVU527
 800:Drivers/STM32F0xx_HAL_Driver/Src/stm32f0xx_hal_rtc_ex.c **** 
 1678              		.loc 1 800 20 is_stmt 0 view .LVU528
 1679 00c6 0323     		movs	r3, #3
 1680 00c8 6B77     		strb	r3, [r5, #29]
 803:Drivers/STM32F0xx_HAL_Driver/Src/stm32f0xx_hal_rtc_ex.c **** 
ARM GAS  /var/folders/vr/85797ndx6jd_r3n_lsprlrj40000gn/T//ccBlM6ZE.s 			page 49


 1681              		.loc 1 803 8 is_stmt 1 view .LVU529
 803:Drivers/STM32F0xx_HAL_Driver/Src/stm32f0xx_hal_rtc_ex.c **** 
 1682              		.loc 1 803 8 view .LVU530
 1683 00ca 0023     		movs	r3, #0
 1684 00cc 2B77     		strb	r3, [r5, #28]
 805:Drivers/STM32F0xx_HAL_Driver/Src/stm32f0xx_hal_rtc_ex.c ****       }
 1685              		.loc 1 805 8 view .LVU531
 805:Drivers/STM32F0xx_HAL_Driver/Src/stm32f0xx_hal_rtc_ex.c ****       }
 1686              		.loc 1 805 15 is_stmt 0 view .LVU532
 1687 00ce E9E7     		b	.L114
 1688              	.LVL121:
 1689              	.L120:
 781:Drivers/STM32F0xx_HAL_Driver/Src/stm32f0xx_hal_rtc_ex.c **** 
 1690              		.loc 1 781 3 view .LVU533
 1691 00d0 0220     		movs	r0, #2
 1692              	.LVL122:
 781:Drivers/STM32F0xx_HAL_Driver/Src/stm32f0xx_hal_rtc_ex.c **** 
 1693              		.loc 1 781 3 view .LVU534
 1694 00d2 E7E7     		b	.L114
 1695              	.L129:
 1696              		.align	2
 1697              	.L128:
 1698 00d4 FFFBFFFF 		.word	-1025
 1699              		.cfi_endproc
 1700              	.LFE51:
 1702              		.section	.text.HAL_RTCEx_SetWakeUpTimer_IT,"ax",%progbits
 1703              		.align	1
 1704              		.p2align 2,,3
 1705              		.global	HAL_RTCEx_SetWakeUpTimer_IT
 1706              		.syntax unified
 1707              		.code	16
 1708              		.thumb_func
 1709              		.fpu softvfp
 1711              	HAL_RTCEx_SetWakeUpTimer_IT:
 1712              	.LVL123:
 1713              	.LFB52:
 853:Drivers/STM32F0xx_HAL_Driver/Src/stm32f0xx_hal_rtc_ex.c **** 
 854:Drivers/STM32F0xx_HAL_Driver/Src/stm32f0xx_hal_rtc_ex.c **** /**
 855:Drivers/STM32F0xx_HAL_Driver/Src/stm32f0xx_hal_rtc_ex.c ****   * @brief  Set wake up timer with interrupt.
 856:Drivers/STM32F0xx_HAL_Driver/Src/stm32f0xx_hal_rtc_ex.c ****   * @param  hrtc RTC handle
 857:Drivers/STM32F0xx_HAL_Driver/Src/stm32f0xx_hal_rtc_ex.c ****   * @param  WakeUpCounter Wake up counter
 858:Drivers/STM32F0xx_HAL_Driver/Src/stm32f0xx_hal_rtc_ex.c ****   * @param  WakeUpClock Wake up clock  
 859:Drivers/STM32F0xx_HAL_Driver/Src/stm32f0xx_hal_rtc_ex.c ****   * @retval HAL status
 860:Drivers/STM32F0xx_HAL_Driver/Src/stm32f0xx_hal_rtc_ex.c ****   */
 861:Drivers/STM32F0xx_HAL_Driver/Src/stm32f0xx_hal_rtc_ex.c **** HAL_StatusTypeDef HAL_RTCEx_SetWakeUpTimer_IT(RTC_HandleTypeDef *hrtc, uint32_t WakeUpCounter, uint
 862:Drivers/STM32F0xx_HAL_Driver/Src/stm32f0xx_hal_rtc_ex.c **** {
 1714              		.loc 1 862 1 is_stmt 1 view -0
 1715              		.cfi_startproc
 1716              		@ args = 0, pretend = 0, frame = 0
 1717              		@ frame_needed = 0, uses_anonymous_args = 0
 863:Drivers/STM32F0xx_HAL_Driver/Src/stm32f0xx_hal_rtc_ex.c ****   uint32_t tickstart = 0U;
 1718              		.loc 1 863 3 view .LVU536
 864:Drivers/STM32F0xx_HAL_Driver/Src/stm32f0xx_hal_rtc_ex.c **** 
 865:Drivers/STM32F0xx_HAL_Driver/Src/stm32f0xx_hal_rtc_ex.c ****   /* Check the parameters */
 866:Drivers/STM32F0xx_HAL_Driver/Src/stm32f0xx_hal_rtc_ex.c ****   assert_param(IS_RTC_WAKEUP_CLOCK(WakeUpClock));
 1719              		.loc 1 866 3 view .LVU537
 867:Drivers/STM32F0xx_HAL_Driver/Src/stm32f0xx_hal_rtc_ex.c ****   assert_param(IS_RTC_WAKEUP_COUNTER(WakeUpCounter));
ARM GAS  /var/folders/vr/85797ndx6jd_r3n_lsprlrj40000gn/T//ccBlM6ZE.s 			page 50


 1720              		.loc 1 867 3 view .LVU538
 868:Drivers/STM32F0xx_HAL_Driver/Src/stm32f0xx_hal_rtc_ex.c **** 
 869:Drivers/STM32F0xx_HAL_Driver/Src/stm32f0xx_hal_rtc_ex.c ****   /* Process Locked */
 870:Drivers/STM32F0xx_HAL_Driver/Src/stm32f0xx_hal_rtc_ex.c ****   __HAL_LOCK(hrtc);
 1721              		.loc 1 870 3 view .LVU539
 1722              		.loc 1 870 3 view .LVU540
 862:Drivers/STM32F0xx_HAL_Driver/Src/stm32f0xx_hal_rtc_ex.c ****   uint32_t tickstart = 0U;
 1723              		.loc 1 862 1 is_stmt 0 view .LVU541
 1724 0000 F0B5     		push	{r4, r5, r6, r7, lr}
 1725              	.LCFI13:
 1726              		.cfi_def_cfa_offset 20
 1727              		.cfi_offset 4, -20
 1728              		.cfi_offset 5, -16
 1729              		.cfi_offset 6, -12
 1730              		.cfi_offset 7, -8
 1731              		.cfi_offset 14, -4
 1732 0002 D646     		mov	lr, r10
 1733 0004 4F46     		mov	r7, r9
 1734 0006 4646     		mov	r6, r8
 1735 0008 C0B5     		push	{r6, r7, lr}
 1736              	.LCFI14:
 1737              		.cfi_def_cfa_offset 32
 1738              		.cfi_offset 8, -32
 1739              		.cfi_offset 9, -28
 1740              		.cfi_offset 10, -24
 1741              		.loc 1 870 3 view .LVU542
 1742 000a 037F     		ldrb	r3, [r0, #28]
 862:Drivers/STM32F0xx_HAL_Driver/Src/stm32f0xx_hal_rtc_ex.c ****   uint32_t tickstart = 0U;
 1743              		.loc 1 862 1 view .LVU543
 1744 000c 0500     		movs	r5, r0
 1745 000e 8A46     		mov	r10, r1
 1746 0010 9146     		mov	r9, r2
 1747              		.loc 1 870 3 view .LVU544
 1748 0012 012B     		cmp	r3, #1
 1749 0014 00D1     		bne	.LCB1498
 1750 0016 70E0     		b	.L137	@long jump
 1751              	.LCB1498:
 1752              		.loc 1 870 3 is_stmt 1 discriminator 2 view .LVU545
 1753 0018 0123     		movs	r3, #1
 871:Drivers/STM32F0xx_HAL_Driver/Src/stm32f0xx_hal_rtc_ex.c **** 
 872:Drivers/STM32F0xx_HAL_Driver/Src/stm32f0xx_hal_rtc_ex.c ****   hrtc->State = HAL_RTC_STATE_BUSY;
 873:Drivers/STM32F0xx_HAL_Driver/Src/stm32f0xx_hal_rtc_ex.c **** 
 874:Drivers/STM32F0xx_HAL_Driver/Src/stm32f0xx_hal_rtc_ex.c ****   /* Disable the write protection for RTC registers */
 875:Drivers/STM32F0xx_HAL_Driver/Src/stm32f0xx_hal_rtc_ex.c ****   __HAL_RTC_WRITEPROTECTION_DISABLE(hrtc);
 1754              		.loc 1 875 3 is_stmt 0 discriminator 2 view .LVU546
 1755 001a CA22     		movs	r2, #202
 1756              	.LVL124:
 870:Drivers/STM32F0xx_HAL_Driver/Src/stm32f0xx_hal_rtc_ex.c **** 
 1757              		.loc 1 870 3 discriminator 2 view .LVU547
 1758 001c 0377     		strb	r3, [r0, #28]
 872:Drivers/STM32F0xx_HAL_Driver/Src/stm32f0xx_hal_rtc_ex.c **** 
 1759              		.loc 1 872 3 is_stmt 1 discriminator 2 view .LVU548
 872:Drivers/STM32F0xx_HAL_Driver/Src/stm32f0xx_hal_rtc_ex.c **** 
 1760              		.loc 1 872 15 is_stmt 0 discriminator 2 view .LVU549
 1761 001e 0133     		adds	r3, r3, #1
 1762 0020 4377     		strb	r3, [r0, #29]
 1763              		.loc 1 875 3 is_stmt 1 discriminator 2 view .LVU550
ARM GAS  /var/folders/vr/85797ndx6jd_r3n_lsprlrj40000gn/T//ccBlM6ZE.s 			page 51


 1764              		.loc 1 875 3 discriminator 2 view .LVU551
 1765 0022 0368     		ldr	r3, [r0]
 1766 0024 5A62     		str	r2, [r3, #36]
 1767              		.loc 1 875 3 discriminator 2 view .LVU552
 1768 0026 773A     		subs	r2, r2, #119
 1769 0028 5A62     		str	r2, [r3, #36]
 876:Drivers/STM32F0xx_HAL_Driver/Src/stm32f0xx_hal_rtc_ex.c **** 
 877:Drivers/STM32F0xx_HAL_Driver/Src/stm32f0xx_hal_rtc_ex.c ****   /*Check RTC WUTWF flag is reset only when wake up timer enabled*/
 878:Drivers/STM32F0xx_HAL_Driver/Src/stm32f0xx_hal_rtc_ex.c ****   if((hrtc->Instance->CR & RTC_CR_WUTE) != RESET){
 1770              		.loc 1 878 3 discriminator 2 view .LVU553
 1771              		.loc 1 878 21 is_stmt 0 discriminator 2 view .LVU554
 1772 002a 9A68     		ldr	r2, [r3, #8]
 1773              		.loc 1 878 5 discriminator 2 view .LVU555
 1774 002c 5205     		lsls	r2, r2, #21
 1775 002e 0FD5     		bpl	.L132
 879:Drivers/STM32F0xx_HAL_Driver/Src/stm32f0xx_hal_rtc_ex.c ****     tickstart = HAL_GetTick();
 1776              		.loc 1 879 5 is_stmt 1 view .LVU556
 1777              		.loc 1 879 17 is_stmt 0 view .LVU557
 1778 0030 FFF7FEFF 		bl	HAL_GetTick
 1779              	.LVL125:
 880:Drivers/STM32F0xx_HAL_Driver/Src/stm32f0xx_hal_rtc_ex.c **** 
 881:Drivers/STM32F0xx_HAL_Driver/Src/stm32f0xx_hal_rtc_ex.c ****    /* Wait till RTC WUTWF flag is reset and if Time out is reached exit */
 882:Drivers/STM32F0xx_HAL_Driver/Src/stm32f0xx_hal_rtc_ex.c ****    while(__HAL_RTC_WAKEUPTIMER_GET_FLAG(hrtc, RTC_FLAG_WUTWF) == SET)
 883:Drivers/STM32F0xx_HAL_Driver/Src/stm32f0xx_hal_rtc_ex.c ****    {
 884:Drivers/STM32F0xx_HAL_Driver/Src/stm32f0xx_hal_rtc_ex.c ****     if((HAL_GetTick() - tickstart ) > RTC_TIMEOUT_VALUE)
 1780              		.loc 1 884 7 view .LVU558
 1781 0034 FA26     		movs	r6, #250
 879:Drivers/STM32F0xx_HAL_Driver/Src/stm32f0xx_hal_rtc_ex.c ****     tickstart = HAL_GetTick();
 1782              		.loc 1 879 17 view .LVU559
 1783 0036 0700     		movs	r7, r0
 1784              	.LVL126:
 882:Drivers/STM32F0xx_HAL_Driver/Src/stm32f0xx_hal_rtc_ex.c ****    {
 1785              		.loc 1 882 4 is_stmt 1 view .LVU560
 882:Drivers/STM32F0xx_HAL_Driver/Src/stm32f0xx_hal_rtc_ex.c ****    {
 1786              		.loc 1 882 10 is_stmt 0 view .LVU561
 1787 0038 0424     		movs	r4, #4
 1788              		.loc 1 884 7 view .LVU562
 1789 003a B600     		lsls	r6, r6, #2
 882:Drivers/STM32F0xx_HAL_Driver/Src/stm32f0xx_hal_rtc_ex.c ****    {
 1790              		.loc 1 882 9 view .LVU563
 1791 003c 04E0     		b	.L133
 1792              	.LVL127:
 1793              	.L134:
 1794              		.loc 1 884 5 is_stmt 1 view .LVU564
 1795              		.loc 1 884 9 is_stmt 0 view .LVU565
 1796 003e FFF7FEFF 		bl	HAL_GetTick
 1797              	.LVL128:
 1798              		.loc 1 884 23 view .LVU566
 1799 0042 C01B     		subs	r0, r0, r7
 1800              		.loc 1 884 7 view .LVU567
 1801 0044 B042     		cmp	r0, r6
 1802 0046 4FD8     		bhi	.L143
 1803              	.L133:
 882:Drivers/STM32F0xx_HAL_Driver/Src/stm32f0xx_hal_rtc_ex.c ****    {
 1804              		.loc 1 882 10 view .LVU568
 1805 0048 2B68     		ldr	r3, [r5]
 1806 004a DA68     		ldr	r2, [r3, #12]
ARM GAS  /var/folders/vr/85797ndx6jd_r3n_lsprlrj40000gn/T//ccBlM6ZE.s 			page 52


 882:Drivers/STM32F0xx_HAL_Driver/Src/stm32f0xx_hal_rtc_ex.c ****    {
 1807              		.loc 1 882 9 view .LVU569
 1808 004c 1442     		tst	r4, r2
 1809 004e F6D1     		bne	.L134
 1810              	.LVL129:
 1811              	.L132:
 885:Drivers/STM32F0xx_HAL_Driver/Src/stm32f0xx_hal_rtc_ex.c ****       {
 886:Drivers/STM32F0xx_HAL_Driver/Src/stm32f0xx_hal_rtc_ex.c ****        /* Enable the write protection for RTC registers */
 887:Drivers/STM32F0xx_HAL_Driver/Src/stm32f0xx_hal_rtc_ex.c ****        __HAL_RTC_WRITEPROTECTION_ENABLE(hrtc);
 888:Drivers/STM32F0xx_HAL_Driver/Src/stm32f0xx_hal_rtc_ex.c **** 
 889:Drivers/STM32F0xx_HAL_Driver/Src/stm32f0xx_hal_rtc_ex.c ****        hrtc->State = HAL_RTC_STATE_TIMEOUT;
 890:Drivers/STM32F0xx_HAL_Driver/Src/stm32f0xx_hal_rtc_ex.c **** 
 891:Drivers/STM32F0xx_HAL_Driver/Src/stm32f0xx_hal_rtc_ex.c ****        /* Process Unlocked */ 
 892:Drivers/STM32F0xx_HAL_Driver/Src/stm32f0xx_hal_rtc_ex.c ****        __HAL_UNLOCK(hrtc);
 893:Drivers/STM32F0xx_HAL_Driver/Src/stm32f0xx_hal_rtc_ex.c **** 
 894:Drivers/STM32F0xx_HAL_Driver/Src/stm32f0xx_hal_rtc_ex.c ****        return HAL_TIMEOUT;
 895:Drivers/STM32F0xx_HAL_Driver/Src/stm32f0xx_hal_rtc_ex.c ****       }
 896:Drivers/STM32F0xx_HAL_Driver/Src/stm32f0xx_hal_rtc_ex.c ****     }
 897:Drivers/STM32F0xx_HAL_Driver/Src/stm32f0xx_hal_rtc_ex.c ****   }
 898:Drivers/STM32F0xx_HAL_Driver/Src/stm32f0xx_hal_rtc_ex.c **** 
 899:Drivers/STM32F0xx_HAL_Driver/Src/stm32f0xx_hal_rtc_ex.c ****   /* Disable the Wake-Up timer */
 900:Drivers/STM32F0xx_HAL_Driver/Src/stm32f0xx_hal_rtc_ex.c ****   __HAL_RTC_WAKEUPTIMER_DISABLE(hrtc);
 1812              		.loc 1 900 3 is_stmt 1 view .LVU570
 1813 0050 9A68     		ldr	r2, [r3, #8]
 1814 0052 2B49     		ldr	r1, .L145
 901:Drivers/STM32F0xx_HAL_Driver/Src/stm32f0xx_hal_rtc_ex.c **** 
 902:Drivers/STM32F0xx_HAL_Driver/Src/stm32f0xx_hal_rtc_ex.c ****   /* Clear flag Wake-Up */
 903:Drivers/STM32F0xx_HAL_Driver/Src/stm32f0xx_hal_rtc_ex.c ****   __HAL_RTC_WAKEUPTIMER_CLEAR_FLAG(hrtc, RTC_FLAG_WUTF);
 904:Drivers/STM32F0xx_HAL_Driver/Src/stm32f0xx_hal_rtc_ex.c **** 
 905:Drivers/STM32F0xx_HAL_Driver/Src/stm32f0xx_hal_rtc_ex.c ****   tickstart = HAL_GetTick();
 906:Drivers/STM32F0xx_HAL_Driver/Src/stm32f0xx_hal_rtc_ex.c **** 
 907:Drivers/STM32F0xx_HAL_Driver/Src/stm32f0xx_hal_rtc_ex.c ****   /* Wait till RTC WUTWF flag is set and if Time out is reached exit */
 908:Drivers/STM32F0xx_HAL_Driver/Src/stm32f0xx_hal_rtc_ex.c ****   while(__HAL_RTC_WAKEUPTIMER_GET_FLAG(hrtc, RTC_FLAG_WUTWF) == RESET)
 909:Drivers/STM32F0xx_HAL_Driver/Src/stm32f0xx_hal_rtc_ex.c ****   {
 910:Drivers/STM32F0xx_HAL_Driver/Src/stm32f0xx_hal_rtc_ex.c ****     if((HAL_GetTick()-tickstart) > RTC_TIMEOUT_VALUE)
 1815              		.loc 1 910 7 is_stmt 0 view .LVU571
 1816 0054 FA27     		movs	r7, #250
 900:Drivers/STM32F0xx_HAL_Driver/Src/stm32f0xx_hal_rtc_ex.c **** 
 1817              		.loc 1 900 3 view .LVU572
 1818 0056 0A40     		ands	r2, r1
 1819 0058 9A60     		str	r2, [r3, #8]
 903:Drivers/STM32F0xx_HAL_Driver/Src/stm32f0xx_hal_rtc_ex.c **** 
 1820              		.loc 1 903 3 is_stmt 1 view .LVU573
 1821 005a FF22     		movs	r2, #255
 1822 005c D968     		ldr	r1, [r3, #12]
 908:Drivers/STM32F0xx_HAL_Driver/Src/stm32f0xx_hal_rtc_ex.c ****   {
 1823              		.loc 1 908 9 is_stmt 0 view .LVU574
 1824 005e 0426     		movs	r6, #4
 903:Drivers/STM32F0xx_HAL_Driver/Src/stm32f0xx_hal_rtc_ex.c **** 
 1825              		.loc 1 903 3 view .LVU575
 1826 0060 1140     		ands	r1, r2
 1827 0062 284A     		ldr	r2, .L145+4
 1828              		.loc 1 910 7 view .LVU576
 1829 0064 BF00     		lsls	r7, r7, #2
 903:Drivers/STM32F0xx_HAL_Driver/Src/stm32f0xx_hal_rtc_ex.c **** 
 1830              		.loc 1 903 3 view .LVU577
 1831 0066 0A43     		orrs	r2, r1
ARM GAS  /var/folders/vr/85797ndx6jd_r3n_lsprlrj40000gn/T//ccBlM6ZE.s 			page 53


 1832 0068 DA60     		str	r2, [r3, #12]
 905:Drivers/STM32F0xx_HAL_Driver/Src/stm32f0xx_hal_rtc_ex.c **** 
 1833              		.loc 1 905 3 is_stmt 1 view .LVU578
 905:Drivers/STM32F0xx_HAL_Driver/Src/stm32f0xx_hal_rtc_ex.c **** 
 1834              		.loc 1 905 15 is_stmt 0 view .LVU579
 1835 006a FFF7FEFF 		bl	HAL_GetTick
 1836              	.LVL130:
 1837 006e 8046     		mov	r8, r0
 1838              	.LVL131:
 908:Drivers/STM32F0xx_HAL_Driver/Src/stm32f0xx_hal_rtc_ex.c ****   {
 1839              		.loc 1 908 3 is_stmt 1 view .LVU580
 908:Drivers/STM32F0xx_HAL_Driver/Src/stm32f0xx_hal_rtc_ex.c ****   {
 1840              		.loc 1 908 8 is_stmt 0 view .LVU581
 1841 0070 05E0     		b	.L135
 1842              	.LVL132:
 1843              	.L136:
 1844              		.loc 1 910 5 is_stmt 1 view .LVU582
 1845              		.loc 1 910 9 is_stmt 0 view .LVU583
 1846 0072 FFF7FEFF 		bl	HAL_GetTick
 1847              	.LVL133:
 1848              		.loc 1 910 22 view .LVU584
 1849 0076 4346     		mov	r3, r8
 1850 0078 C01A     		subs	r0, r0, r3
 1851              		.loc 1 910 7 view .LVU585
 1852 007a B842     		cmp	r0, r7
 1853 007c 2CD8     		bhi	.L144
 1854              	.L135:
 908:Drivers/STM32F0xx_HAL_Driver/Src/stm32f0xx_hal_rtc_ex.c ****   {
 1855              		.loc 1 908 9 view .LVU586
 1856 007e 2B68     		ldr	r3, [r5]
 1857 0080 DC68     		ldr	r4, [r3, #12]
 1858 0082 3440     		ands	r4, r6
 908:Drivers/STM32F0xx_HAL_Driver/Src/stm32f0xx_hal_rtc_ex.c ****   {
 1859              		.loc 1 908 8 view .LVU587
 1860 0084 F5D0     		beq	.L136
 911:Drivers/STM32F0xx_HAL_Driver/Src/stm32f0xx_hal_rtc_ex.c ****     {
 912:Drivers/STM32F0xx_HAL_Driver/Src/stm32f0xx_hal_rtc_ex.c ****       /* Enable the write protection for RTC registers */
 913:Drivers/STM32F0xx_HAL_Driver/Src/stm32f0xx_hal_rtc_ex.c ****       __HAL_RTC_WRITEPROTECTION_ENABLE(hrtc);
 914:Drivers/STM32F0xx_HAL_Driver/Src/stm32f0xx_hal_rtc_ex.c **** 
 915:Drivers/STM32F0xx_HAL_Driver/Src/stm32f0xx_hal_rtc_ex.c ****       hrtc->State = HAL_RTC_STATE_TIMEOUT;
 916:Drivers/STM32F0xx_HAL_Driver/Src/stm32f0xx_hal_rtc_ex.c **** 
 917:Drivers/STM32F0xx_HAL_Driver/Src/stm32f0xx_hal_rtc_ex.c ****       /* Process Unlocked */
 918:Drivers/STM32F0xx_HAL_Driver/Src/stm32f0xx_hal_rtc_ex.c ****       __HAL_UNLOCK(hrtc);
 919:Drivers/STM32F0xx_HAL_Driver/Src/stm32f0xx_hal_rtc_ex.c **** 
 920:Drivers/STM32F0xx_HAL_Driver/Src/stm32f0xx_hal_rtc_ex.c ****       return HAL_TIMEOUT;
 921:Drivers/STM32F0xx_HAL_Driver/Src/stm32f0xx_hal_rtc_ex.c ****     }
 922:Drivers/STM32F0xx_HAL_Driver/Src/stm32f0xx_hal_rtc_ex.c ****   }
 923:Drivers/STM32F0xx_HAL_Driver/Src/stm32f0xx_hal_rtc_ex.c **** 
 924:Drivers/STM32F0xx_HAL_Driver/Src/stm32f0xx_hal_rtc_ex.c ****   /* Configure the Wakeup Timer counter */
 925:Drivers/STM32F0xx_HAL_Driver/Src/stm32f0xx_hal_rtc_ex.c ****   hrtc->Instance->WUTR = (uint32_t)WakeUpCounter;
 1861              		.loc 1 925 3 is_stmt 1 view .LVU588
 1862              		.loc 1 925 24 is_stmt 0 view .LVU589
 1863 0086 5246     		mov	r2, r10
 926:Drivers/STM32F0xx_HAL_Driver/Src/stm32f0xx_hal_rtc_ex.c **** 
 927:Drivers/STM32F0xx_HAL_Driver/Src/stm32f0xx_hal_rtc_ex.c ****   /* Clear the Wakeup Timer clock source bits in CR register */
 928:Drivers/STM32F0xx_HAL_Driver/Src/stm32f0xx_hal_rtc_ex.c ****   hrtc->Instance->CR &= (uint32_t)~RTC_CR_WUCKSEL;
 1864              		.loc 1 928 22 view .LVU590
ARM GAS  /var/folders/vr/85797ndx6jd_r3n_lsprlrj40000gn/T//ccBlM6ZE.s 			page 54


 1865 0088 0721     		movs	r1, #7
 925:Drivers/STM32F0xx_HAL_Driver/Src/stm32f0xx_hal_rtc_ex.c **** 
 1866              		.loc 1 925 24 view .LVU591
 1867 008a 5A61     		str	r2, [r3, #20]
 1868              		.loc 1 928 3 is_stmt 1 view .LVU592
 1869              		.loc 1 928 22 is_stmt 0 view .LVU593
 1870 008c 9A68     		ldr	r2, [r3, #8]
 1871 008e 8A43     		bics	r2, r1
 929:Drivers/STM32F0xx_HAL_Driver/Src/stm32f0xx_hal_rtc_ex.c **** 
 930:Drivers/STM32F0xx_HAL_Driver/Src/stm32f0xx_hal_rtc_ex.c ****   /* Configure the clock source */
 931:Drivers/STM32F0xx_HAL_Driver/Src/stm32f0xx_hal_rtc_ex.c ****   hrtc->Instance->CR |= (uint32_t)WakeUpClock;
 1872              		.loc 1 931 22 view .LVU594
 1873 0090 4946     		mov	r1, r9
 928:Drivers/STM32F0xx_HAL_Driver/Src/stm32f0xx_hal_rtc_ex.c **** 
 1874              		.loc 1 928 22 view .LVU595
 1875 0092 9A60     		str	r2, [r3, #8]
 1876              		.loc 1 931 3 is_stmt 1 view .LVU596
 1877              		.loc 1 931 22 is_stmt 0 view .LVU597
 1878 0094 9A68     		ldr	r2, [r3, #8]
 1879 0096 0A43     		orrs	r2, r1
 932:Drivers/STM32F0xx_HAL_Driver/Src/stm32f0xx_hal_rtc_ex.c **** 
 933:Drivers/STM32F0xx_HAL_Driver/Src/stm32f0xx_hal_rtc_ex.c ****   /* RTC WakeUpTimer Interrupt Configuration: EXTI configuration */
 934:Drivers/STM32F0xx_HAL_Driver/Src/stm32f0xx_hal_rtc_ex.c ****   __HAL_RTC_WAKEUPTIMER_EXTI_ENABLE_IT();
 1880              		.loc 1 934 3 view .LVU598
 1881 0098 8021     		movs	r1, #128
 931:Drivers/STM32F0xx_HAL_Driver/Src/stm32f0xx_hal_rtc_ex.c **** 
 1882              		.loc 1 931 22 view .LVU599
 1883 009a 9A60     		str	r2, [r3, #8]
 1884              		.loc 1 934 3 is_stmt 1 view .LVU600
 1885 009c 1A4A     		ldr	r2, .L145+8
 1886 009e 4903     		lsls	r1, r1, #13
 1887 00a0 1068     		ldr	r0, [r2]
 1888 00a2 0843     		orrs	r0, r1
 1889 00a4 1060     		str	r0, [r2]
 935:Drivers/STM32F0xx_HAL_Driver/Src/stm32f0xx_hal_rtc_ex.c **** 
 936:Drivers/STM32F0xx_HAL_Driver/Src/stm32f0xx_hal_rtc_ex.c ****   __HAL_RTC_WAKEUPTIMER_EXTI_ENABLE_RISING_EDGE();
 1890              		.loc 1 936 3 view .LVU601
 1891 00a6 9068     		ldr	r0, [r2, #8]
 1892 00a8 0143     		orrs	r1, r0
 1893 00aa 9160     		str	r1, [r2, #8]
 937:Drivers/STM32F0xx_HAL_Driver/Src/stm32f0xx_hal_rtc_ex.c **** 
 938:Drivers/STM32F0xx_HAL_Driver/Src/stm32f0xx_hal_rtc_ex.c ****   /* Configure the Interrupt in the RTC_CR register */
 939:Drivers/STM32F0xx_HAL_Driver/Src/stm32f0xx_hal_rtc_ex.c ****   __HAL_RTC_WAKEUPTIMER_ENABLE_IT(hrtc,RTC_IT_WUT);
 1894              		.loc 1 939 3 view .LVU602
 1895 00ac 8022     		movs	r2, #128
 1896 00ae 9968     		ldr	r1, [r3, #8]
 1897 00b0 D201     		lsls	r2, r2, #7
 1898 00b2 0A43     		orrs	r2, r1
 1899 00b4 9A60     		str	r2, [r3, #8]
 940:Drivers/STM32F0xx_HAL_Driver/Src/stm32f0xx_hal_rtc_ex.c ****   
 941:Drivers/STM32F0xx_HAL_Driver/Src/stm32f0xx_hal_rtc_ex.c ****   /* Enable the Wakeup Timer */
 942:Drivers/STM32F0xx_HAL_Driver/Src/stm32f0xx_hal_rtc_ex.c ****   __HAL_RTC_WAKEUPTIMER_ENABLE(hrtc);
 1900              		.loc 1 942 3 view .LVU603
 1901 00b6 8022     		movs	r2, #128
 1902 00b8 9968     		ldr	r1, [r3, #8]
 1903 00ba D200     		lsls	r2, r2, #3
 1904 00bc 0A43     		orrs	r2, r1
ARM GAS  /var/folders/vr/85797ndx6jd_r3n_lsprlrj40000gn/T//ccBlM6ZE.s 			page 55


 1905 00be 9A60     		str	r2, [r3, #8]
 943:Drivers/STM32F0xx_HAL_Driver/Src/stm32f0xx_hal_rtc_ex.c **** 
 944:Drivers/STM32F0xx_HAL_Driver/Src/stm32f0xx_hal_rtc_ex.c ****   /* Enable the write protection for RTC registers */
 945:Drivers/STM32F0xx_HAL_Driver/Src/stm32f0xx_hal_rtc_ex.c ****   __HAL_RTC_WRITEPROTECTION_ENABLE(hrtc);
 1906              		.loc 1 945 3 view .LVU604
 1907              		.loc 1 945 3 view .LVU605
 1908 00c0 FF22     		movs	r2, #255
 1909 00c2 5A62     		str	r2, [r3, #36]
 946:Drivers/STM32F0xx_HAL_Driver/Src/stm32f0xx_hal_rtc_ex.c **** 
 947:Drivers/STM32F0xx_HAL_Driver/Src/stm32f0xx_hal_rtc_ex.c ****   hrtc->State = HAL_RTC_STATE_READY;
 1910              		.loc 1 947 3 view .LVU606
 1911              		.loc 1 947 15 is_stmt 0 view .LVU607
 1912 00c4 0123     		movs	r3, #1
 1913 00c6 6B77     		strb	r3, [r5, #29]
 948:Drivers/STM32F0xx_HAL_Driver/Src/stm32f0xx_hal_rtc_ex.c **** 
 949:Drivers/STM32F0xx_HAL_Driver/Src/stm32f0xx_hal_rtc_ex.c ****   /* Process Unlocked */
 950:Drivers/STM32F0xx_HAL_Driver/Src/stm32f0xx_hal_rtc_ex.c ****   __HAL_UNLOCK(hrtc);
 1914              		.loc 1 950 3 is_stmt 1 view .LVU608
 1915              		.loc 1 950 3 view .LVU609
 1916 00c8 0023     		movs	r3, #0
 951:Drivers/STM32F0xx_HAL_Driver/Src/stm32f0xx_hal_rtc_ex.c **** 
 952:Drivers/STM32F0xx_HAL_Driver/Src/stm32f0xx_hal_rtc_ex.c ****   return HAL_OK;
 1917              		.loc 1 952 10 is_stmt 0 view .LVU610
 1918 00ca 0020     		movs	r0, #0
 950:Drivers/STM32F0xx_HAL_Driver/Src/stm32f0xx_hal_rtc_ex.c **** 
 1919              		.loc 1 950 3 view .LVU611
 1920 00cc 2B77     		strb	r3, [r5, #28]
 1921              		.loc 1 952 3 is_stmt 1 view .LVU612
 1922              	.LVL134:
 1923              	.L131:
 953:Drivers/STM32F0xx_HAL_Driver/Src/stm32f0xx_hal_rtc_ex.c **** }
 1924              		.loc 1 953 1 is_stmt 0 view .LVU613
 1925              		@ sp needed
 1926              	.LVL135:
 1927              	.LVL136:
 1928              	.LVL137:
 1929              		.loc 1 953 1 view .LVU614
 1930 00ce 1CBC     		pop	{r2, r3, r4}
 1931 00d0 9046     		mov	r8, r2
 1932 00d2 9946     		mov	r9, r3
 1933 00d4 A246     		mov	r10, r4
 1934 00d6 F0BD     		pop	{r4, r5, r6, r7, pc}
 1935              	.LVL138:
 1936              	.L144:
 913:Drivers/STM32F0xx_HAL_Driver/Src/stm32f0xx_hal_rtc_ex.c **** 
 1937              		.loc 1 913 7 is_stmt 1 view .LVU615
 913:Drivers/STM32F0xx_HAL_Driver/Src/stm32f0xx_hal_rtc_ex.c **** 
 1938              		.loc 1 913 7 view .LVU616
 1939 00d8 FF22     		movs	r2, #255
 1940 00da 2B68     		ldr	r3, [r5]
 1941              	.LVL139:
 920:Drivers/STM32F0xx_HAL_Driver/Src/stm32f0xx_hal_rtc_ex.c ****     }
 1942              		.loc 1 920 14 is_stmt 0 view .LVU617
 1943 00dc 0320     		movs	r0, #3
 913:Drivers/STM32F0xx_HAL_Driver/Src/stm32f0xx_hal_rtc_ex.c **** 
 1944              		.loc 1 913 7 view .LVU618
 1945 00de 5A62     		str	r2, [r3, #36]
ARM GAS  /var/folders/vr/85797ndx6jd_r3n_lsprlrj40000gn/T//ccBlM6ZE.s 			page 56


 915:Drivers/STM32F0xx_HAL_Driver/Src/stm32f0xx_hal_rtc_ex.c **** 
 1946              		.loc 1 915 7 is_stmt 1 view .LVU619
 915:Drivers/STM32F0xx_HAL_Driver/Src/stm32f0xx_hal_rtc_ex.c **** 
 1947              		.loc 1 915 19 is_stmt 0 view .LVU620
 1948 00e0 0323     		movs	r3, #3
 918:Drivers/STM32F0xx_HAL_Driver/Src/stm32f0xx_hal_rtc_ex.c **** 
 1949              		.loc 1 918 7 view .LVU621
 1950 00e2 2C77     		strb	r4, [r5, #28]
 915:Drivers/STM32F0xx_HAL_Driver/Src/stm32f0xx_hal_rtc_ex.c **** 
 1951              		.loc 1 915 19 view .LVU622
 1952 00e4 6B77     		strb	r3, [r5, #29]
 918:Drivers/STM32F0xx_HAL_Driver/Src/stm32f0xx_hal_rtc_ex.c **** 
 1953              		.loc 1 918 7 is_stmt 1 view .LVU623
 918:Drivers/STM32F0xx_HAL_Driver/Src/stm32f0xx_hal_rtc_ex.c **** 
 1954              		.loc 1 918 7 view .LVU624
 920:Drivers/STM32F0xx_HAL_Driver/Src/stm32f0xx_hal_rtc_ex.c ****     }
 1955              		.loc 1 920 7 view .LVU625
 920:Drivers/STM32F0xx_HAL_Driver/Src/stm32f0xx_hal_rtc_ex.c ****     }
 1956              		.loc 1 920 14 is_stmt 0 view .LVU626
 1957 00e6 F2E7     		b	.L131
 1958              	.LVL140:
 1959              	.L143:
 887:Drivers/STM32F0xx_HAL_Driver/Src/stm32f0xx_hal_rtc_ex.c **** 
 1960              		.loc 1 887 8 is_stmt 1 view .LVU627
 887:Drivers/STM32F0xx_HAL_Driver/Src/stm32f0xx_hal_rtc_ex.c **** 
 1961              		.loc 1 887 8 view .LVU628
 1962 00e8 FF22     		movs	r2, #255
 1963 00ea 2B68     		ldr	r3, [r5]
 894:Drivers/STM32F0xx_HAL_Driver/Src/stm32f0xx_hal_rtc_ex.c ****       }
 1964              		.loc 1 894 15 is_stmt 0 view .LVU629
 1965 00ec 0320     		movs	r0, #3
 887:Drivers/STM32F0xx_HAL_Driver/Src/stm32f0xx_hal_rtc_ex.c **** 
 1966              		.loc 1 887 8 view .LVU630
 1967 00ee 5A62     		str	r2, [r3, #36]
 889:Drivers/STM32F0xx_HAL_Driver/Src/stm32f0xx_hal_rtc_ex.c **** 
 1968              		.loc 1 889 8 is_stmt 1 view .LVU631
 889:Drivers/STM32F0xx_HAL_Driver/Src/stm32f0xx_hal_rtc_ex.c **** 
 1969              		.loc 1 889 20 is_stmt 0 view .LVU632
 1970 00f0 0323     		movs	r3, #3
 1971 00f2 6B77     		strb	r3, [r5, #29]
 892:Drivers/STM32F0xx_HAL_Driver/Src/stm32f0xx_hal_rtc_ex.c **** 
 1972              		.loc 1 892 8 is_stmt 1 view .LVU633
 892:Drivers/STM32F0xx_HAL_Driver/Src/stm32f0xx_hal_rtc_ex.c **** 
 1973              		.loc 1 892 8 view .LVU634
 1974 00f4 0023     		movs	r3, #0
 1975 00f6 2B77     		strb	r3, [r5, #28]
 894:Drivers/STM32F0xx_HAL_Driver/Src/stm32f0xx_hal_rtc_ex.c ****       }
 1976              		.loc 1 894 8 view .LVU635
 894:Drivers/STM32F0xx_HAL_Driver/Src/stm32f0xx_hal_rtc_ex.c ****       }
 1977              		.loc 1 894 15 is_stmt 0 view .LVU636
 1978 00f8 E9E7     		b	.L131
 1979              	.LVL141:
 1980              	.L137:
 870:Drivers/STM32F0xx_HAL_Driver/Src/stm32f0xx_hal_rtc_ex.c **** 
 1981              		.loc 1 870 3 view .LVU637
 1982 00fa 0220     		movs	r0, #2
 1983              	.LVL142:
ARM GAS  /var/folders/vr/85797ndx6jd_r3n_lsprlrj40000gn/T//ccBlM6ZE.s 			page 57


 870:Drivers/STM32F0xx_HAL_Driver/Src/stm32f0xx_hal_rtc_ex.c **** 
 1984              		.loc 1 870 3 view .LVU638
 1985 00fc E7E7     		b	.L131
 1986              	.L146:
 1987 00fe C046     		.align	2
 1988              	.L145:
 1989 0100 FFFBFFFF 		.word	-1025
 1990 0104 7FFBFFFF 		.word	-1153
 1991 0108 00040140 		.word	1073808384
 1992              		.cfi_endproc
 1993              	.LFE52:
 1995              		.section	.text.HAL_RTCEx_DeactivateWakeUpTimer,"ax",%progbits
 1996              		.align	1
 1997              		.p2align 2,,3
 1998              		.global	HAL_RTCEx_DeactivateWakeUpTimer
 1999              		.syntax unified
 2000              		.code	16
 2001              		.thumb_func
 2002              		.fpu softvfp
 2004              	HAL_RTCEx_DeactivateWakeUpTimer:
 2005              	.LVL143:
 2006              	.LFB53:
 954:Drivers/STM32F0xx_HAL_Driver/Src/stm32f0xx_hal_rtc_ex.c **** 
 955:Drivers/STM32F0xx_HAL_Driver/Src/stm32f0xx_hal_rtc_ex.c **** /**
 956:Drivers/STM32F0xx_HAL_Driver/Src/stm32f0xx_hal_rtc_ex.c ****   * @brief  Deactivate wake up timer counter.
 957:Drivers/STM32F0xx_HAL_Driver/Src/stm32f0xx_hal_rtc_ex.c ****   * @param  hrtc RTC handle 
 958:Drivers/STM32F0xx_HAL_Driver/Src/stm32f0xx_hal_rtc_ex.c ****   * @retval HAL status
 959:Drivers/STM32F0xx_HAL_Driver/Src/stm32f0xx_hal_rtc_ex.c ****   */
 960:Drivers/STM32F0xx_HAL_Driver/Src/stm32f0xx_hal_rtc_ex.c **** uint32_t HAL_RTCEx_DeactivateWakeUpTimer(RTC_HandleTypeDef *hrtc)
 961:Drivers/STM32F0xx_HAL_Driver/Src/stm32f0xx_hal_rtc_ex.c **** {
 2007              		.loc 1 961 1 is_stmt 1 view -0
 2008              		.cfi_startproc
 2009              		@ args = 0, pretend = 0, frame = 0
 2010              		@ frame_needed = 0, uses_anonymous_args = 0
 962:Drivers/STM32F0xx_HAL_Driver/Src/stm32f0xx_hal_rtc_ex.c ****   uint32_t tickstart = 0U;
 2011              		.loc 1 962 3 view .LVU640
 963:Drivers/STM32F0xx_HAL_Driver/Src/stm32f0xx_hal_rtc_ex.c **** 
 964:Drivers/STM32F0xx_HAL_Driver/Src/stm32f0xx_hal_rtc_ex.c ****   /* Process Locked */
 965:Drivers/STM32F0xx_HAL_Driver/Src/stm32f0xx_hal_rtc_ex.c ****   __HAL_LOCK(hrtc);
 2012              		.loc 1 965 3 view .LVU641
 2013              		.loc 1 965 3 view .LVU642
 961:Drivers/STM32F0xx_HAL_Driver/Src/stm32f0xx_hal_rtc_ex.c ****   uint32_t tickstart = 0U;
 2014              		.loc 1 961 1 is_stmt 0 view .LVU643
 2015 0000 F0B5     		push	{r4, r5, r6, r7, lr}
 2016              	.LCFI15:
 2017              		.cfi_def_cfa_offset 20
 2018              		.cfi_offset 4, -20
 2019              		.cfi_offset 5, -16
 2020              		.cfi_offset 6, -12
 2021              		.cfi_offset 7, -8
 2022              		.cfi_offset 14, -4
 2023 0002 C646     		mov	lr, r8
 2024 0004 00B5     		push	{lr}
 2025              	.LCFI16:
 2026              		.cfi_def_cfa_offset 24
 2027              		.cfi_offset 8, -24
 2028              		.loc 1 965 3 view .LVU644
ARM GAS  /var/folders/vr/85797ndx6jd_r3n_lsprlrj40000gn/T//ccBlM6ZE.s 			page 58


 2029 0006 037F     		ldrb	r3, [r0, #28]
 961:Drivers/STM32F0xx_HAL_Driver/Src/stm32f0xx_hal_rtc_ex.c ****   uint32_t tickstart = 0U;
 2030              		.loc 1 961 1 view .LVU645
 2031 0008 0500     		movs	r5, r0
 2032              		.loc 1 965 3 view .LVU646
 2033 000a 012B     		cmp	r3, #1
 2034 000c 33D0     		beq	.L151
 2035              		.loc 1 965 3 is_stmt 1 discriminator 2 view .LVU647
 2036 000e 0123     		movs	r3, #1
 966:Drivers/STM32F0xx_HAL_Driver/Src/stm32f0xx_hal_rtc_ex.c **** 
 967:Drivers/STM32F0xx_HAL_Driver/Src/stm32f0xx_hal_rtc_ex.c ****   hrtc->State = HAL_RTC_STATE_BUSY;
 968:Drivers/STM32F0xx_HAL_Driver/Src/stm32f0xx_hal_rtc_ex.c **** 
 969:Drivers/STM32F0xx_HAL_Driver/Src/stm32f0xx_hal_rtc_ex.c ****   /* Disable the write protection for RTC registers */
 970:Drivers/STM32F0xx_HAL_Driver/Src/stm32f0xx_hal_rtc_ex.c ****   __HAL_RTC_WRITEPROTECTION_DISABLE(hrtc);
 2037              		.loc 1 970 3 is_stmt 0 discriminator 2 view .LVU648
 2038 0010 CA22     		movs	r2, #202
 965:Drivers/STM32F0xx_HAL_Driver/Src/stm32f0xx_hal_rtc_ex.c **** 
 2039              		.loc 1 965 3 discriminator 2 view .LVU649
 2040 0012 0377     		strb	r3, [r0, #28]
 967:Drivers/STM32F0xx_HAL_Driver/Src/stm32f0xx_hal_rtc_ex.c **** 
 2041              		.loc 1 967 3 is_stmt 1 discriminator 2 view .LVU650
 967:Drivers/STM32F0xx_HAL_Driver/Src/stm32f0xx_hal_rtc_ex.c **** 
 2042              		.loc 1 967 15 is_stmt 0 discriminator 2 view .LVU651
 2043 0014 0133     		adds	r3, r3, #1
 2044 0016 4377     		strb	r3, [r0, #29]
 2045              		.loc 1 970 3 is_stmt 1 discriminator 2 view .LVU652
 2046              		.loc 1 970 3 discriminator 2 view .LVU653
 2047 0018 0368     		ldr	r3, [r0]
 971:Drivers/STM32F0xx_HAL_Driver/Src/stm32f0xx_hal_rtc_ex.c **** 
 972:Drivers/STM32F0xx_HAL_Driver/Src/stm32f0xx_hal_rtc_ex.c ****   /* Disable the Wakeup Timer */
 973:Drivers/STM32F0xx_HAL_Driver/Src/stm32f0xx_hal_rtc_ex.c ****   __HAL_RTC_WAKEUPTIMER_DISABLE(hrtc);
 2048              		.loc 1 973 3 is_stmt 0 discriminator 2 view .LVU654
 2049 001a 1849     		ldr	r1, .L154
 970:Drivers/STM32F0xx_HAL_Driver/Src/stm32f0xx_hal_rtc_ex.c **** 
 2050              		.loc 1 970 3 discriminator 2 view .LVU655
 2051 001c 5A62     		str	r2, [r3, #36]
 970:Drivers/STM32F0xx_HAL_Driver/Src/stm32f0xx_hal_rtc_ex.c **** 
 2052              		.loc 1 970 3 is_stmt 1 discriminator 2 view .LVU656
 2053 001e 773A     		subs	r2, r2, #119
 2054 0020 5A62     		str	r2, [r3, #36]
 2055              		.loc 1 973 3 discriminator 2 view .LVU657
 2056 0022 9A68     		ldr	r2, [r3, #8]
 974:Drivers/STM32F0xx_HAL_Driver/Src/stm32f0xx_hal_rtc_ex.c **** 
 975:Drivers/STM32F0xx_HAL_Driver/Src/stm32f0xx_hal_rtc_ex.c ****   /* In case of interrupt mode is used, the interrupt source must disabled */
 976:Drivers/STM32F0xx_HAL_Driver/Src/stm32f0xx_hal_rtc_ex.c ****   __HAL_RTC_WAKEUPTIMER_DISABLE_IT(hrtc,RTC_IT_WUT);
 977:Drivers/STM32F0xx_HAL_Driver/Src/stm32f0xx_hal_rtc_ex.c **** 
 978:Drivers/STM32F0xx_HAL_Driver/Src/stm32f0xx_hal_rtc_ex.c ****   tickstart = HAL_GetTick();
 979:Drivers/STM32F0xx_HAL_Driver/Src/stm32f0xx_hal_rtc_ex.c ****   /* Wait till RTC WUTWF flag is set and if Time out is reached exit */
 980:Drivers/STM32F0xx_HAL_Driver/Src/stm32f0xx_hal_rtc_ex.c ****   while(__HAL_RTC_WAKEUPTIMER_GET_FLAG(hrtc, RTC_FLAG_WUTWF) == RESET)
 981:Drivers/STM32F0xx_HAL_Driver/Src/stm32f0xx_hal_rtc_ex.c ****   {
 982:Drivers/STM32F0xx_HAL_Driver/Src/stm32f0xx_hal_rtc_ex.c ****     if((HAL_GetTick()-tickstart) > RTC_TIMEOUT_VALUE)
 2057              		.loc 1 982 7 is_stmt 0 discriminator 2 view .LVU658
 2058 0024 FA27     		movs	r7, #250
 973:Drivers/STM32F0xx_HAL_Driver/Src/stm32f0xx_hal_rtc_ex.c **** 
 2059              		.loc 1 973 3 discriminator 2 view .LVU659
 2060 0026 0A40     		ands	r2, r1
 2061 0028 9A60     		str	r2, [r3, #8]
ARM GAS  /var/folders/vr/85797ndx6jd_r3n_lsprlrj40000gn/T//ccBlM6ZE.s 			page 59


 976:Drivers/STM32F0xx_HAL_Driver/Src/stm32f0xx_hal_rtc_ex.c **** 
 2062              		.loc 1 976 3 is_stmt 1 discriminator 2 view .LVU660
 2063 002a 9A68     		ldr	r2, [r3, #8]
 2064 002c 1449     		ldr	r1, .L154+4
 980:Drivers/STM32F0xx_HAL_Driver/Src/stm32f0xx_hal_rtc_ex.c ****   {
 2065              		.loc 1 980 9 is_stmt 0 discriminator 2 view .LVU661
 2066 002e 0426     		movs	r6, #4
 976:Drivers/STM32F0xx_HAL_Driver/Src/stm32f0xx_hal_rtc_ex.c **** 
 2067              		.loc 1 976 3 discriminator 2 view .LVU662
 2068 0030 0A40     		ands	r2, r1
 2069 0032 9A60     		str	r2, [r3, #8]
 978:Drivers/STM32F0xx_HAL_Driver/Src/stm32f0xx_hal_rtc_ex.c ****   /* Wait till RTC WUTWF flag is set and if Time out is reached exit */
 2070              		.loc 1 978 3 is_stmt 1 discriminator 2 view .LVU663
 978:Drivers/STM32F0xx_HAL_Driver/Src/stm32f0xx_hal_rtc_ex.c ****   /* Wait till RTC WUTWF flag is set and if Time out is reached exit */
 2071              		.loc 1 978 15 is_stmt 0 discriminator 2 view .LVU664
 2072 0034 FFF7FEFF 		bl	HAL_GetTick
 2073              	.LVL144:
 2074              		.loc 1 982 7 discriminator 2 view .LVU665
 2075 0038 BF00     		lsls	r7, r7, #2
 978:Drivers/STM32F0xx_HAL_Driver/Src/stm32f0xx_hal_rtc_ex.c ****   /* Wait till RTC WUTWF flag is set and if Time out is reached exit */
 2076              		.loc 1 978 15 discriminator 2 view .LVU666
 2077 003a 8046     		mov	r8, r0
 2078              	.LVL145:
 980:Drivers/STM32F0xx_HAL_Driver/Src/stm32f0xx_hal_rtc_ex.c ****   {
 2079              		.loc 1 980 3 is_stmt 1 discriminator 2 view .LVU667
 980:Drivers/STM32F0xx_HAL_Driver/Src/stm32f0xx_hal_rtc_ex.c ****   {
 2080              		.loc 1 980 8 is_stmt 0 discriminator 2 view .LVU668
 2081 003c 05E0     		b	.L149
 2082              	.LVL146:
 2083              	.L150:
 2084              		.loc 1 982 5 is_stmt 1 view .LVU669
 2085              		.loc 1 982 9 is_stmt 0 view .LVU670
 2086 003e FFF7FEFF 		bl	HAL_GetTick
 2087              	.LVL147:
 2088              		.loc 1 982 22 view .LVU671
 2089 0042 4346     		mov	r3, r8
 2090 0044 C01A     		subs	r0, r0, r3
 2091              		.loc 1 982 7 view .LVU672
 2092 0046 B842     		cmp	r0, r7
 2093 0048 0DD8     		bhi	.L153
 2094              	.L149:
 980:Drivers/STM32F0xx_HAL_Driver/Src/stm32f0xx_hal_rtc_ex.c ****   {
 2095              		.loc 1 980 9 view .LVU673
 2096 004a 2B68     		ldr	r3, [r5]
 2097 004c DC68     		ldr	r4, [r3, #12]
 2098 004e 3440     		ands	r4, r6
 980:Drivers/STM32F0xx_HAL_Driver/Src/stm32f0xx_hal_rtc_ex.c ****   {
 2099              		.loc 1 980 8 view .LVU674
 2100 0050 F5D0     		beq	.L150
 983:Drivers/STM32F0xx_HAL_Driver/Src/stm32f0xx_hal_rtc_ex.c ****     {
 984:Drivers/STM32F0xx_HAL_Driver/Src/stm32f0xx_hal_rtc_ex.c ****       /* Enable the write protection for RTC registers */
 985:Drivers/STM32F0xx_HAL_Driver/Src/stm32f0xx_hal_rtc_ex.c ****       __HAL_RTC_WRITEPROTECTION_ENABLE(hrtc);
 986:Drivers/STM32F0xx_HAL_Driver/Src/stm32f0xx_hal_rtc_ex.c **** 
 987:Drivers/STM32F0xx_HAL_Driver/Src/stm32f0xx_hal_rtc_ex.c ****       hrtc->State = HAL_RTC_STATE_TIMEOUT;
 988:Drivers/STM32F0xx_HAL_Driver/Src/stm32f0xx_hal_rtc_ex.c **** 
 989:Drivers/STM32F0xx_HAL_Driver/Src/stm32f0xx_hal_rtc_ex.c ****       /* Process Unlocked */
 990:Drivers/STM32F0xx_HAL_Driver/Src/stm32f0xx_hal_rtc_ex.c ****       __HAL_UNLOCK(hrtc);
ARM GAS  /var/folders/vr/85797ndx6jd_r3n_lsprlrj40000gn/T//ccBlM6ZE.s 			page 60


 991:Drivers/STM32F0xx_HAL_Driver/Src/stm32f0xx_hal_rtc_ex.c **** 
 992:Drivers/STM32F0xx_HAL_Driver/Src/stm32f0xx_hal_rtc_ex.c ****       return HAL_TIMEOUT;
 993:Drivers/STM32F0xx_HAL_Driver/Src/stm32f0xx_hal_rtc_ex.c ****     }
 994:Drivers/STM32F0xx_HAL_Driver/Src/stm32f0xx_hal_rtc_ex.c ****   }
 995:Drivers/STM32F0xx_HAL_Driver/Src/stm32f0xx_hal_rtc_ex.c **** 
 996:Drivers/STM32F0xx_HAL_Driver/Src/stm32f0xx_hal_rtc_ex.c ****   /* Enable the write protection for RTC registers */
 997:Drivers/STM32F0xx_HAL_Driver/Src/stm32f0xx_hal_rtc_ex.c ****   __HAL_RTC_WRITEPROTECTION_ENABLE(hrtc);
 2101              		.loc 1 997 3 is_stmt 1 view .LVU675
 2102              		.loc 1 997 3 view .LVU676
 2103 0052 FF22     		movs	r2, #255
 2104 0054 5A62     		str	r2, [r3, #36]
 998:Drivers/STM32F0xx_HAL_Driver/Src/stm32f0xx_hal_rtc_ex.c **** 
 999:Drivers/STM32F0xx_HAL_Driver/Src/stm32f0xx_hal_rtc_ex.c ****   hrtc->State = HAL_RTC_STATE_READY;
 2105              		.loc 1 999 3 view .LVU677
 2106              		.loc 1 999 15 is_stmt 0 view .LVU678
 2107 0056 0123     		movs	r3, #1
 2108 0058 6B77     		strb	r3, [r5, #29]
1000:Drivers/STM32F0xx_HAL_Driver/Src/stm32f0xx_hal_rtc_ex.c **** 
1001:Drivers/STM32F0xx_HAL_Driver/Src/stm32f0xx_hal_rtc_ex.c ****   /* Process Unlocked */
1002:Drivers/STM32F0xx_HAL_Driver/Src/stm32f0xx_hal_rtc_ex.c ****   __HAL_UNLOCK(hrtc);
 2109              		.loc 1 1002 3 is_stmt 1 view .LVU679
 2110              		.loc 1 1002 3 view .LVU680
 2111 005a 0023     		movs	r3, #0
1003:Drivers/STM32F0xx_HAL_Driver/Src/stm32f0xx_hal_rtc_ex.c **** 
1004:Drivers/STM32F0xx_HAL_Driver/Src/stm32f0xx_hal_rtc_ex.c ****   return HAL_OK;
 2112              		.loc 1 1004 10 is_stmt 0 view .LVU681
 2113 005c 0020     		movs	r0, #0
1002:Drivers/STM32F0xx_HAL_Driver/Src/stm32f0xx_hal_rtc_ex.c **** 
 2114              		.loc 1 1002 3 view .LVU682
 2115 005e 2B77     		strb	r3, [r5, #28]
 2116              		.loc 1 1004 3 is_stmt 1 view .LVU683
 2117              	.LVL148:
 2118              	.L147:
1005:Drivers/STM32F0xx_HAL_Driver/Src/stm32f0xx_hal_rtc_ex.c **** }
 2119              		.loc 1 1005 1 is_stmt 0 view .LVU684
 2120              		@ sp needed
 2121              	.LVL149:
 2122              		.loc 1 1005 1 view .LVU685
 2123 0060 04BC     		pop	{r2}
 2124 0062 9046     		mov	r8, r2
 2125 0064 F0BD     		pop	{r4, r5, r6, r7, pc}
 2126              	.LVL150:
 2127              	.L153:
 985:Drivers/STM32F0xx_HAL_Driver/Src/stm32f0xx_hal_rtc_ex.c **** 
 2128              		.loc 1 985 7 is_stmt 1 view .LVU686
 985:Drivers/STM32F0xx_HAL_Driver/Src/stm32f0xx_hal_rtc_ex.c **** 
 2129              		.loc 1 985 7 view .LVU687
 2130 0066 FF22     		movs	r2, #255
 2131 0068 2B68     		ldr	r3, [r5]
 2132              	.LVL151:
 992:Drivers/STM32F0xx_HAL_Driver/Src/stm32f0xx_hal_rtc_ex.c ****     }
 2133              		.loc 1 992 14 is_stmt 0 view .LVU688
 2134 006a 0320     		movs	r0, #3
 985:Drivers/STM32F0xx_HAL_Driver/Src/stm32f0xx_hal_rtc_ex.c **** 
 2135              		.loc 1 985 7 view .LVU689
 2136 006c 5A62     		str	r2, [r3, #36]
 987:Drivers/STM32F0xx_HAL_Driver/Src/stm32f0xx_hal_rtc_ex.c **** 
ARM GAS  /var/folders/vr/85797ndx6jd_r3n_lsprlrj40000gn/T//ccBlM6ZE.s 			page 61


 2137              		.loc 1 987 7 is_stmt 1 view .LVU690
 987:Drivers/STM32F0xx_HAL_Driver/Src/stm32f0xx_hal_rtc_ex.c **** 
 2138              		.loc 1 987 19 is_stmt 0 view .LVU691
 2139 006e 0323     		movs	r3, #3
 990:Drivers/STM32F0xx_HAL_Driver/Src/stm32f0xx_hal_rtc_ex.c **** 
 2140              		.loc 1 990 7 view .LVU692
 2141 0070 2C77     		strb	r4, [r5, #28]
 987:Drivers/STM32F0xx_HAL_Driver/Src/stm32f0xx_hal_rtc_ex.c **** 
 2142              		.loc 1 987 19 view .LVU693
 2143 0072 6B77     		strb	r3, [r5, #29]
 990:Drivers/STM32F0xx_HAL_Driver/Src/stm32f0xx_hal_rtc_ex.c **** 
 2144              		.loc 1 990 7 is_stmt 1 view .LVU694
 990:Drivers/STM32F0xx_HAL_Driver/Src/stm32f0xx_hal_rtc_ex.c **** 
 2145              		.loc 1 990 7 view .LVU695
 992:Drivers/STM32F0xx_HAL_Driver/Src/stm32f0xx_hal_rtc_ex.c ****     }
 2146              		.loc 1 992 7 view .LVU696
 992:Drivers/STM32F0xx_HAL_Driver/Src/stm32f0xx_hal_rtc_ex.c ****     }
 2147              		.loc 1 992 14 is_stmt 0 view .LVU697
 2148 0074 F4E7     		b	.L147
 2149              	.LVL152:
 2150              	.L151:
 965:Drivers/STM32F0xx_HAL_Driver/Src/stm32f0xx_hal_rtc_ex.c **** 
 2151              		.loc 1 965 3 view .LVU698
 2152 0076 0220     		movs	r0, #2
 2153              	.LVL153:
 965:Drivers/STM32F0xx_HAL_Driver/Src/stm32f0xx_hal_rtc_ex.c **** 
 2154              		.loc 1 965 3 view .LVU699
 2155 0078 F2E7     		b	.L147
 2156              	.L155:
 2157 007a C046     		.align	2
 2158              	.L154:
 2159 007c FFFBFFFF 		.word	-1025
 2160 0080 FFBFFFFF 		.word	-16385
 2161              		.cfi_endproc
 2162              	.LFE53:
 2164              		.section	.text.HAL_RTCEx_GetWakeUpTimer,"ax",%progbits
 2165              		.align	1
 2166              		.p2align 2,,3
 2167              		.global	HAL_RTCEx_GetWakeUpTimer
 2168              		.syntax unified
 2169              		.code	16
 2170              		.thumb_func
 2171              		.fpu softvfp
 2173              	HAL_RTCEx_GetWakeUpTimer:
 2174              	.LVL154:
 2175              	.LFB54:
1006:Drivers/STM32F0xx_HAL_Driver/Src/stm32f0xx_hal_rtc_ex.c **** 
1007:Drivers/STM32F0xx_HAL_Driver/Src/stm32f0xx_hal_rtc_ex.c **** /**
1008:Drivers/STM32F0xx_HAL_Driver/Src/stm32f0xx_hal_rtc_ex.c ****   * @brief  Get wake up timer counter.
1009:Drivers/STM32F0xx_HAL_Driver/Src/stm32f0xx_hal_rtc_ex.c ****   * @param  hrtc RTC handle 
1010:Drivers/STM32F0xx_HAL_Driver/Src/stm32f0xx_hal_rtc_ex.c ****   * @retval Counter value
1011:Drivers/STM32F0xx_HAL_Driver/Src/stm32f0xx_hal_rtc_ex.c ****   */
1012:Drivers/STM32F0xx_HAL_Driver/Src/stm32f0xx_hal_rtc_ex.c **** uint32_t HAL_RTCEx_GetWakeUpTimer(RTC_HandleTypeDef *hrtc)
1013:Drivers/STM32F0xx_HAL_Driver/Src/stm32f0xx_hal_rtc_ex.c **** {
 2176              		.loc 1 1013 1 is_stmt 1 view -0
 2177              		.cfi_startproc
 2178              		@ args = 0, pretend = 0, frame = 0
ARM GAS  /var/folders/vr/85797ndx6jd_r3n_lsprlrj40000gn/T//ccBlM6ZE.s 			page 62


 2179              		@ frame_needed = 0, uses_anonymous_args = 0
 2180              		@ link register save eliminated.
1014:Drivers/STM32F0xx_HAL_Driver/Src/stm32f0xx_hal_rtc_ex.c ****   /* Get the counter value */
1015:Drivers/STM32F0xx_HAL_Driver/Src/stm32f0xx_hal_rtc_ex.c ****   return ((uint32_t)(hrtc->Instance->WUTR & RTC_WUTR_WUT));
 2181              		.loc 1 1015 3 view .LVU701
 2182              		.loc 1 1015 26 is_stmt 0 view .LVU702
 2183 0000 0368     		ldr	r3, [r0]
1016:Drivers/STM32F0xx_HAL_Driver/Src/stm32f0xx_hal_rtc_ex.c **** }
 2184              		.loc 1 1016 1 view .LVU703
 2185              		@ sp needed
1015:Drivers/STM32F0xx_HAL_Driver/Src/stm32f0xx_hal_rtc_ex.c **** }
 2186              		.loc 1 1015 36 view .LVU704
 2187 0002 5869     		ldr	r0, [r3, #20]
 2188              	.LVL155:
1015:Drivers/STM32F0xx_HAL_Driver/Src/stm32f0xx_hal_rtc_ex.c **** }
 2189              		.loc 1 1015 11 view .LVU705
 2190 0004 0004     		lsls	r0, r0, #16
 2191 0006 000C     		lsrs	r0, r0, #16
 2192              		.loc 1 1016 1 view .LVU706
 2193 0008 7047     		bx	lr
 2194              		.cfi_endproc
 2195              	.LFE54:
 2197 000a C046     		.section	.text.HAL_RTCEx_WakeUpTimerEventCallback,"ax",%progbits
 2198              		.align	1
 2199              		.p2align 2,,3
 2200              		.weak	HAL_RTCEx_WakeUpTimerEventCallback
 2201              		.syntax unified
 2202              		.code	16
 2203              		.thumb_func
 2204              		.fpu softvfp
 2206              	HAL_RTCEx_WakeUpTimerEventCallback:
 2207              	.LFB71:
 2208              		.cfi_startproc
 2209              		@ args = 0, pretend = 0, frame = 0
 2210              		@ frame_needed = 0, uses_anonymous_args = 0
 2211              		@ link register save eliminated.
 2212              		@ sp needed
 2213 0000 7047     		bx	lr
 2214              		.cfi_endproc
 2215              	.LFE71:
 2217 0002 C046     		.section	.text.HAL_RTCEx_WakeUpTimerIRQHandler,"ax",%progbits
 2218              		.align	1
 2219              		.p2align 2,,3
 2220              		.global	HAL_RTCEx_WakeUpTimerIRQHandler
 2221              		.syntax unified
 2222              		.code	16
 2223              		.thumb_func
 2224              		.fpu softvfp
 2226              	HAL_RTCEx_WakeUpTimerIRQHandler:
 2227              	.LVL156:
 2228              	.LFB55:
1017:Drivers/STM32F0xx_HAL_Driver/Src/stm32f0xx_hal_rtc_ex.c **** 
1018:Drivers/STM32F0xx_HAL_Driver/Src/stm32f0xx_hal_rtc_ex.c **** /**
1019:Drivers/STM32F0xx_HAL_Driver/Src/stm32f0xx_hal_rtc_ex.c ****   * @brief  Handle Wake Up Timer interrupt request.
1020:Drivers/STM32F0xx_HAL_Driver/Src/stm32f0xx_hal_rtc_ex.c ****   * @param  hrtc RTC handle
1021:Drivers/STM32F0xx_HAL_Driver/Src/stm32f0xx_hal_rtc_ex.c ****   * @retval None
1022:Drivers/STM32F0xx_HAL_Driver/Src/stm32f0xx_hal_rtc_ex.c ****   */
ARM GAS  /var/folders/vr/85797ndx6jd_r3n_lsprlrj40000gn/T//ccBlM6ZE.s 			page 63


1023:Drivers/STM32F0xx_HAL_Driver/Src/stm32f0xx_hal_rtc_ex.c **** void HAL_RTCEx_WakeUpTimerIRQHandler(RTC_HandleTypeDef *hrtc)
1024:Drivers/STM32F0xx_HAL_Driver/Src/stm32f0xx_hal_rtc_ex.c **** {
 2229              		.loc 1 1024 1 is_stmt 1 view -0
 2230              		.cfi_startproc
 2231              		@ args = 0, pretend = 0, frame = 0
 2232              		@ frame_needed = 0, uses_anonymous_args = 0
1025:Drivers/STM32F0xx_HAL_Driver/Src/stm32f0xx_hal_rtc_ex.c ****   /* Get the WAKEUPTIMER interrupt source enable status */
1026:Drivers/STM32F0xx_HAL_Driver/Src/stm32f0xx_hal_rtc_ex.c ****   if(__HAL_RTC_WAKEUPTIMER_GET_IT_SOURCE(hrtc, RTC_IT_WUT) != RESET)
 2233              		.loc 1 1026 3 view .LVU708
 2234              		.loc 1 1026 6 is_stmt 0 view .LVU709
 2235 0000 0368     		ldr	r3, [r0]
1024:Drivers/STM32F0xx_HAL_Driver/Src/stm32f0xx_hal_rtc_ex.c ****   /* Get the WAKEUPTIMER interrupt source enable status */
 2236              		.loc 1 1024 1 view .LVU710
 2237 0002 10B5     		push	{r4, lr}
 2238              	.LCFI17:
 2239              		.cfi_def_cfa_offset 8
 2240              		.cfi_offset 4, -8
 2241              		.cfi_offset 14, -4
 2242              		.loc 1 1026 6 view .LVU711
 2243 0004 9A68     		ldr	r2, [r3, #8]
1024:Drivers/STM32F0xx_HAL_Driver/Src/stm32f0xx_hal_rtc_ex.c ****   /* Get the WAKEUPTIMER interrupt source enable status */
 2244              		.loc 1 1024 1 view .LVU712
 2245 0006 0400     		movs	r4, r0
 2246              		.loc 1 1026 5 view .LVU713
 2247 0008 5204     		lsls	r2, r2, #17
 2248 000a 02D5     		bpl	.L159
1027:Drivers/STM32F0xx_HAL_Driver/Src/stm32f0xx_hal_rtc_ex.c ****   {
1028:Drivers/STM32F0xx_HAL_Driver/Src/stm32f0xx_hal_rtc_ex.c ****    /* Get the pending status of the WAKEUPTIMER Interrupt */
1029:Drivers/STM32F0xx_HAL_Driver/Src/stm32f0xx_hal_rtc_ex.c ****     if(__HAL_RTC_WAKEUPTIMER_GET_FLAG(hrtc, RTC_FLAG_WUTF) != RESET)
 2249              		.loc 1 1029 5 is_stmt 1 view .LVU714
 2250              		.loc 1 1029 8 is_stmt 0 view .LVU715
 2251 000c DB68     		ldr	r3, [r3, #12]
 2252              		.loc 1 1029 7 view .LVU716
 2253 000e 5B05     		lsls	r3, r3, #21
 2254 0010 06D4     		bmi	.L166
 2255              	.LVL157:
 2256              	.L159:
1030:Drivers/STM32F0xx_HAL_Driver/Src/stm32f0xx_hal_rtc_ex.c ****     {
1031:Drivers/STM32F0xx_HAL_Driver/Src/stm32f0xx_hal_rtc_ex.c ****       /* WAKEUPTIMER callback */ 
1032:Drivers/STM32F0xx_HAL_Driver/Src/stm32f0xx_hal_rtc_ex.c ****       HAL_RTCEx_WakeUpTimerEventCallback(hrtc);
1033:Drivers/STM32F0xx_HAL_Driver/Src/stm32f0xx_hal_rtc_ex.c ****       
1034:Drivers/STM32F0xx_HAL_Driver/Src/stm32f0xx_hal_rtc_ex.c ****       /* Clear the WAKEUPTIMER interrupt pending bit */
1035:Drivers/STM32F0xx_HAL_Driver/Src/stm32f0xx_hal_rtc_ex.c ****       __HAL_RTC_WAKEUPTIMER_CLEAR_FLAG(hrtc, RTC_FLAG_WUTF);
1036:Drivers/STM32F0xx_HAL_Driver/Src/stm32f0xx_hal_rtc_ex.c ****     }
1037:Drivers/STM32F0xx_HAL_Driver/Src/stm32f0xx_hal_rtc_ex.c ****   }
1038:Drivers/STM32F0xx_HAL_Driver/Src/stm32f0xx_hal_rtc_ex.c **** 
1039:Drivers/STM32F0xx_HAL_Driver/Src/stm32f0xx_hal_rtc_ex.c ****   /* Clear the EXTI's line Flag for RTC WakeUpTimer */
1040:Drivers/STM32F0xx_HAL_Driver/Src/stm32f0xx_hal_rtc_ex.c ****   __HAL_RTC_WAKEUPTIMER_EXTI_CLEAR_FLAG();
 2257              		.loc 1 1040 3 is_stmt 1 view .LVU717
 2258 0012 8022     		movs	r2, #128
 2259 0014 074B     		ldr	r3, .L167
 2260 0016 5203     		lsls	r2, r2, #13
 2261 0018 5A61     		str	r2, [r3, #20]
1041:Drivers/STM32F0xx_HAL_Driver/Src/stm32f0xx_hal_rtc_ex.c ****   
1042:Drivers/STM32F0xx_HAL_Driver/Src/stm32f0xx_hal_rtc_ex.c ****   /* Change RTC state */
1043:Drivers/STM32F0xx_HAL_Driver/Src/stm32f0xx_hal_rtc_ex.c ****   hrtc->State = HAL_RTC_STATE_READY;
 2262              		.loc 1 1043 3 view .LVU718
ARM GAS  /var/folders/vr/85797ndx6jd_r3n_lsprlrj40000gn/T//ccBlM6ZE.s 			page 64


 2263              		.loc 1 1043 15 is_stmt 0 view .LVU719
 2264 001a 0123     		movs	r3, #1
1044:Drivers/STM32F0xx_HAL_Driver/Src/stm32f0xx_hal_rtc_ex.c **** }
 2265              		.loc 1 1044 1 view .LVU720
 2266              		@ sp needed
1043:Drivers/STM32F0xx_HAL_Driver/Src/stm32f0xx_hal_rtc_ex.c **** }
 2267              		.loc 1 1043 15 view .LVU721
 2268 001c 6377     		strb	r3, [r4, #29]
 2269              	.LVL158:
 2270              		.loc 1 1044 1 view .LVU722
 2271 001e 10BD     		pop	{r4, pc}
 2272              	.LVL159:
 2273              	.L166:
1032:Drivers/STM32F0xx_HAL_Driver/Src/stm32f0xx_hal_rtc_ex.c ****       
 2274              		.loc 1 1032 7 is_stmt 1 view .LVU723
 2275 0020 FFF7FEFF 		bl	HAL_RTCEx_WakeUpTimerEventCallback
 2276              	.LVL160:
1035:Drivers/STM32F0xx_HAL_Driver/Src/stm32f0xx_hal_rtc_ex.c ****     }
 2277              		.loc 1 1035 7 view .LVU724
 2278 0024 FF23     		movs	r3, #255
 2279 0026 2168     		ldr	r1, [r4]
 2280 0028 CA68     		ldr	r2, [r1, #12]
 2281 002a 1A40     		ands	r2, r3
 2282 002c 024B     		ldr	r3, .L167+4
 2283 002e 1343     		orrs	r3, r2
 2284 0030 CB60     		str	r3, [r1, #12]
 2285 0032 EEE7     		b	.L159
 2286              	.L168:
 2287              		.align	2
 2288              	.L167:
 2289 0034 00040140 		.word	1073808384
 2290 0038 7FFBFFFF 		.word	-1153
 2291              		.cfi_endproc
 2292              	.LFE55:
 2294              		.section	.text.HAL_RTCEx_PollForWakeUpTimerEvent,"ax",%progbits
 2295              		.align	1
 2296              		.p2align 2,,3
 2297              		.global	HAL_RTCEx_PollForWakeUpTimerEvent
 2298              		.syntax unified
 2299              		.code	16
 2300              		.thumb_func
 2301              		.fpu softvfp
 2303              	HAL_RTCEx_PollForWakeUpTimerEvent:
 2304              	.LVL161:
 2305              	.LFB57:
1045:Drivers/STM32F0xx_HAL_Driver/Src/stm32f0xx_hal_rtc_ex.c **** 
1046:Drivers/STM32F0xx_HAL_Driver/Src/stm32f0xx_hal_rtc_ex.c **** /**
1047:Drivers/STM32F0xx_HAL_Driver/Src/stm32f0xx_hal_rtc_ex.c ****   * @brief  Wake Up Timer callback.
1048:Drivers/STM32F0xx_HAL_Driver/Src/stm32f0xx_hal_rtc_ex.c ****   * @param  hrtc RTC handle
1049:Drivers/STM32F0xx_HAL_Driver/Src/stm32f0xx_hal_rtc_ex.c ****   * @retval None
1050:Drivers/STM32F0xx_HAL_Driver/Src/stm32f0xx_hal_rtc_ex.c ****   */
1051:Drivers/STM32F0xx_HAL_Driver/Src/stm32f0xx_hal_rtc_ex.c **** __weak void HAL_RTCEx_WakeUpTimerEventCallback(RTC_HandleTypeDef *hrtc)
1052:Drivers/STM32F0xx_HAL_Driver/Src/stm32f0xx_hal_rtc_ex.c **** {
1053:Drivers/STM32F0xx_HAL_Driver/Src/stm32f0xx_hal_rtc_ex.c ****   /* Prevent unused argument(s) compilation warning */
1054:Drivers/STM32F0xx_HAL_Driver/Src/stm32f0xx_hal_rtc_ex.c ****   UNUSED(hrtc);
1055:Drivers/STM32F0xx_HAL_Driver/Src/stm32f0xx_hal_rtc_ex.c **** 
1056:Drivers/STM32F0xx_HAL_Driver/Src/stm32f0xx_hal_rtc_ex.c ****   /* NOTE : This function should not be modified, when the callback is needed,
ARM GAS  /var/folders/vr/85797ndx6jd_r3n_lsprlrj40000gn/T//ccBlM6ZE.s 			page 65


1057:Drivers/STM32F0xx_HAL_Driver/Src/stm32f0xx_hal_rtc_ex.c ****             the HAL_RTCEx_WakeUpTimerEventCallback could be implemented in the user file
1058:Drivers/STM32F0xx_HAL_Driver/Src/stm32f0xx_hal_rtc_ex.c ****    */
1059:Drivers/STM32F0xx_HAL_Driver/Src/stm32f0xx_hal_rtc_ex.c **** }
1060:Drivers/STM32F0xx_HAL_Driver/Src/stm32f0xx_hal_rtc_ex.c **** 
1061:Drivers/STM32F0xx_HAL_Driver/Src/stm32f0xx_hal_rtc_ex.c **** 
1062:Drivers/STM32F0xx_HAL_Driver/Src/stm32f0xx_hal_rtc_ex.c **** /**
1063:Drivers/STM32F0xx_HAL_Driver/Src/stm32f0xx_hal_rtc_ex.c ****   * @brief  Handle Wake Up Timer Polling.
1064:Drivers/STM32F0xx_HAL_Driver/Src/stm32f0xx_hal_rtc_ex.c ****   * @param  hrtc RTC handle
1065:Drivers/STM32F0xx_HAL_Driver/Src/stm32f0xx_hal_rtc_ex.c ****   * @param  Timeout Timeout duration
1066:Drivers/STM32F0xx_HAL_Driver/Src/stm32f0xx_hal_rtc_ex.c ****   * @retval HAL status
1067:Drivers/STM32F0xx_HAL_Driver/Src/stm32f0xx_hal_rtc_ex.c ****   */
1068:Drivers/STM32F0xx_HAL_Driver/Src/stm32f0xx_hal_rtc_ex.c **** HAL_StatusTypeDef HAL_RTCEx_PollForWakeUpTimerEvent(RTC_HandleTypeDef *hrtc, uint32_t Timeout)
1069:Drivers/STM32F0xx_HAL_Driver/Src/stm32f0xx_hal_rtc_ex.c **** {
 2306              		.loc 1 1069 1 view -0
 2307              		.cfi_startproc
 2308              		@ args = 0, pretend = 0, frame = 0
 2309              		@ frame_needed = 0, uses_anonymous_args = 0
1070:Drivers/STM32F0xx_HAL_Driver/Src/stm32f0xx_hal_rtc_ex.c ****   uint32_t tickstart = HAL_GetTick();
 2310              		.loc 1 1070 3 view .LVU726
1069:Drivers/STM32F0xx_HAL_Driver/Src/stm32f0xx_hal_rtc_ex.c ****   uint32_t tickstart = HAL_GetTick();
 2311              		.loc 1 1069 1 is_stmt 0 view .LVU727
 2312 0000 F8B5     		push	{r3, r4, r5, r6, r7, lr}
 2313              	.LCFI18:
 2314              		.cfi_def_cfa_offset 24
 2315              		.cfi_offset 3, -24
 2316              		.cfi_offset 4, -20
 2317              		.cfi_offset 5, -16
 2318              		.cfi_offset 6, -12
 2319              		.cfi_offset 7, -8
 2320              		.cfi_offset 14, -4
1069:Drivers/STM32F0xx_HAL_Driver/Src/stm32f0xx_hal_rtc_ex.c ****   uint32_t tickstart = HAL_GetTick();
 2321              		.loc 1 1069 1 view .LVU728
 2322 0002 0600     		movs	r6, r0
 2323 0004 0C00     		movs	r4, r1
 2324              		.loc 1 1070 24 view .LVU729
 2325 0006 FFF7FEFF 		bl	HAL_GetTick
 2326              	.LVL162:
1071:Drivers/STM32F0xx_HAL_Driver/Src/stm32f0xx_hal_rtc_ex.c **** 
1072:Drivers/STM32F0xx_HAL_Driver/Src/stm32f0xx_hal_rtc_ex.c ****   while(__HAL_RTC_WAKEUPTIMER_GET_FLAG(hrtc, RTC_FLAG_WUTF) == RESET)
 2327              		.loc 1 1072 9 view .LVU730
 2328 000a 8025     		movs	r5, #128
1070:Drivers/STM32F0xx_HAL_Driver/Src/stm32f0xx_hal_rtc_ex.c **** 
 2329              		.loc 1 1070 24 view .LVU731
 2330 000c 0700     		movs	r7, r0
 2331              	.LVL163:
 2332              		.loc 1 1072 3 is_stmt 1 view .LVU732
 2333              		.loc 1 1072 9 is_stmt 0 view .LVU733
 2334 000e ED00     		lsls	r5, r5, #3
 2335              	.LVL164:
 2336              	.L170:
 2337              		.loc 1 1072 9 view .LVU734
 2338 0010 3268     		ldr	r2, [r6]
 2339 0012 01E0     		b	.L171
 2340              	.L175:
1073:Drivers/STM32F0xx_HAL_Driver/Src/stm32f0xx_hal_rtc_ex.c ****   {
1074:Drivers/STM32F0xx_HAL_Driver/Src/stm32f0xx_hal_rtc_ex.c ****     if(Timeout != HAL_MAX_DELAY)
 2341              		.loc 1 1074 5 is_stmt 1 view .LVU735
ARM GAS  /var/folders/vr/85797ndx6jd_r3n_lsprlrj40000gn/T//ccBlM6ZE.s 			page 66


 2342              		.loc 1 1074 7 is_stmt 0 view .LVU736
 2343 0014 631C     		adds	r3, r4, #1
 2344 0016 0CD1     		bne	.L178
 2345              	.L171:
1072:Drivers/STM32F0xx_HAL_Driver/Src/stm32f0xx_hal_rtc_ex.c ****   {
 2346              		.loc 1 1072 9 view .LVU737
 2347 0018 D368     		ldr	r3, [r2, #12]
1072:Drivers/STM32F0xx_HAL_Driver/Src/stm32f0xx_hal_rtc_ex.c ****   {
 2348              		.loc 1 1072 8 view .LVU738
 2349 001a 2B42     		tst	r3, r5
 2350 001c FAD0     		beq	.L175
1075:Drivers/STM32F0xx_HAL_Driver/Src/stm32f0xx_hal_rtc_ex.c ****     {
1076:Drivers/STM32F0xx_HAL_Driver/Src/stm32f0xx_hal_rtc_ex.c ****       if((Timeout == 0U)||((HAL_GetTick() - tickstart ) > Timeout))
1077:Drivers/STM32F0xx_HAL_Driver/Src/stm32f0xx_hal_rtc_ex.c ****       {
1078:Drivers/STM32F0xx_HAL_Driver/Src/stm32f0xx_hal_rtc_ex.c ****         hrtc->State = HAL_RTC_STATE_TIMEOUT;
1079:Drivers/STM32F0xx_HAL_Driver/Src/stm32f0xx_hal_rtc_ex.c ****       
1080:Drivers/STM32F0xx_HAL_Driver/Src/stm32f0xx_hal_rtc_ex.c ****         return HAL_TIMEOUT;
1081:Drivers/STM32F0xx_HAL_Driver/Src/stm32f0xx_hal_rtc_ex.c ****       }
1082:Drivers/STM32F0xx_HAL_Driver/Src/stm32f0xx_hal_rtc_ex.c ****     }
1083:Drivers/STM32F0xx_HAL_Driver/Src/stm32f0xx_hal_rtc_ex.c ****   }
1084:Drivers/STM32F0xx_HAL_Driver/Src/stm32f0xx_hal_rtc_ex.c **** 
1085:Drivers/STM32F0xx_HAL_Driver/Src/stm32f0xx_hal_rtc_ex.c ****   /* Clear the WAKEUPTIMER Flag */
1086:Drivers/STM32F0xx_HAL_Driver/Src/stm32f0xx_hal_rtc_ex.c ****   __HAL_RTC_WAKEUPTIMER_CLEAR_FLAG(hrtc, RTC_FLAG_WUTF);
 2351              		.loc 1 1086 3 is_stmt 1 view .LVU739
 2352 001e FF23     		movs	r3, #255
 2353 0020 D168     		ldr	r1, [r2, #12]
1087:Drivers/STM32F0xx_HAL_Driver/Src/stm32f0xx_hal_rtc_ex.c ****   
1088:Drivers/STM32F0xx_HAL_Driver/Src/stm32f0xx_hal_rtc_ex.c ****   /* Change RTC state */
1089:Drivers/STM32F0xx_HAL_Driver/Src/stm32f0xx_hal_rtc_ex.c ****   hrtc->State = HAL_RTC_STATE_READY;
1090:Drivers/STM32F0xx_HAL_Driver/Src/stm32f0xx_hal_rtc_ex.c **** 
1091:Drivers/STM32F0xx_HAL_Driver/Src/stm32f0xx_hal_rtc_ex.c ****   return HAL_OK;
 2354              		.loc 1 1091 10 is_stmt 0 view .LVU740
 2355 0022 0020     		movs	r0, #0
1086:Drivers/STM32F0xx_HAL_Driver/Src/stm32f0xx_hal_rtc_ex.c ****   
 2356              		.loc 1 1086 3 view .LVU741
 2357 0024 1940     		ands	r1, r3
 2358 0026 084B     		ldr	r3, .L179
 2359 0028 0B43     		orrs	r3, r1
 2360 002a D360     		str	r3, [r2, #12]
1089:Drivers/STM32F0xx_HAL_Driver/Src/stm32f0xx_hal_rtc_ex.c **** 
 2361              		.loc 1 1089 3 is_stmt 1 view .LVU742
1089:Drivers/STM32F0xx_HAL_Driver/Src/stm32f0xx_hal_rtc_ex.c **** 
 2362              		.loc 1 1089 15 is_stmt 0 view .LVU743
 2363 002c 0123     		movs	r3, #1
 2364 002e 7377     		strb	r3, [r6, #29]
 2365              		.loc 1 1091 3 is_stmt 1 view .LVU744
 2366              	.L173:
1092:Drivers/STM32F0xx_HAL_Driver/Src/stm32f0xx_hal_rtc_ex.c **** }
 2367              		.loc 1 1092 1 is_stmt 0 view .LVU745
 2368              		@ sp needed
 2369              	.LVL165:
 2370              	.LVL166:
 2371              	.LVL167:
 2372              		.loc 1 1092 1 view .LVU746
 2373 0030 F8BD     		pop	{r3, r4, r5, r6, r7, pc}
 2374              	.LVL168:
 2375              	.L178:
ARM GAS  /var/folders/vr/85797ndx6jd_r3n_lsprlrj40000gn/T//ccBlM6ZE.s 			page 67


1076:Drivers/STM32F0xx_HAL_Driver/Src/stm32f0xx_hal_rtc_ex.c ****       {
 2376              		.loc 1 1076 7 is_stmt 1 view .LVU747
1076:Drivers/STM32F0xx_HAL_Driver/Src/stm32f0xx_hal_rtc_ex.c ****       {
 2377              		.loc 1 1076 9 is_stmt 0 view .LVU748
 2378 0032 002C     		cmp	r4, #0
 2379 0034 04D0     		beq	.L174
1076:Drivers/STM32F0xx_HAL_Driver/Src/stm32f0xx_hal_rtc_ex.c ****       {
 2380              		.loc 1 1076 29 discriminator 1 view .LVU749
 2381 0036 FFF7FEFF 		bl	HAL_GetTick
 2382              	.LVL169:
1076:Drivers/STM32F0xx_HAL_Driver/Src/stm32f0xx_hal_rtc_ex.c ****       {
 2383              		.loc 1 1076 43 discriminator 1 view .LVU750
 2384 003a C01B     		subs	r0, r0, r7
1076:Drivers/STM32F0xx_HAL_Driver/Src/stm32f0xx_hal_rtc_ex.c ****       {
 2385              		.loc 1 1076 25 discriminator 1 view .LVU751
 2386 003c A042     		cmp	r0, r4
 2387 003e E7D9     		bls	.L170
 2388              	.L174:
1078:Drivers/STM32F0xx_HAL_Driver/Src/stm32f0xx_hal_rtc_ex.c ****       
 2389              		.loc 1 1078 9 is_stmt 1 view .LVU752
1078:Drivers/STM32F0xx_HAL_Driver/Src/stm32f0xx_hal_rtc_ex.c ****       
 2390              		.loc 1 1078 21 is_stmt 0 view .LVU753
 2391 0040 0323     		movs	r3, #3
1080:Drivers/STM32F0xx_HAL_Driver/Src/stm32f0xx_hal_rtc_ex.c ****       }
 2392              		.loc 1 1080 16 view .LVU754
 2393 0042 0320     		movs	r0, #3
1078:Drivers/STM32F0xx_HAL_Driver/Src/stm32f0xx_hal_rtc_ex.c ****       
 2394              		.loc 1 1078 21 view .LVU755
 2395 0044 7377     		strb	r3, [r6, #29]
1080:Drivers/STM32F0xx_HAL_Driver/Src/stm32f0xx_hal_rtc_ex.c ****       }
 2396              		.loc 1 1080 9 is_stmt 1 view .LVU756
1080:Drivers/STM32F0xx_HAL_Driver/Src/stm32f0xx_hal_rtc_ex.c ****       }
 2397              		.loc 1 1080 16 is_stmt 0 view .LVU757
 2398 0046 F3E7     		b	.L173
 2399              	.L180:
 2400              		.align	2
 2401              	.L179:
 2402 0048 7FFBFFFF 		.word	-1153
 2403              		.cfi_endproc
 2404              	.LFE57:
 2406              		.section	.text.HAL_RTCEx_SetSmoothCalib,"ax",%progbits
 2407              		.align	1
 2408              		.p2align 2,,3
 2409              		.global	HAL_RTCEx_SetSmoothCalib
 2410              		.syntax unified
 2411              		.code	16
 2412              		.thumb_func
 2413              		.fpu softvfp
 2415              	HAL_RTCEx_SetSmoothCalib:
 2416              	.LVL170:
 2417              	.LFB58:
1093:Drivers/STM32F0xx_HAL_Driver/Src/stm32f0xx_hal_rtc_ex.c **** 
1094:Drivers/STM32F0xx_HAL_Driver/Src/stm32f0xx_hal_rtc_ex.c **** /**
1095:Drivers/STM32F0xx_HAL_Driver/Src/stm32f0xx_hal_rtc_ex.c ****   * @}
1096:Drivers/STM32F0xx_HAL_Driver/Src/stm32f0xx_hal_rtc_ex.c ****   */
1097:Drivers/STM32F0xx_HAL_Driver/Src/stm32f0xx_hal_rtc_ex.c **** #endif /* defined(STM32F070xB) || defined(STM32F071xB) || defined(STM32F072xB) || defined(STM32F078
1098:Drivers/STM32F0xx_HAL_Driver/Src/stm32f0xx_hal_rtc_ex.c **** 
ARM GAS  /var/folders/vr/85797ndx6jd_r3n_lsprlrj40000gn/T//ccBlM6ZE.s 			page 68


1099:Drivers/STM32F0xx_HAL_Driver/Src/stm32f0xx_hal_rtc_ex.c **** /** @addtogroup RTCEx_Exported_Functions_Group3
1100:Drivers/STM32F0xx_HAL_Driver/Src/stm32f0xx_hal_rtc_ex.c ****   * @brief    Extended Peripheral Control functions
1101:Drivers/STM32F0xx_HAL_Driver/Src/stm32f0xx_hal_rtc_ex.c ****   *
1102:Drivers/STM32F0xx_HAL_Driver/Src/stm32f0xx_hal_rtc_ex.c **** @verbatim   
1103:Drivers/STM32F0xx_HAL_Driver/Src/stm32f0xx_hal_rtc_ex.c ****  ===============================================================================
1104:Drivers/STM32F0xx_HAL_Driver/Src/stm32f0xx_hal_rtc_ex.c ****               ##### Extended Peripheral Control functions #####
1105:Drivers/STM32F0xx_HAL_Driver/Src/stm32f0xx_hal_rtc_ex.c ****  ===============================================================================  
1106:Drivers/STM32F0xx_HAL_Driver/Src/stm32f0xx_hal_rtc_ex.c ****     [..]
1107:Drivers/STM32F0xx_HAL_Driver/Src/stm32f0xx_hal_rtc_ex.c ****     This subsection provides functions allowing to
1108:Drivers/STM32F0xx_HAL_Driver/Src/stm32f0xx_hal_rtc_ex.c ****       (+) Write a data in a specified RTC Backup data register
1109:Drivers/STM32F0xx_HAL_Driver/Src/stm32f0xx_hal_rtc_ex.c ****       (+) Read a data in a specified RTC Backup data register
1110:Drivers/STM32F0xx_HAL_Driver/Src/stm32f0xx_hal_rtc_ex.c ****       (+) Set the Coarse calibration parameters.
1111:Drivers/STM32F0xx_HAL_Driver/Src/stm32f0xx_hal_rtc_ex.c ****       (+) Deactivate the Coarse calibration parameters
1112:Drivers/STM32F0xx_HAL_Driver/Src/stm32f0xx_hal_rtc_ex.c ****       (+) Set the Smooth calibration parameters.
1113:Drivers/STM32F0xx_HAL_Driver/Src/stm32f0xx_hal_rtc_ex.c ****       (+) Configure the Synchronization Shift Control Settings.
1114:Drivers/STM32F0xx_HAL_Driver/Src/stm32f0xx_hal_rtc_ex.c ****       (+) Configure the Calibration Pinout (RTC_CALIB) Selection (1Hz or 512Hz).
1115:Drivers/STM32F0xx_HAL_Driver/Src/stm32f0xx_hal_rtc_ex.c ****       (+) Deactivate the Calibration Pinout (RTC_CALIB) Selection (1Hz or 512Hz).
1116:Drivers/STM32F0xx_HAL_Driver/Src/stm32f0xx_hal_rtc_ex.c ****       (+) Enable the RTC reference clock detection.
1117:Drivers/STM32F0xx_HAL_Driver/Src/stm32f0xx_hal_rtc_ex.c ****       (+) Disable the RTC reference clock detection.
1118:Drivers/STM32F0xx_HAL_Driver/Src/stm32f0xx_hal_rtc_ex.c ****       (+) Enable the Bypass Shadow feature.
1119:Drivers/STM32F0xx_HAL_Driver/Src/stm32f0xx_hal_rtc_ex.c ****       (+) Disable the Bypass Shadow feature.
1120:Drivers/STM32F0xx_HAL_Driver/Src/stm32f0xx_hal_rtc_ex.c **** 
1121:Drivers/STM32F0xx_HAL_Driver/Src/stm32f0xx_hal_rtc_ex.c **** @endverbatim
1122:Drivers/STM32F0xx_HAL_Driver/Src/stm32f0xx_hal_rtc_ex.c ****   * @{
1123:Drivers/STM32F0xx_HAL_Driver/Src/stm32f0xx_hal_rtc_ex.c ****   */
1124:Drivers/STM32F0xx_HAL_Driver/Src/stm32f0xx_hal_rtc_ex.c **** 
1125:Drivers/STM32F0xx_HAL_Driver/Src/stm32f0xx_hal_rtc_ex.c **** #if !defined(STM32F030x6) && !defined(STM32F030x8) && !defined(STM32F070x6) && !defined(STM32F070xB
1126:Drivers/STM32F0xx_HAL_Driver/Src/stm32f0xx_hal_rtc_ex.c **** /**
1127:Drivers/STM32F0xx_HAL_Driver/Src/stm32f0xx_hal_rtc_ex.c ****   * @brief  Write a data in a specified RTC Backup data register.
1128:Drivers/STM32F0xx_HAL_Driver/Src/stm32f0xx_hal_rtc_ex.c ****   * @param  hrtc RTC handle 
1129:Drivers/STM32F0xx_HAL_Driver/Src/stm32f0xx_hal_rtc_ex.c ****   * @param  BackupRegister RTC Backup data Register number.
1130:Drivers/STM32F0xx_HAL_Driver/Src/stm32f0xx_hal_rtc_ex.c ****   *          This parameter can be: RTC_BKP_DRx where x can be from 0 to 4 to 
1131:Drivers/STM32F0xx_HAL_Driver/Src/stm32f0xx_hal_rtc_ex.c ****   *                                 specify the register.
1132:Drivers/STM32F0xx_HAL_Driver/Src/stm32f0xx_hal_rtc_ex.c ****   * @param  Data Data to be written in the specified RTC Backup data register.                     
1133:Drivers/STM32F0xx_HAL_Driver/Src/stm32f0xx_hal_rtc_ex.c ****   * @retval None
1134:Drivers/STM32F0xx_HAL_Driver/Src/stm32f0xx_hal_rtc_ex.c ****   */
1135:Drivers/STM32F0xx_HAL_Driver/Src/stm32f0xx_hal_rtc_ex.c **** void HAL_RTCEx_BKUPWrite(RTC_HandleTypeDef *hrtc, uint32_t BackupRegister, uint32_t Data)
1136:Drivers/STM32F0xx_HAL_Driver/Src/stm32f0xx_hal_rtc_ex.c **** {
1137:Drivers/STM32F0xx_HAL_Driver/Src/stm32f0xx_hal_rtc_ex.c ****   uint32_t tmp = 0U;
1138:Drivers/STM32F0xx_HAL_Driver/Src/stm32f0xx_hal_rtc_ex.c **** 
1139:Drivers/STM32F0xx_HAL_Driver/Src/stm32f0xx_hal_rtc_ex.c ****   /* Check the parameters */
1140:Drivers/STM32F0xx_HAL_Driver/Src/stm32f0xx_hal_rtc_ex.c ****   assert_param(IS_RTC_BKP(BackupRegister));
1141:Drivers/STM32F0xx_HAL_Driver/Src/stm32f0xx_hal_rtc_ex.c **** 
1142:Drivers/STM32F0xx_HAL_Driver/Src/stm32f0xx_hal_rtc_ex.c ****   tmp = (uint32_t)&(hrtc->Instance->BKP0R);
1143:Drivers/STM32F0xx_HAL_Driver/Src/stm32f0xx_hal_rtc_ex.c ****   tmp += (BackupRegister * 4U);
1144:Drivers/STM32F0xx_HAL_Driver/Src/stm32f0xx_hal_rtc_ex.c **** 
1145:Drivers/STM32F0xx_HAL_Driver/Src/stm32f0xx_hal_rtc_ex.c ****   /* Write the specified register */
1146:Drivers/STM32F0xx_HAL_Driver/Src/stm32f0xx_hal_rtc_ex.c ****   *(__IO uint32_t *)tmp = (uint32_t)Data;
1147:Drivers/STM32F0xx_HAL_Driver/Src/stm32f0xx_hal_rtc_ex.c **** }
1148:Drivers/STM32F0xx_HAL_Driver/Src/stm32f0xx_hal_rtc_ex.c **** 
1149:Drivers/STM32F0xx_HAL_Driver/Src/stm32f0xx_hal_rtc_ex.c **** /**
1150:Drivers/STM32F0xx_HAL_Driver/Src/stm32f0xx_hal_rtc_ex.c ****   * @brief  Reads data from the specified RTC Backup data Register.
1151:Drivers/STM32F0xx_HAL_Driver/Src/stm32f0xx_hal_rtc_ex.c ****   * @param  hrtc RTC handle 
1152:Drivers/STM32F0xx_HAL_Driver/Src/stm32f0xx_hal_rtc_ex.c ****   * @param  BackupRegister RTC Backup data Register number.
1153:Drivers/STM32F0xx_HAL_Driver/Src/stm32f0xx_hal_rtc_ex.c ****   *          This parameter can be: RTC_BKP_DRx where x can be from 0 to 4 to 
1154:Drivers/STM32F0xx_HAL_Driver/Src/stm32f0xx_hal_rtc_ex.c ****   *                                 specify the register.                   
1155:Drivers/STM32F0xx_HAL_Driver/Src/stm32f0xx_hal_rtc_ex.c ****   * @retval Read value
ARM GAS  /var/folders/vr/85797ndx6jd_r3n_lsprlrj40000gn/T//ccBlM6ZE.s 			page 69


1156:Drivers/STM32F0xx_HAL_Driver/Src/stm32f0xx_hal_rtc_ex.c ****   */
1157:Drivers/STM32F0xx_HAL_Driver/Src/stm32f0xx_hal_rtc_ex.c **** uint32_t HAL_RTCEx_BKUPRead(RTC_HandleTypeDef *hrtc, uint32_t BackupRegister)
1158:Drivers/STM32F0xx_HAL_Driver/Src/stm32f0xx_hal_rtc_ex.c **** {
1159:Drivers/STM32F0xx_HAL_Driver/Src/stm32f0xx_hal_rtc_ex.c ****   uint32_t tmp = 0U;
1160:Drivers/STM32F0xx_HAL_Driver/Src/stm32f0xx_hal_rtc_ex.c **** 
1161:Drivers/STM32F0xx_HAL_Driver/Src/stm32f0xx_hal_rtc_ex.c ****   /* Check the parameters */
1162:Drivers/STM32F0xx_HAL_Driver/Src/stm32f0xx_hal_rtc_ex.c ****   assert_param(IS_RTC_BKP(BackupRegister));
1163:Drivers/STM32F0xx_HAL_Driver/Src/stm32f0xx_hal_rtc_ex.c **** 
1164:Drivers/STM32F0xx_HAL_Driver/Src/stm32f0xx_hal_rtc_ex.c ****   tmp = (uint32_t)&(hrtc->Instance->BKP0R);
1165:Drivers/STM32F0xx_HAL_Driver/Src/stm32f0xx_hal_rtc_ex.c ****   tmp += (BackupRegister * 4U);
1166:Drivers/STM32F0xx_HAL_Driver/Src/stm32f0xx_hal_rtc_ex.c ****   
1167:Drivers/STM32F0xx_HAL_Driver/Src/stm32f0xx_hal_rtc_ex.c ****   /* Read the specified register */
1168:Drivers/STM32F0xx_HAL_Driver/Src/stm32f0xx_hal_rtc_ex.c ****   return (*(__IO uint32_t *)tmp);
1169:Drivers/STM32F0xx_HAL_Driver/Src/stm32f0xx_hal_rtc_ex.c **** }
1170:Drivers/STM32F0xx_HAL_Driver/Src/stm32f0xx_hal_rtc_ex.c **** #endif /* !defined(STM32F030x6) && !defined(STM32F030x8) && !defined(STM32F070x6) && !defined(STM32
1171:Drivers/STM32F0xx_HAL_Driver/Src/stm32f0xx_hal_rtc_ex.c **** 
1172:Drivers/STM32F0xx_HAL_Driver/Src/stm32f0xx_hal_rtc_ex.c **** /**
1173:Drivers/STM32F0xx_HAL_Driver/Src/stm32f0xx_hal_rtc_ex.c ****   * @brief  Set the Smooth calibration parameters.
1174:Drivers/STM32F0xx_HAL_Driver/Src/stm32f0xx_hal_rtc_ex.c ****   * @param  hrtc RTC handle  
1175:Drivers/STM32F0xx_HAL_Driver/Src/stm32f0xx_hal_rtc_ex.c ****   * @param  SmoothCalibPeriod Select the Smooth Calibration Period.
1176:Drivers/STM32F0xx_HAL_Driver/Src/stm32f0xx_hal_rtc_ex.c ****   *          This parameter can be can be one of the following values :
1177:Drivers/STM32F0xx_HAL_Driver/Src/stm32f0xx_hal_rtc_ex.c ****   *             @arg RTC_SMOOTHCALIB_PERIOD_32SEC: The smooth calibration period is 32s.
1178:Drivers/STM32F0xx_HAL_Driver/Src/stm32f0xx_hal_rtc_ex.c ****   *             @arg RTC_SMOOTHCALIB_PERIOD_16SEC: The smooth calibration period is 16s.
1179:Drivers/STM32F0xx_HAL_Driver/Src/stm32f0xx_hal_rtc_ex.c ****   *             @arg RTC_SMOOTHCALIB_PERIOD_8SEC: The smooth calibration period is 8s.
1180:Drivers/STM32F0xx_HAL_Driver/Src/stm32f0xx_hal_rtc_ex.c ****   * @param  SmoothCalibPlusPulses Select to Set or reset the CALP bit.
1181:Drivers/STM32F0xx_HAL_Driver/Src/stm32f0xx_hal_rtc_ex.c ****   *          This parameter can be one of the following values:
1182:Drivers/STM32F0xx_HAL_Driver/Src/stm32f0xx_hal_rtc_ex.c ****   *             @arg RTC_SMOOTHCALIB_PLUSPULSES_SET: Add one RTCCLK pulse every 2*11 pulses.
1183:Drivers/STM32F0xx_HAL_Driver/Src/stm32f0xx_hal_rtc_ex.c ****   *             @arg RTC_SMOOTHCALIB_PLUSPULSES_RESET: No RTCCLK pulses are added.
1184:Drivers/STM32F0xx_HAL_Driver/Src/stm32f0xx_hal_rtc_ex.c ****   * @param  SmoothCalibMinusPulsesValue Select the value of CALM[8:0] bits.
1185:Drivers/STM32F0xx_HAL_Driver/Src/stm32f0xx_hal_rtc_ex.c ****   *          This parameter can be one any value from 0 to 0x000001FF.
1186:Drivers/STM32F0xx_HAL_Driver/Src/stm32f0xx_hal_rtc_ex.c ****   * @note   To deactivate the smooth calibration, the field SmoothCalibPlusPulses 
1187:Drivers/STM32F0xx_HAL_Driver/Src/stm32f0xx_hal_rtc_ex.c ****   *         must be equal to SMOOTHCALIB_PLUSPULSES_RESET and the field
1188:Drivers/STM32F0xx_HAL_Driver/Src/stm32f0xx_hal_rtc_ex.c ****   *         SmoothCalibMinusPulsesValue mut be equal to 0.
1189:Drivers/STM32F0xx_HAL_Driver/Src/stm32f0xx_hal_rtc_ex.c ****   * @retval HAL status
1190:Drivers/STM32F0xx_HAL_Driver/Src/stm32f0xx_hal_rtc_ex.c ****   */
1191:Drivers/STM32F0xx_HAL_Driver/Src/stm32f0xx_hal_rtc_ex.c **** HAL_StatusTypeDef HAL_RTCEx_SetSmoothCalib(RTC_HandleTypeDef* hrtc, uint32_t SmoothCalibPeriod, uin
1192:Drivers/STM32F0xx_HAL_Driver/Src/stm32f0xx_hal_rtc_ex.c **** {
