ARM GAS  /var/folders/vr/85797ndx6jd_r3n_lsprlrj40000gn/T//ccWMqnSu.s 			page 1


   1              		.cpu cortex-m0
   2              		.eabi_attribute 20, 1
   3              		.eabi_attribute 21, 1
   4              		.eabi_attribute 23, 3
   5              		.eabi_attribute 24, 1
   6              		.eabi_attribute 25, 1
   7              		.eabi_attribute 26, 1
   8              		.eabi_attribute 30, 2
   9              		.eabi_attribute 34, 0
  10              		.eabi_attribute 18, 4
  11              		.file	"stm32f0xx_hal_rtc.c"
  12              		.text
  13              	.Ltext0:
  14              		.cfi_sections	.debug_frame
  15              		.section	.text.HAL_RTC_MspInit,"ax",%progbits
  16              		.align	1
  17              		.p2align 2,,3
  18              		.weak	HAL_RTC_MspInit
  19              		.arch armv6s-m
  20              		.syntax unified
  21              		.code	16
  22              		.thumb_func
  23              		.fpu softvfp
  25              	HAL_RTC_MspInit:
  26              	.LVL0:
  27              	.LFB39:
  28              		.file 1 "Drivers/STM32F0xx_HAL_Driver/Src/stm32f0xx_hal_rtc.c"
   1:Drivers/STM32F0xx_HAL_Driver/Src/stm32f0xx_hal_rtc.c **** /**
   2:Drivers/STM32F0xx_HAL_Driver/Src/stm32f0xx_hal_rtc.c ****   ******************************************************************************
   3:Drivers/STM32F0xx_HAL_Driver/Src/stm32f0xx_hal_rtc.c ****   * @file    stm32f0xx_hal_rtc.c
   4:Drivers/STM32F0xx_HAL_Driver/Src/stm32f0xx_hal_rtc.c ****   * @author  MCD Application Team
   5:Drivers/STM32F0xx_HAL_Driver/Src/stm32f0xx_hal_rtc.c ****   * @brief   RTC HAL module driver.
   6:Drivers/STM32F0xx_HAL_Driver/Src/stm32f0xx_hal_rtc.c ****   *          This file provides firmware functions to manage the following 
   7:Drivers/STM32F0xx_HAL_Driver/Src/stm32f0xx_hal_rtc.c ****   *          functionalities of the Real Time Clock (RTC) peripheral:
   8:Drivers/STM32F0xx_HAL_Driver/Src/stm32f0xx_hal_rtc.c ****   *           + Initialization and de-initialization functions
   9:Drivers/STM32F0xx_HAL_Driver/Src/stm32f0xx_hal_rtc.c ****   *           + RTC Time and Date functions
  10:Drivers/STM32F0xx_HAL_Driver/Src/stm32f0xx_hal_rtc.c ****   *           + RTC Alarm functions
  11:Drivers/STM32F0xx_HAL_Driver/Src/stm32f0xx_hal_rtc.c ****   *           + Peripheral Control functions   
  12:Drivers/STM32F0xx_HAL_Driver/Src/stm32f0xx_hal_rtc.c ****   *           + Peripheral State functions
  13:Drivers/STM32F0xx_HAL_Driver/Src/stm32f0xx_hal_rtc.c ****   *         
  14:Drivers/STM32F0xx_HAL_Driver/Src/stm32f0xx_hal_rtc.c ****   @verbatim
  15:Drivers/STM32F0xx_HAL_Driver/Src/stm32f0xx_hal_rtc.c ****   ==============================================================================
  16:Drivers/STM32F0xx_HAL_Driver/Src/stm32f0xx_hal_rtc.c ****                   ##### How to use RTC Driver #####
  17:Drivers/STM32F0xx_HAL_Driver/Src/stm32f0xx_hal_rtc.c ****  ===================================================================
  18:Drivers/STM32F0xx_HAL_Driver/Src/stm32f0xx_hal_rtc.c ****     [..] 
  19:Drivers/STM32F0xx_HAL_Driver/Src/stm32f0xx_hal_rtc.c ****         (+) Enable the RTC domain access (see description in the section above).
  20:Drivers/STM32F0xx_HAL_Driver/Src/stm32f0xx_hal_rtc.c ****         (+) Configure the RTC Prescaler (Asynchronous and Synchronous) and RTC hour 
  21:Drivers/STM32F0xx_HAL_Driver/Src/stm32f0xx_hal_rtc.c ****             format using the HAL_RTC_Init() function.
  22:Drivers/STM32F0xx_HAL_Driver/Src/stm32f0xx_hal_rtc.c ****   
  23:Drivers/STM32F0xx_HAL_Driver/Src/stm32f0xx_hal_rtc.c ****     *** Time and Date configuration ***
  24:Drivers/STM32F0xx_HAL_Driver/Src/stm32f0xx_hal_rtc.c ****     ===================================
  25:Drivers/STM32F0xx_HAL_Driver/Src/stm32f0xx_hal_rtc.c ****     [..] 
  26:Drivers/STM32F0xx_HAL_Driver/Src/stm32f0xx_hal_rtc.c ****         (+) To configure the RTC Calendar (Time and Date) use the HAL_RTC_SetTime() 
  27:Drivers/STM32F0xx_HAL_Driver/Src/stm32f0xx_hal_rtc.c ****             and HAL_RTC_SetDate() functions.
  28:Drivers/STM32F0xx_HAL_Driver/Src/stm32f0xx_hal_rtc.c ****         (+) To read the RTC Calendar, use the HAL_RTC_GetTime() and HAL_RTC_GetDate() functions. 
  29:Drivers/STM32F0xx_HAL_Driver/Src/stm32f0xx_hal_rtc.c ****   
  30:Drivers/STM32F0xx_HAL_Driver/Src/stm32f0xx_hal_rtc.c ****     *** Alarm configuration ***
ARM GAS  /var/folders/vr/85797ndx6jd_r3n_lsprlrj40000gn/T//ccWMqnSu.s 			page 2


  31:Drivers/STM32F0xx_HAL_Driver/Src/stm32f0xx_hal_rtc.c ****     ===========================
  32:Drivers/STM32F0xx_HAL_Driver/Src/stm32f0xx_hal_rtc.c ****     [..]
  33:Drivers/STM32F0xx_HAL_Driver/Src/stm32f0xx_hal_rtc.c ****     (+) To configure the RTC Alarm use the HAL_RTC_SetAlarm() function.
  34:Drivers/STM32F0xx_HAL_Driver/Src/stm32f0xx_hal_rtc.c ****             You can also configure the RTC Alarm with interrupt mode using the 
  35:Drivers/STM32F0xx_HAL_Driver/Src/stm32f0xx_hal_rtc.c ****             HAL_RTC_SetAlarm_IT() function.
  36:Drivers/STM32F0xx_HAL_Driver/Src/stm32f0xx_hal_rtc.c ****         (+) To read the RTC Alarm, use the HAL_RTC_GetAlarm() function.
  37:Drivers/STM32F0xx_HAL_Driver/Src/stm32f0xx_hal_rtc.c **** 
  38:Drivers/STM32F0xx_HAL_Driver/Src/stm32f0xx_hal_rtc.c ****                   ##### RTC and low power modes #####
  39:Drivers/STM32F0xx_HAL_Driver/Src/stm32f0xx_hal_rtc.c ****  ===================================================================
  40:Drivers/STM32F0xx_HAL_Driver/Src/stm32f0xx_hal_rtc.c ****     [..] The MCU can be woken up from a low power mode by an RTC alternate 
  41:Drivers/STM32F0xx_HAL_Driver/Src/stm32f0xx_hal_rtc.c ****          function.
  42:Drivers/STM32F0xx_HAL_Driver/Src/stm32f0xx_hal_rtc.c ****     [..] The RTC alternate functions are the RTC alarm (Alarm A), 
  43:Drivers/STM32F0xx_HAL_Driver/Src/stm32f0xx_hal_rtc.c ****          RTC wake-up, RTC tamper event detection and RTC time stamp event detection.
  44:Drivers/STM32F0xx_HAL_Driver/Src/stm32f0xx_hal_rtc.c ****          These RTC alternate functions can wake up the system from the Stop and 
  45:Drivers/STM32F0xx_HAL_Driver/Src/stm32f0xx_hal_rtc.c ****          Standby low power modes.
  46:Drivers/STM32F0xx_HAL_Driver/Src/stm32f0xx_hal_rtc.c ****     [..] The system can also wake up from low power modes without depending 
  47:Drivers/STM32F0xx_HAL_Driver/Src/stm32f0xx_hal_rtc.c ****          on an external interrupt (Auto-wake-up mode), by using the RTC alarm 
  48:Drivers/STM32F0xx_HAL_Driver/Src/stm32f0xx_hal_rtc.c ****          or the RTC wake-up events.
  49:Drivers/STM32F0xx_HAL_Driver/Src/stm32f0xx_hal_rtc.c ****     [..] The RTC provides a programmable time base for waking up from the 
  50:Drivers/STM32F0xx_HAL_Driver/Src/stm32f0xx_hal_rtc.c ****          Stop or Standby mode at regular intervals.
  51:Drivers/STM32F0xx_HAL_Driver/Src/stm32f0xx_hal_rtc.c ****          Wake-up from STOP and STANDBY modes is possible only when the RTC clock source
  52:Drivers/STM32F0xx_HAL_Driver/Src/stm32f0xx_hal_rtc.c ****          is LSE or LSI.
  53:Drivers/STM32F0xx_HAL_Driver/Src/stm32f0xx_hal_rtc.c ****      
  54:Drivers/STM32F0xx_HAL_Driver/Src/stm32f0xx_hal_rtc.c ****   @endverbatim
  55:Drivers/STM32F0xx_HAL_Driver/Src/stm32f0xx_hal_rtc.c ****   ******************************************************************************
  56:Drivers/STM32F0xx_HAL_Driver/Src/stm32f0xx_hal_rtc.c ****   * @attention
  57:Drivers/STM32F0xx_HAL_Driver/Src/stm32f0xx_hal_rtc.c ****   *
  58:Drivers/STM32F0xx_HAL_Driver/Src/stm32f0xx_hal_rtc.c ****   * <h2><center>&copy; COPYRIGHT(c) 2016 STMicroelectronics</center></h2>
  59:Drivers/STM32F0xx_HAL_Driver/Src/stm32f0xx_hal_rtc.c ****   *
  60:Drivers/STM32F0xx_HAL_Driver/Src/stm32f0xx_hal_rtc.c ****   * Redistribution and use in source and binary forms, with or without modification,
  61:Drivers/STM32F0xx_HAL_Driver/Src/stm32f0xx_hal_rtc.c ****   * are permitted provided that the following conditions are met:
  62:Drivers/STM32F0xx_HAL_Driver/Src/stm32f0xx_hal_rtc.c ****   *   1. Redistributions of source code must retain the above copyright notice,
  63:Drivers/STM32F0xx_HAL_Driver/Src/stm32f0xx_hal_rtc.c ****   *      this list of conditions and the following disclaimer.
  64:Drivers/STM32F0xx_HAL_Driver/Src/stm32f0xx_hal_rtc.c ****   *   2. Redistributions in binary form must reproduce the above copyright notice,
  65:Drivers/STM32F0xx_HAL_Driver/Src/stm32f0xx_hal_rtc.c ****   *      this list of conditions and the following disclaimer in the documentation
  66:Drivers/STM32F0xx_HAL_Driver/Src/stm32f0xx_hal_rtc.c ****   *      and/or other materials provided with the distribution.
  67:Drivers/STM32F0xx_HAL_Driver/Src/stm32f0xx_hal_rtc.c ****   *   3. Neither the name of STMicroelectronics nor the names of its contributors
  68:Drivers/STM32F0xx_HAL_Driver/Src/stm32f0xx_hal_rtc.c ****   *      may be used to endorse or promote products derived from this software
  69:Drivers/STM32F0xx_HAL_Driver/Src/stm32f0xx_hal_rtc.c ****   *      without specific prior written permission.
  70:Drivers/STM32F0xx_HAL_Driver/Src/stm32f0xx_hal_rtc.c ****   *
  71:Drivers/STM32F0xx_HAL_Driver/Src/stm32f0xx_hal_rtc.c ****   * THIS SOFTWARE IS PROVIDED BY THE COPYRIGHT HOLDERS AND CONTRIBUTORS "AS IS"
  72:Drivers/STM32F0xx_HAL_Driver/Src/stm32f0xx_hal_rtc.c ****   * AND ANY EXPRESS OR IMPLIED WARRANTIES, INCLUDING, BUT NOT LIMITED TO, THE
  73:Drivers/STM32F0xx_HAL_Driver/Src/stm32f0xx_hal_rtc.c ****   * IMPLIED WARRANTIES OF MERCHANTABILITY AND FITNESS FOR A PARTICULAR PURPOSE ARE
  74:Drivers/STM32F0xx_HAL_Driver/Src/stm32f0xx_hal_rtc.c ****   * DISCLAIMED. IN NO EVENT SHALL THE COPYRIGHT HOLDER OR CONTRIBUTORS BE LIABLE
  75:Drivers/STM32F0xx_HAL_Driver/Src/stm32f0xx_hal_rtc.c ****   * FOR ANY DIRECT, INDIRECT, INCIDENTAL, SPECIAL, EXEMPLARY, OR CONSEQUENTIAL
  76:Drivers/STM32F0xx_HAL_Driver/Src/stm32f0xx_hal_rtc.c ****   * DAMAGES (INCLUDING, BUT NOT LIMITED TO, PROCUREMENT OF SUBSTITUTE GOODS OR
  77:Drivers/STM32F0xx_HAL_Driver/Src/stm32f0xx_hal_rtc.c ****   * SERVICES; LOSS OF USE, DATA, OR PROFITS; OR BUSINESS INTERRUPTION) HOWEVER
  78:Drivers/STM32F0xx_HAL_Driver/Src/stm32f0xx_hal_rtc.c ****   * CAUSED AND ON ANY THEORY OF LIABILITY, WHETHER IN CONTRACT, STRICT LIABILITY,
  79:Drivers/STM32F0xx_HAL_Driver/Src/stm32f0xx_hal_rtc.c ****   * OR TORT (INCLUDING NEGLIGENCE OR OTHERWISE) ARISING IN ANY WAY OUT OF THE USE
  80:Drivers/STM32F0xx_HAL_Driver/Src/stm32f0xx_hal_rtc.c ****   * OF THIS SOFTWARE, EVEN IF ADVISED OF THE POSSIBILITY OF SUCH DAMAGE.
  81:Drivers/STM32F0xx_HAL_Driver/Src/stm32f0xx_hal_rtc.c ****   *
  82:Drivers/STM32F0xx_HAL_Driver/Src/stm32f0xx_hal_rtc.c ****   ******************************************************************************  
  83:Drivers/STM32F0xx_HAL_Driver/Src/stm32f0xx_hal_rtc.c ****   */
  84:Drivers/STM32F0xx_HAL_Driver/Src/stm32f0xx_hal_rtc.c **** 
  85:Drivers/STM32F0xx_HAL_Driver/Src/stm32f0xx_hal_rtc.c **** /* Includes ------------------------------------------------------------------*/
  86:Drivers/STM32F0xx_HAL_Driver/Src/stm32f0xx_hal_rtc.c **** #include "stm32f0xx_hal.h"
  87:Drivers/STM32F0xx_HAL_Driver/Src/stm32f0xx_hal_rtc.c **** 
ARM GAS  /var/folders/vr/85797ndx6jd_r3n_lsprlrj40000gn/T//ccWMqnSu.s 			page 3


  88:Drivers/STM32F0xx_HAL_Driver/Src/stm32f0xx_hal_rtc.c **** /** @addtogroup STM32F0xx_HAL_Driver
  89:Drivers/STM32F0xx_HAL_Driver/Src/stm32f0xx_hal_rtc.c ****   * @{
  90:Drivers/STM32F0xx_HAL_Driver/Src/stm32f0xx_hal_rtc.c ****   */
  91:Drivers/STM32F0xx_HAL_Driver/Src/stm32f0xx_hal_rtc.c **** 
  92:Drivers/STM32F0xx_HAL_Driver/Src/stm32f0xx_hal_rtc.c **** /** @addtogroup RTC
  93:Drivers/STM32F0xx_HAL_Driver/Src/stm32f0xx_hal_rtc.c ****   * @brief RTC HAL module driver
  94:Drivers/STM32F0xx_HAL_Driver/Src/stm32f0xx_hal_rtc.c ****   * @{
  95:Drivers/STM32F0xx_HAL_Driver/Src/stm32f0xx_hal_rtc.c ****   */
  96:Drivers/STM32F0xx_HAL_Driver/Src/stm32f0xx_hal_rtc.c **** 
  97:Drivers/STM32F0xx_HAL_Driver/Src/stm32f0xx_hal_rtc.c **** #ifdef HAL_RTC_MODULE_ENABLED
  98:Drivers/STM32F0xx_HAL_Driver/Src/stm32f0xx_hal_rtc.c **** 
  99:Drivers/STM32F0xx_HAL_Driver/Src/stm32f0xx_hal_rtc.c **** /* Private typedef -----------------------------------------------------------*/
 100:Drivers/STM32F0xx_HAL_Driver/Src/stm32f0xx_hal_rtc.c **** /* Private define ------------------------------------------------------------*/
 101:Drivers/STM32F0xx_HAL_Driver/Src/stm32f0xx_hal_rtc.c **** /* Private macro -------------------------------------------------------------*/
 102:Drivers/STM32F0xx_HAL_Driver/Src/stm32f0xx_hal_rtc.c **** /* Private variables ---------------------------------------------------------*/
 103:Drivers/STM32F0xx_HAL_Driver/Src/stm32f0xx_hal_rtc.c **** /* Private function prototypes -----------------------------------------------*/
 104:Drivers/STM32F0xx_HAL_Driver/Src/stm32f0xx_hal_rtc.c **** /* Exported functions ---------------------------------------------------------*/
 105:Drivers/STM32F0xx_HAL_Driver/Src/stm32f0xx_hal_rtc.c **** 
 106:Drivers/STM32F0xx_HAL_Driver/Src/stm32f0xx_hal_rtc.c **** /** @addtogroup RTC_Exported_Functions
 107:Drivers/STM32F0xx_HAL_Driver/Src/stm32f0xx_hal_rtc.c ****   * @{
 108:Drivers/STM32F0xx_HAL_Driver/Src/stm32f0xx_hal_rtc.c ****   */
 109:Drivers/STM32F0xx_HAL_Driver/Src/stm32f0xx_hal_rtc.c ****   
 110:Drivers/STM32F0xx_HAL_Driver/Src/stm32f0xx_hal_rtc.c **** /** @addtogroup RTC_Exported_Functions_Group1
 111:Drivers/STM32F0xx_HAL_Driver/Src/stm32f0xx_hal_rtc.c ****  *  @brief    Initialization and Configuration functions 
 112:Drivers/STM32F0xx_HAL_Driver/Src/stm32f0xx_hal_rtc.c ****  *
 113:Drivers/STM32F0xx_HAL_Driver/Src/stm32f0xx_hal_rtc.c **** @verbatim    
 114:Drivers/STM32F0xx_HAL_Driver/Src/stm32f0xx_hal_rtc.c ****  ===============================================================================
 115:Drivers/STM32F0xx_HAL_Driver/Src/stm32f0xx_hal_rtc.c ****               ##### Initialization and de-initialization functions #####
 116:Drivers/STM32F0xx_HAL_Driver/Src/stm32f0xx_hal_rtc.c ****  ===============================================================================
 117:Drivers/STM32F0xx_HAL_Driver/Src/stm32f0xx_hal_rtc.c ****    [..] This section provides functions allowing to initialize and configure the 
 118:Drivers/STM32F0xx_HAL_Driver/Src/stm32f0xx_hal_rtc.c ****          RTC Prescaler (Synchronous and Asynchronous), RTC Hour format, disable 
 119:Drivers/STM32F0xx_HAL_Driver/Src/stm32f0xx_hal_rtc.c ****          RTC registers Write protection, enter and exit the RTC initialization mode, 
 120:Drivers/STM32F0xx_HAL_Driver/Src/stm32f0xx_hal_rtc.c ****          RTC registers synchronization check and reference clock detection enable.
 121:Drivers/STM32F0xx_HAL_Driver/Src/stm32f0xx_hal_rtc.c ****          (#) The RTC Prescaler is programmed to generate the RTC 1Hz time base. 
 122:Drivers/STM32F0xx_HAL_Driver/Src/stm32f0xx_hal_rtc.c ****              It is split into 2 programmable prescalers to minimize power consumption.
 123:Drivers/STM32F0xx_HAL_Driver/Src/stm32f0xx_hal_rtc.c ****              (++) A 7-bit asynchronous prescaler and a 15-bit synchronous prescaler.
 124:Drivers/STM32F0xx_HAL_Driver/Src/stm32f0xx_hal_rtc.c ****              (++) When both prescalers are used, it is recommended to configure the 
 125:Drivers/STM32F0xx_HAL_Driver/Src/stm32f0xx_hal_rtc.c ****                  asynchronous prescaler to a high value to minimize power consumption.
 126:Drivers/STM32F0xx_HAL_Driver/Src/stm32f0xx_hal_rtc.c ****          (#) All RTC registers are Write protected. Writing to the RTC registers
 127:Drivers/STM32F0xx_HAL_Driver/Src/stm32f0xx_hal_rtc.c ****              is enabled by writing a key into the Write Protection register, RTC_WPR.
 128:Drivers/STM32F0xx_HAL_Driver/Src/stm32f0xx_hal_rtc.c ****          (#) To configure the RTC Calendar, user application should enter 
 129:Drivers/STM32F0xx_HAL_Driver/Src/stm32f0xx_hal_rtc.c ****              initialization mode. In this mode, the calendar counter is stopped 
 130:Drivers/STM32F0xx_HAL_Driver/Src/stm32f0xx_hal_rtc.c ****              and its value can be updated. When the initialization sequence is 
 131:Drivers/STM32F0xx_HAL_Driver/Src/stm32f0xx_hal_rtc.c ****              complete, the calendar restarts counting after 4 RTCCLK cycles.
 132:Drivers/STM32F0xx_HAL_Driver/Src/stm32f0xx_hal_rtc.c ****          (#) To read the calendar through the shadow registers after Calendar 
 133:Drivers/STM32F0xx_HAL_Driver/Src/stm32f0xx_hal_rtc.c ****              initialization, calendar update or after wake-up from low power modes 
 134:Drivers/STM32F0xx_HAL_Driver/Src/stm32f0xx_hal_rtc.c ****              the software must first clear the RSF flag. The software must then 
 135:Drivers/STM32F0xx_HAL_Driver/Src/stm32f0xx_hal_rtc.c ****              wait until it is set again before reading the calendar, which means 
 136:Drivers/STM32F0xx_HAL_Driver/Src/stm32f0xx_hal_rtc.c ****              that the calendar registers have been correctly copied into the 
 137:Drivers/STM32F0xx_HAL_Driver/Src/stm32f0xx_hal_rtc.c ****              RTC_TR and RTC_DR shadow registers.The HAL_RTC_WaitForSynchro() function 
 138:Drivers/STM32F0xx_HAL_Driver/Src/stm32f0xx_hal_rtc.c ****              implements the above software sequence (RSF clear and RSF check).
 139:Drivers/STM32F0xx_HAL_Driver/Src/stm32f0xx_hal_rtc.c ****  
 140:Drivers/STM32F0xx_HAL_Driver/Src/stm32f0xx_hal_rtc.c **** @endverbatim
 141:Drivers/STM32F0xx_HAL_Driver/Src/stm32f0xx_hal_rtc.c ****   * @{
 142:Drivers/STM32F0xx_HAL_Driver/Src/stm32f0xx_hal_rtc.c ****   */
 143:Drivers/STM32F0xx_HAL_Driver/Src/stm32f0xx_hal_rtc.c **** 
 144:Drivers/STM32F0xx_HAL_Driver/Src/stm32f0xx_hal_rtc.c **** /**
ARM GAS  /var/folders/vr/85797ndx6jd_r3n_lsprlrj40000gn/T//ccWMqnSu.s 			page 4


 145:Drivers/STM32F0xx_HAL_Driver/Src/stm32f0xx_hal_rtc.c ****   * @brief  Initialize the RTC according to the specified parameters 
 146:Drivers/STM32F0xx_HAL_Driver/Src/stm32f0xx_hal_rtc.c ****   *         in the RTC_InitTypeDef structure and initialize the associated handle.
 147:Drivers/STM32F0xx_HAL_Driver/Src/stm32f0xx_hal_rtc.c ****   * @param  hrtc RTC handle
 148:Drivers/STM32F0xx_HAL_Driver/Src/stm32f0xx_hal_rtc.c ****   * @retval HAL status
 149:Drivers/STM32F0xx_HAL_Driver/Src/stm32f0xx_hal_rtc.c ****   */
 150:Drivers/STM32F0xx_HAL_Driver/Src/stm32f0xx_hal_rtc.c **** HAL_StatusTypeDef HAL_RTC_Init(RTC_HandleTypeDef *hrtc)
 151:Drivers/STM32F0xx_HAL_Driver/Src/stm32f0xx_hal_rtc.c **** {
 152:Drivers/STM32F0xx_HAL_Driver/Src/stm32f0xx_hal_rtc.c ****   /* Check the RTC peripheral state */
 153:Drivers/STM32F0xx_HAL_Driver/Src/stm32f0xx_hal_rtc.c ****   if(hrtc == NULL)
 154:Drivers/STM32F0xx_HAL_Driver/Src/stm32f0xx_hal_rtc.c ****   {
 155:Drivers/STM32F0xx_HAL_Driver/Src/stm32f0xx_hal_rtc.c ****      return HAL_ERROR;
 156:Drivers/STM32F0xx_HAL_Driver/Src/stm32f0xx_hal_rtc.c ****   }
 157:Drivers/STM32F0xx_HAL_Driver/Src/stm32f0xx_hal_rtc.c ****   
 158:Drivers/STM32F0xx_HAL_Driver/Src/stm32f0xx_hal_rtc.c ****   /* Check the parameters */
 159:Drivers/STM32F0xx_HAL_Driver/Src/stm32f0xx_hal_rtc.c ****   assert_param(IS_RTC_ALL_INSTANCE(hrtc->Instance));
 160:Drivers/STM32F0xx_HAL_Driver/Src/stm32f0xx_hal_rtc.c ****   assert_param(IS_RTC_HOUR_FORMAT(hrtc->Init.HourFormat));
 161:Drivers/STM32F0xx_HAL_Driver/Src/stm32f0xx_hal_rtc.c ****   assert_param(IS_RTC_ASYNCH_PREDIV(hrtc->Init.AsynchPrediv));
 162:Drivers/STM32F0xx_HAL_Driver/Src/stm32f0xx_hal_rtc.c ****   assert_param(IS_RTC_SYNCH_PREDIV(hrtc->Init.SynchPrediv));
 163:Drivers/STM32F0xx_HAL_Driver/Src/stm32f0xx_hal_rtc.c ****   assert_param(IS_RTC_OUTPUT(hrtc->Init.OutPut));
 164:Drivers/STM32F0xx_HAL_Driver/Src/stm32f0xx_hal_rtc.c ****   assert_param(IS_RTC_OUTPUT_POL(hrtc->Init.OutPutPolarity));
 165:Drivers/STM32F0xx_HAL_Driver/Src/stm32f0xx_hal_rtc.c ****   assert_param(IS_RTC_OUTPUT_TYPE(hrtc->Init.OutPutType));
 166:Drivers/STM32F0xx_HAL_Driver/Src/stm32f0xx_hal_rtc.c ****     
 167:Drivers/STM32F0xx_HAL_Driver/Src/stm32f0xx_hal_rtc.c ****   if(hrtc->State == HAL_RTC_STATE_RESET)
 168:Drivers/STM32F0xx_HAL_Driver/Src/stm32f0xx_hal_rtc.c ****   {
 169:Drivers/STM32F0xx_HAL_Driver/Src/stm32f0xx_hal_rtc.c ****     /* Allocate lock resource and initialize it */
 170:Drivers/STM32F0xx_HAL_Driver/Src/stm32f0xx_hal_rtc.c ****     hrtc->Lock = HAL_UNLOCKED;
 171:Drivers/STM32F0xx_HAL_Driver/Src/stm32f0xx_hal_rtc.c **** 
 172:Drivers/STM32F0xx_HAL_Driver/Src/stm32f0xx_hal_rtc.c ****     /* Initialize RTC MSP */
 173:Drivers/STM32F0xx_HAL_Driver/Src/stm32f0xx_hal_rtc.c ****     HAL_RTC_MspInit(hrtc);
 174:Drivers/STM32F0xx_HAL_Driver/Src/stm32f0xx_hal_rtc.c ****   }
 175:Drivers/STM32F0xx_HAL_Driver/Src/stm32f0xx_hal_rtc.c ****   
 176:Drivers/STM32F0xx_HAL_Driver/Src/stm32f0xx_hal_rtc.c ****   /* Set RTC state */  
 177:Drivers/STM32F0xx_HAL_Driver/Src/stm32f0xx_hal_rtc.c ****   hrtc->State = HAL_RTC_STATE_BUSY;  
 178:Drivers/STM32F0xx_HAL_Driver/Src/stm32f0xx_hal_rtc.c ****        
 179:Drivers/STM32F0xx_HAL_Driver/Src/stm32f0xx_hal_rtc.c ****   /* Disable the write protection for RTC registers */
 180:Drivers/STM32F0xx_HAL_Driver/Src/stm32f0xx_hal_rtc.c ****   __HAL_RTC_WRITEPROTECTION_DISABLE(hrtc);
 181:Drivers/STM32F0xx_HAL_Driver/Src/stm32f0xx_hal_rtc.c **** 
 182:Drivers/STM32F0xx_HAL_Driver/Src/stm32f0xx_hal_rtc.c ****   /* Set Initialization mode */
 183:Drivers/STM32F0xx_HAL_Driver/Src/stm32f0xx_hal_rtc.c ****   if(RTC_EnterInitMode(hrtc) != HAL_OK)
 184:Drivers/STM32F0xx_HAL_Driver/Src/stm32f0xx_hal_rtc.c ****   {
 185:Drivers/STM32F0xx_HAL_Driver/Src/stm32f0xx_hal_rtc.c ****     /* Enable the write protection for RTC registers */
 186:Drivers/STM32F0xx_HAL_Driver/Src/stm32f0xx_hal_rtc.c ****     __HAL_RTC_WRITEPROTECTION_ENABLE(hrtc); 
 187:Drivers/STM32F0xx_HAL_Driver/Src/stm32f0xx_hal_rtc.c ****     
 188:Drivers/STM32F0xx_HAL_Driver/Src/stm32f0xx_hal_rtc.c ****     /* Set RTC state */
 189:Drivers/STM32F0xx_HAL_Driver/Src/stm32f0xx_hal_rtc.c ****     hrtc->State = HAL_RTC_STATE_ERROR;
 190:Drivers/STM32F0xx_HAL_Driver/Src/stm32f0xx_hal_rtc.c ****     
 191:Drivers/STM32F0xx_HAL_Driver/Src/stm32f0xx_hal_rtc.c ****     return HAL_ERROR;
 192:Drivers/STM32F0xx_HAL_Driver/Src/stm32f0xx_hal_rtc.c ****   } 
 193:Drivers/STM32F0xx_HAL_Driver/Src/stm32f0xx_hal_rtc.c ****   else
 194:Drivers/STM32F0xx_HAL_Driver/Src/stm32f0xx_hal_rtc.c ****   { 
 195:Drivers/STM32F0xx_HAL_Driver/Src/stm32f0xx_hal_rtc.c ****     /* Clear RTC_CR FMT, OSEL and POL Bits */
 196:Drivers/STM32F0xx_HAL_Driver/Src/stm32f0xx_hal_rtc.c ****     hrtc->Instance->CR &= ((uint32_t)~(RTC_CR_FMT | RTC_CR_OSEL | RTC_CR_POL));
 197:Drivers/STM32F0xx_HAL_Driver/Src/stm32f0xx_hal_rtc.c ****     /* Set RTC_CR register */
 198:Drivers/STM32F0xx_HAL_Driver/Src/stm32f0xx_hal_rtc.c ****     hrtc->Instance->CR |= (uint32_t)(hrtc->Init.HourFormat | hrtc->Init.OutPut | hrtc->Init.OutPutP
 199:Drivers/STM32F0xx_HAL_Driver/Src/stm32f0xx_hal_rtc.c ****     
 200:Drivers/STM32F0xx_HAL_Driver/Src/stm32f0xx_hal_rtc.c ****     /* Configure the RTC PRER */
 201:Drivers/STM32F0xx_HAL_Driver/Src/stm32f0xx_hal_rtc.c ****     hrtc->Instance->PRER = (uint32_t)(hrtc->Init.SynchPrediv);
ARM GAS  /var/folders/vr/85797ndx6jd_r3n_lsprlrj40000gn/T//ccWMqnSu.s 			page 5


 202:Drivers/STM32F0xx_HAL_Driver/Src/stm32f0xx_hal_rtc.c ****     hrtc->Instance->PRER |= (uint32_t)(hrtc->Init.AsynchPrediv << 16U);
 203:Drivers/STM32F0xx_HAL_Driver/Src/stm32f0xx_hal_rtc.c ****     
 204:Drivers/STM32F0xx_HAL_Driver/Src/stm32f0xx_hal_rtc.c ****     /* Exit Initialization mode */
 205:Drivers/STM32F0xx_HAL_Driver/Src/stm32f0xx_hal_rtc.c ****     hrtc->Instance->ISR &= (uint32_t)~RTC_ISR_INIT; 
 206:Drivers/STM32F0xx_HAL_Driver/Src/stm32f0xx_hal_rtc.c **** 
 207:Drivers/STM32F0xx_HAL_Driver/Src/stm32f0xx_hal_rtc.c ****     /* If  CR_BYPSHAD bit = 0, wait for synchro else this check is not needed */
 208:Drivers/STM32F0xx_HAL_Driver/Src/stm32f0xx_hal_rtc.c ****     if((hrtc->Instance->CR & RTC_CR_BYPSHAD) == RESET)
 209:Drivers/STM32F0xx_HAL_Driver/Src/stm32f0xx_hal_rtc.c ****     {
 210:Drivers/STM32F0xx_HAL_Driver/Src/stm32f0xx_hal_rtc.c ****       if(HAL_RTC_WaitForSynchro(hrtc) != HAL_OK)
 211:Drivers/STM32F0xx_HAL_Driver/Src/stm32f0xx_hal_rtc.c ****       {
 212:Drivers/STM32F0xx_HAL_Driver/Src/stm32f0xx_hal_rtc.c ****         /* Enable the write protection for RTC registers */
 213:Drivers/STM32F0xx_HAL_Driver/Src/stm32f0xx_hal_rtc.c ****         __HAL_RTC_WRITEPROTECTION_ENABLE(hrtc);
 214:Drivers/STM32F0xx_HAL_Driver/Src/stm32f0xx_hal_rtc.c **** 
 215:Drivers/STM32F0xx_HAL_Driver/Src/stm32f0xx_hal_rtc.c ****         hrtc->State = HAL_RTC_STATE_ERROR;
 216:Drivers/STM32F0xx_HAL_Driver/Src/stm32f0xx_hal_rtc.c **** 
 217:Drivers/STM32F0xx_HAL_Driver/Src/stm32f0xx_hal_rtc.c ****         return HAL_ERROR;
 218:Drivers/STM32F0xx_HAL_Driver/Src/stm32f0xx_hal_rtc.c ****       }
 219:Drivers/STM32F0xx_HAL_Driver/Src/stm32f0xx_hal_rtc.c ****     }
 220:Drivers/STM32F0xx_HAL_Driver/Src/stm32f0xx_hal_rtc.c **** 
 221:Drivers/STM32F0xx_HAL_Driver/Src/stm32f0xx_hal_rtc.c ****     hrtc->Instance->TAFCR &= (uint32_t)~RTC_TAFCR_ALARMOUTTYPE;
 222:Drivers/STM32F0xx_HAL_Driver/Src/stm32f0xx_hal_rtc.c ****     hrtc->Instance->TAFCR |= (uint32_t)(hrtc->Init.OutPutType); 
 223:Drivers/STM32F0xx_HAL_Driver/Src/stm32f0xx_hal_rtc.c ****     
 224:Drivers/STM32F0xx_HAL_Driver/Src/stm32f0xx_hal_rtc.c ****     /* Enable the write protection for RTC registers */
 225:Drivers/STM32F0xx_HAL_Driver/Src/stm32f0xx_hal_rtc.c ****     __HAL_RTC_WRITEPROTECTION_ENABLE(hrtc); 
 226:Drivers/STM32F0xx_HAL_Driver/Src/stm32f0xx_hal_rtc.c ****     
 227:Drivers/STM32F0xx_HAL_Driver/Src/stm32f0xx_hal_rtc.c ****     /* Set RTC state */
 228:Drivers/STM32F0xx_HAL_Driver/Src/stm32f0xx_hal_rtc.c ****     hrtc->State = HAL_RTC_STATE_READY;
 229:Drivers/STM32F0xx_HAL_Driver/Src/stm32f0xx_hal_rtc.c ****     
 230:Drivers/STM32F0xx_HAL_Driver/Src/stm32f0xx_hal_rtc.c ****     return HAL_OK;
 231:Drivers/STM32F0xx_HAL_Driver/Src/stm32f0xx_hal_rtc.c ****   }
 232:Drivers/STM32F0xx_HAL_Driver/Src/stm32f0xx_hal_rtc.c **** }
 233:Drivers/STM32F0xx_HAL_Driver/Src/stm32f0xx_hal_rtc.c **** 
 234:Drivers/STM32F0xx_HAL_Driver/Src/stm32f0xx_hal_rtc.c **** /**
 235:Drivers/STM32F0xx_HAL_Driver/Src/stm32f0xx_hal_rtc.c ****   * @brief  DeInitialize the RTC peripheral.
 236:Drivers/STM32F0xx_HAL_Driver/Src/stm32f0xx_hal_rtc.c ****   * @param  hrtc RTC handle
 237:Drivers/STM32F0xx_HAL_Driver/Src/stm32f0xx_hal_rtc.c ****   * @note   This function doesn't reset the RTC Backup Data registers.
 238:Drivers/STM32F0xx_HAL_Driver/Src/stm32f0xx_hal_rtc.c ****   * @retval HAL status
 239:Drivers/STM32F0xx_HAL_Driver/Src/stm32f0xx_hal_rtc.c ****   */
 240:Drivers/STM32F0xx_HAL_Driver/Src/stm32f0xx_hal_rtc.c **** HAL_StatusTypeDef HAL_RTC_DeInit(RTC_HandleTypeDef *hrtc)
 241:Drivers/STM32F0xx_HAL_Driver/Src/stm32f0xx_hal_rtc.c **** {
 242:Drivers/STM32F0xx_HAL_Driver/Src/stm32f0xx_hal_rtc.c **** #if defined (STM32F030xC) || defined (STM32F070xB) || \
 243:Drivers/STM32F0xx_HAL_Driver/Src/stm32f0xx_hal_rtc.c ****     defined (STM32F071xB) || defined (STM32F072xB) || defined (STM32F078xx) || \
 244:Drivers/STM32F0xx_HAL_Driver/Src/stm32f0xx_hal_rtc.c ****     defined (STM32F091xC) || defined (STM32F098xx)
 245:Drivers/STM32F0xx_HAL_Driver/Src/stm32f0xx_hal_rtc.c ****   uint32_t tickstart = 0;
 246:Drivers/STM32F0xx_HAL_Driver/Src/stm32f0xx_hal_rtc.c **** #endif /* defined (STM32F030xC) || defined (STM32F070xB) ||\
 247:Drivers/STM32F0xx_HAL_Driver/Src/stm32f0xx_hal_rtc.c ****           defined (STM32F071xB) || defined (STM32F072xB) || defined (STM32F078xx) || \
 248:Drivers/STM32F0xx_HAL_Driver/Src/stm32f0xx_hal_rtc.c ****           defined (STM32F091xC) || defined (STM32F098xx) ||*/
 249:Drivers/STM32F0xx_HAL_Driver/Src/stm32f0xx_hal_rtc.c **** 
 250:Drivers/STM32F0xx_HAL_Driver/Src/stm32f0xx_hal_rtc.c ****   /* Check the parameters */
 251:Drivers/STM32F0xx_HAL_Driver/Src/stm32f0xx_hal_rtc.c ****   assert_param(IS_RTC_ALL_INSTANCE(hrtc->Instance));
 252:Drivers/STM32F0xx_HAL_Driver/Src/stm32f0xx_hal_rtc.c **** 
 253:Drivers/STM32F0xx_HAL_Driver/Src/stm32f0xx_hal_rtc.c ****   /* Set RTC state */
 254:Drivers/STM32F0xx_HAL_Driver/Src/stm32f0xx_hal_rtc.c ****   hrtc->State = HAL_RTC_STATE_BUSY; 
 255:Drivers/STM32F0xx_HAL_Driver/Src/stm32f0xx_hal_rtc.c ****   
 256:Drivers/STM32F0xx_HAL_Driver/Src/stm32f0xx_hal_rtc.c ****   /* Disable the write protection for RTC registers */
 257:Drivers/STM32F0xx_HAL_Driver/Src/stm32f0xx_hal_rtc.c ****   __HAL_RTC_WRITEPROTECTION_DISABLE(hrtc);
 258:Drivers/STM32F0xx_HAL_Driver/Src/stm32f0xx_hal_rtc.c ****   
ARM GAS  /var/folders/vr/85797ndx6jd_r3n_lsprlrj40000gn/T//ccWMqnSu.s 			page 6


 259:Drivers/STM32F0xx_HAL_Driver/Src/stm32f0xx_hal_rtc.c ****   /* Set Initialization mode */
 260:Drivers/STM32F0xx_HAL_Driver/Src/stm32f0xx_hal_rtc.c ****   if(RTC_EnterInitMode(hrtc) != HAL_OK)
 261:Drivers/STM32F0xx_HAL_Driver/Src/stm32f0xx_hal_rtc.c ****   {
 262:Drivers/STM32F0xx_HAL_Driver/Src/stm32f0xx_hal_rtc.c ****     /* Enable the write protection for RTC registers */
 263:Drivers/STM32F0xx_HAL_Driver/Src/stm32f0xx_hal_rtc.c ****     __HAL_RTC_WRITEPROTECTION_ENABLE(hrtc); 
 264:Drivers/STM32F0xx_HAL_Driver/Src/stm32f0xx_hal_rtc.c ****     
 265:Drivers/STM32F0xx_HAL_Driver/Src/stm32f0xx_hal_rtc.c ****     /* Set RTC state */
 266:Drivers/STM32F0xx_HAL_Driver/Src/stm32f0xx_hal_rtc.c ****     hrtc->State = HAL_RTC_STATE_ERROR;
 267:Drivers/STM32F0xx_HAL_Driver/Src/stm32f0xx_hal_rtc.c ****     
 268:Drivers/STM32F0xx_HAL_Driver/Src/stm32f0xx_hal_rtc.c ****     return HAL_ERROR;
 269:Drivers/STM32F0xx_HAL_Driver/Src/stm32f0xx_hal_rtc.c ****   }  
 270:Drivers/STM32F0xx_HAL_Driver/Src/stm32f0xx_hal_rtc.c ****   else
 271:Drivers/STM32F0xx_HAL_Driver/Src/stm32f0xx_hal_rtc.c ****   {
 272:Drivers/STM32F0xx_HAL_Driver/Src/stm32f0xx_hal_rtc.c ****     /* Reset TR, DR and CR registers */
 273:Drivers/STM32F0xx_HAL_Driver/Src/stm32f0xx_hal_rtc.c ****     hrtc->Instance->TR = 0x00000000U;
 274:Drivers/STM32F0xx_HAL_Driver/Src/stm32f0xx_hal_rtc.c ****     hrtc->Instance->DR = 0x00002101U;
 275:Drivers/STM32F0xx_HAL_Driver/Src/stm32f0xx_hal_rtc.c ****     
 276:Drivers/STM32F0xx_HAL_Driver/Src/stm32f0xx_hal_rtc.c **** #if defined (STM32F030xC) || defined (STM32F070xB) || \
 277:Drivers/STM32F0xx_HAL_Driver/Src/stm32f0xx_hal_rtc.c ****     defined (STM32F071xB) || defined (STM32F072xB) || defined (STM32F078xx) || \
 278:Drivers/STM32F0xx_HAL_Driver/Src/stm32f0xx_hal_rtc.c ****     defined (STM32F091xC) || defined (STM32F098xx)    
 279:Drivers/STM32F0xx_HAL_Driver/Src/stm32f0xx_hal_rtc.c ****     /* Reset All CR bits except CR[2:0] */
 280:Drivers/STM32F0xx_HAL_Driver/Src/stm32f0xx_hal_rtc.c ****     hrtc->Instance->CR &= 0x00000007U;
 281:Drivers/STM32F0xx_HAL_Driver/Src/stm32f0xx_hal_rtc.c ****     
 282:Drivers/STM32F0xx_HAL_Driver/Src/stm32f0xx_hal_rtc.c ****     tickstart = HAL_GetTick();
 283:Drivers/STM32F0xx_HAL_Driver/Src/stm32f0xx_hal_rtc.c ****     
 284:Drivers/STM32F0xx_HAL_Driver/Src/stm32f0xx_hal_rtc.c ****     /* Wait till WUTWF flag is set and if Time out is reached exit */
 285:Drivers/STM32F0xx_HAL_Driver/Src/stm32f0xx_hal_rtc.c ****     while(((hrtc->Instance->ISR) & RTC_ISR_WUTWF) == (uint32_t)RESET)
 286:Drivers/STM32F0xx_HAL_Driver/Src/stm32f0xx_hal_rtc.c ****     {
 287:Drivers/STM32F0xx_HAL_Driver/Src/stm32f0xx_hal_rtc.c ****       if((HAL_GetTick() - tickstart ) >  RTC_TIMEOUT_VALUE)
 288:Drivers/STM32F0xx_HAL_Driver/Src/stm32f0xx_hal_rtc.c ****       { 
 289:Drivers/STM32F0xx_HAL_Driver/Src/stm32f0xx_hal_rtc.c ****         /* Enable the write protection for RTC registers */
 290:Drivers/STM32F0xx_HAL_Driver/Src/stm32f0xx_hal_rtc.c ****         __HAL_RTC_WRITEPROTECTION_ENABLE(hrtc); 
 291:Drivers/STM32F0xx_HAL_Driver/Src/stm32f0xx_hal_rtc.c ****         
 292:Drivers/STM32F0xx_HAL_Driver/Src/stm32f0xx_hal_rtc.c ****         /* Set RTC state */
 293:Drivers/STM32F0xx_HAL_Driver/Src/stm32f0xx_hal_rtc.c ****         hrtc->State = HAL_RTC_STATE_TIMEOUT;
 294:Drivers/STM32F0xx_HAL_Driver/Src/stm32f0xx_hal_rtc.c ****         
 295:Drivers/STM32F0xx_HAL_Driver/Src/stm32f0xx_hal_rtc.c ****         return HAL_TIMEOUT;
 296:Drivers/STM32F0xx_HAL_Driver/Src/stm32f0xx_hal_rtc.c ****       } 
 297:Drivers/STM32F0xx_HAL_Driver/Src/stm32f0xx_hal_rtc.c ****     }
 298:Drivers/STM32F0xx_HAL_Driver/Src/stm32f0xx_hal_rtc.c **** #endif /* defined (STM32F030xC) || defined (STM32F070xB) ||\
 299:Drivers/STM32F0xx_HAL_Driver/Src/stm32f0xx_hal_rtc.c ****           defined (STM32F071xB) || defined (STM32F072xB) || defined (STM32F078xx) || \
 300:Drivers/STM32F0xx_HAL_Driver/Src/stm32f0xx_hal_rtc.c ****           defined (STM32F091xC) || defined (STM32F098xx) ||*/
 301:Drivers/STM32F0xx_HAL_Driver/Src/stm32f0xx_hal_rtc.c ****           
 302:Drivers/STM32F0xx_HAL_Driver/Src/stm32f0xx_hal_rtc.c ****     /* Reset all RTC CR register bits */
 303:Drivers/STM32F0xx_HAL_Driver/Src/stm32f0xx_hal_rtc.c ****     hrtc->Instance->CR &= 0x00000000U;
 304:Drivers/STM32F0xx_HAL_Driver/Src/stm32f0xx_hal_rtc.c **** #if defined (STM32F030xC) || defined (STM32F070xB) || \
 305:Drivers/STM32F0xx_HAL_Driver/Src/stm32f0xx_hal_rtc.c ****     defined (STM32F071xB) || defined (STM32F072xB) || defined (STM32F078xx) || \
 306:Drivers/STM32F0xx_HAL_Driver/Src/stm32f0xx_hal_rtc.c ****     defined (STM32F091xC) || defined (STM32F098xx)    
 307:Drivers/STM32F0xx_HAL_Driver/Src/stm32f0xx_hal_rtc.c ****     hrtc->Instance->WUTR = 0x0000FFFFU;
 308:Drivers/STM32F0xx_HAL_Driver/Src/stm32f0xx_hal_rtc.c **** #endif /* defined (STM32F030xC) || defined (STM32F070xB) ||\
 309:Drivers/STM32F0xx_HAL_Driver/Src/stm32f0xx_hal_rtc.c ****           defined (STM32F071xB) || defined (STM32F072xB) || defined (STM32F078xx) || \
 310:Drivers/STM32F0xx_HAL_Driver/Src/stm32f0xx_hal_rtc.c ****           defined (STM32F091xC) || defined (STM32F098xx) ||*/    
 311:Drivers/STM32F0xx_HAL_Driver/Src/stm32f0xx_hal_rtc.c ****     hrtc->Instance->PRER = 0x007F00FFU;
 312:Drivers/STM32F0xx_HAL_Driver/Src/stm32f0xx_hal_rtc.c ****     hrtc->Instance->ALRMAR = 0x00000000U;        
 313:Drivers/STM32F0xx_HAL_Driver/Src/stm32f0xx_hal_rtc.c ****     hrtc->Instance->SHIFTR = 0x00000000U;
 314:Drivers/STM32F0xx_HAL_Driver/Src/stm32f0xx_hal_rtc.c ****     hrtc->Instance->CALR = 0x00000000U;
 315:Drivers/STM32F0xx_HAL_Driver/Src/stm32f0xx_hal_rtc.c ****     hrtc->Instance->ALRMASSR = 0x00000000U;
ARM GAS  /var/folders/vr/85797ndx6jd_r3n_lsprlrj40000gn/T//ccWMqnSu.s 			page 7


 316:Drivers/STM32F0xx_HAL_Driver/Src/stm32f0xx_hal_rtc.c ****     
 317:Drivers/STM32F0xx_HAL_Driver/Src/stm32f0xx_hal_rtc.c ****     /* Reset ISR register and exit initialization mode */
 318:Drivers/STM32F0xx_HAL_Driver/Src/stm32f0xx_hal_rtc.c ****     hrtc->Instance->ISR = 0x00000000U;
 319:Drivers/STM32F0xx_HAL_Driver/Src/stm32f0xx_hal_rtc.c ****     
 320:Drivers/STM32F0xx_HAL_Driver/Src/stm32f0xx_hal_rtc.c ****     /* Reset Tamper and alternate functions configuration register */
 321:Drivers/STM32F0xx_HAL_Driver/Src/stm32f0xx_hal_rtc.c ****     hrtc->Instance->TAFCR = 0x00000000;
 322:Drivers/STM32F0xx_HAL_Driver/Src/stm32f0xx_hal_rtc.c ****     
 323:Drivers/STM32F0xx_HAL_Driver/Src/stm32f0xx_hal_rtc.c ****     /* If  RTC_CR_BYPSHAD bit = 0, wait for synchro else this check is not needed */
 324:Drivers/STM32F0xx_HAL_Driver/Src/stm32f0xx_hal_rtc.c ****     if((hrtc->Instance->CR & RTC_CR_BYPSHAD) == RESET)
 325:Drivers/STM32F0xx_HAL_Driver/Src/stm32f0xx_hal_rtc.c ****     {
 326:Drivers/STM32F0xx_HAL_Driver/Src/stm32f0xx_hal_rtc.c ****       if(HAL_RTC_WaitForSynchro(hrtc) != HAL_OK)
 327:Drivers/STM32F0xx_HAL_Driver/Src/stm32f0xx_hal_rtc.c ****       {
 328:Drivers/STM32F0xx_HAL_Driver/Src/stm32f0xx_hal_rtc.c ****         /* Enable the write protection for RTC registers */
 329:Drivers/STM32F0xx_HAL_Driver/Src/stm32f0xx_hal_rtc.c ****         __HAL_RTC_WRITEPROTECTION_ENABLE(hrtc);  
 330:Drivers/STM32F0xx_HAL_Driver/Src/stm32f0xx_hal_rtc.c ****         
 331:Drivers/STM32F0xx_HAL_Driver/Src/stm32f0xx_hal_rtc.c ****         hrtc->State = HAL_RTC_STATE_ERROR;
 332:Drivers/STM32F0xx_HAL_Driver/Src/stm32f0xx_hal_rtc.c ****         
 333:Drivers/STM32F0xx_HAL_Driver/Src/stm32f0xx_hal_rtc.c ****         return HAL_ERROR;
 334:Drivers/STM32F0xx_HAL_Driver/Src/stm32f0xx_hal_rtc.c ****       }
 335:Drivers/STM32F0xx_HAL_Driver/Src/stm32f0xx_hal_rtc.c ****     }    
 336:Drivers/STM32F0xx_HAL_Driver/Src/stm32f0xx_hal_rtc.c ****   }
 337:Drivers/STM32F0xx_HAL_Driver/Src/stm32f0xx_hal_rtc.c ****   
 338:Drivers/STM32F0xx_HAL_Driver/Src/stm32f0xx_hal_rtc.c ****   /* Enable the write protection for RTC registers */
 339:Drivers/STM32F0xx_HAL_Driver/Src/stm32f0xx_hal_rtc.c ****   __HAL_RTC_WRITEPROTECTION_ENABLE(hrtc);
 340:Drivers/STM32F0xx_HAL_Driver/Src/stm32f0xx_hal_rtc.c ****   
 341:Drivers/STM32F0xx_HAL_Driver/Src/stm32f0xx_hal_rtc.c ****   /* De-Initialize RTC MSP */
 342:Drivers/STM32F0xx_HAL_Driver/Src/stm32f0xx_hal_rtc.c ****   HAL_RTC_MspDeInit(hrtc);
 343:Drivers/STM32F0xx_HAL_Driver/Src/stm32f0xx_hal_rtc.c ****   
 344:Drivers/STM32F0xx_HAL_Driver/Src/stm32f0xx_hal_rtc.c ****   hrtc->State = HAL_RTC_STATE_RESET; 
 345:Drivers/STM32F0xx_HAL_Driver/Src/stm32f0xx_hal_rtc.c ****   
 346:Drivers/STM32F0xx_HAL_Driver/Src/stm32f0xx_hal_rtc.c ****   /* Release Lock */
 347:Drivers/STM32F0xx_HAL_Driver/Src/stm32f0xx_hal_rtc.c ****   __HAL_UNLOCK(hrtc);
 348:Drivers/STM32F0xx_HAL_Driver/Src/stm32f0xx_hal_rtc.c **** 
 349:Drivers/STM32F0xx_HAL_Driver/Src/stm32f0xx_hal_rtc.c ****   return HAL_OK;
 350:Drivers/STM32F0xx_HAL_Driver/Src/stm32f0xx_hal_rtc.c **** }
 351:Drivers/STM32F0xx_HAL_Driver/Src/stm32f0xx_hal_rtc.c **** 
 352:Drivers/STM32F0xx_HAL_Driver/Src/stm32f0xx_hal_rtc.c **** /**
 353:Drivers/STM32F0xx_HAL_Driver/Src/stm32f0xx_hal_rtc.c ****   * @brief  Initialize the RTC MSP.
 354:Drivers/STM32F0xx_HAL_Driver/Src/stm32f0xx_hal_rtc.c ****   * @param  hrtc RTC handle  
 355:Drivers/STM32F0xx_HAL_Driver/Src/stm32f0xx_hal_rtc.c ****   * @retval None
 356:Drivers/STM32F0xx_HAL_Driver/Src/stm32f0xx_hal_rtc.c ****   */
 357:Drivers/STM32F0xx_HAL_Driver/Src/stm32f0xx_hal_rtc.c **** __weak void HAL_RTC_MspInit(RTC_HandleTypeDef* hrtc)
 358:Drivers/STM32F0xx_HAL_Driver/Src/stm32f0xx_hal_rtc.c **** {
  29              		.loc 1 358 1 view -0
  30              		.cfi_startproc
  31              		@ args = 0, pretend = 0, frame = 0
  32              		@ frame_needed = 0, uses_anonymous_args = 0
  33              		@ link register save eliminated.
 359:Drivers/STM32F0xx_HAL_Driver/Src/stm32f0xx_hal_rtc.c ****   /* Prevent unused argument(s) compilation warning */
 360:Drivers/STM32F0xx_HAL_Driver/Src/stm32f0xx_hal_rtc.c ****   UNUSED(hrtc);
  34              		.loc 1 360 3 view .LVU1
 361:Drivers/STM32F0xx_HAL_Driver/Src/stm32f0xx_hal_rtc.c **** 
 362:Drivers/STM32F0xx_HAL_Driver/Src/stm32f0xx_hal_rtc.c ****   /* NOTE : This function should not be modified, when the callback is needed,
 363:Drivers/STM32F0xx_HAL_Driver/Src/stm32f0xx_hal_rtc.c ****             the HAL_RTC_MspInit could be implemented in the user file
 364:Drivers/STM32F0xx_HAL_Driver/Src/stm32f0xx_hal_rtc.c ****    */ 
 365:Drivers/STM32F0xx_HAL_Driver/Src/stm32f0xx_hal_rtc.c **** }
  35              		.loc 1 365 1 is_stmt 0 view .LVU2
ARM GAS  /var/folders/vr/85797ndx6jd_r3n_lsprlrj40000gn/T//ccWMqnSu.s 			page 8


  36              		@ sp needed
  37 0000 7047     		bx	lr
  38              		.cfi_endproc
  39              	.LFE39:
  41 0002 C046     		.section	.text.HAL_RTC_MspDeInit,"ax",%progbits
  42              		.align	1
  43              		.p2align 2,,3
  44              		.weak	HAL_RTC_MspDeInit
  45              		.syntax unified
  46              		.code	16
  47              		.thumb_func
  48              		.fpu softvfp
  50              	HAL_RTC_MspDeInit:
  51              	.LFB58:
  52              		.cfi_startproc
  53              		@ args = 0, pretend = 0, frame = 0
  54              		@ frame_needed = 0, uses_anonymous_args = 0
  55              		@ link register save eliminated.
  56              		@ sp needed
  57 0000 7047     		bx	lr
  58              		.cfi_endproc
  59              	.LFE58:
  61 0002 C046     		.section	.text.HAL_RTC_GetTime,"ax",%progbits
  62              		.align	1
  63              		.p2align 2,,3
  64              		.global	HAL_RTC_GetTime
  65              		.syntax unified
  66              		.code	16
  67              		.thumb_func
  68              		.fpu softvfp
  70              	HAL_RTC_GetTime:
  71              	.LVL1:
  72              	.LFB42:
 366:Drivers/STM32F0xx_HAL_Driver/Src/stm32f0xx_hal_rtc.c **** 
 367:Drivers/STM32F0xx_HAL_Driver/Src/stm32f0xx_hal_rtc.c **** /**
 368:Drivers/STM32F0xx_HAL_Driver/Src/stm32f0xx_hal_rtc.c ****   * @brief  DeInitialize the RTC MSP.
 369:Drivers/STM32F0xx_HAL_Driver/Src/stm32f0xx_hal_rtc.c ****   * @param  hrtc RTC handle 
 370:Drivers/STM32F0xx_HAL_Driver/Src/stm32f0xx_hal_rtc.c ****   * @retval None
 371:Drivers/STM32F0xx_HAL_Driver/Src/stm32f0xx_hal_rtc.c ****   */
 372:Drivers/STM32F0xx_HAL_Driver/Src/stm32f0xx_hal_rtc.c **** __weak void HAL_RTC_MspDeInit(RTC_HandleTypeDef* hrtc)
 373:Drivers/STM32F0xx_HAL_Driver/Src/stm32f0xx_hal_rtc.c **** {
 374:Drivers/STM32F0xx_HAL_Driver/Src/stm32f0xx_hal_rtc.c ****   /* Prevent unused argument(s) compilation warning */
 375:Drivers/STM32F0xx_HAL_Driver/Src/stm32f0xx_hal_rtc.c ****   UNUSED(hrtc);
 376:Drivers/STM32F0xx_HAL_Driver/Src/stm32f0xx_hal_rtc.c **** 
 377:Drivers/STM32F0xx_HAL_Driver/Src/stm32f0xx_hal_rtc.c ****   /* NOTE : This function should not be modified, when the callback is needed,
 378:Drivers/STM32F0xx_HAL_Driver/Src/stm32f0xx_hal_rtc.c ****             the HAL_RTC_MspDeInit could be implemented in the user file
 379:Drivers/STM32F0xx_HAL_Driver/Src/stm32f0xx_hal_rtc.c ****    */ 
 380:Drivers/STM32F0xx_HAL_Driver/Src/stm32f0xx_hal_rtc.c **** }
 381:Drivers/STM32F0xx_HAL_Driver/Src/stm32f0xx_hal_rtc.c **** 
 382:Drivers/STM32F0xx_HAL_Driver/Src/stm32f0xx_hal_rtc.c **** /**
 383:Drivers/STM32F0xx_HAL_Driver/Src/stm32f0xx_hal_rtc.c ****   * @}
 384:Drivers/STM32F0xx_HAL_Driver/Src/stm32f0xx_hal_rtc.c ****   */
 385:Drivers/STM32F0xx_HAL_Driver/Src/stm32f0xx_hal_rtc.c **** 
 386:Drivers/STM32F0xx_HAL_Driver/Src/stm32f0xx_hal_rtc.c **** /** @addtogroup RTC_Exported_Functions_Group2
 387:Drivers/STM32F0xx_HAL_Driver/Src/stm32f0xx_hal_rtc.c ****  *  @brief   RTC Time and Date functions
 388:Drivers/STM32F0xx_HAL_Driver/Src/stm32f0xx_hal_rtc.c ****  *
 389:Drivers/STM32F0xx_HAL_Driver/Src/stm32f0xx_hal_rtc.c **** @verbatim   
ARM GAS  /var/folders/vr/85797ndx6jd_r3n_lsprlrj40000gn/T//ccWMqnSu.s 			page 9


 390:Drivers/STM32F0xx_HAL_Driver/Src/stm32f0xx_hal_rtc.c ****  ===============================================================================
 391:Drivers/STM32F0xx_HAL_Driver/Src/stm32f0xx_hal_rtc.c ****                  ##### RTC Time and Date functions #####
 392:Drivers/STM32F0xx_HAL_Driver/Src/stm32f0xx_hal_rtc.c ****  ===============================================================================  
 393:Drivers/STM32F0xx_HAL_Driver/Src/stm32f0xx_hal_rtc.c ****  
 394:Drivers/STM32F0xx_HAL_Driver/Src/stm32f0xx_hal_rtc.c ****  [..] This section provides functions allowing to configure Time and Date features
 395:Drivers/STM32F0xx_HAL_Driver/Src/stm32f0xx_hal_rtc.c **** 
 396:Drivers/STM32F0xx_HAL_Driver/Src/stm32f0xx_hal_rtc.c **** @endverbatim
 397:Drivers/STM32F0xx_HAL_Driver/Src/stm32f0xx_hal_rtc.c ****   * @{
 398:Drivers/STM32F0xx_HAL_Driver/Src/stm32f0xx_hal_rtc.c ****   */
 399:Drivers/STM32F0xx_HAL_Driver/Src/stm32f0xx_hal_rtc.c **** 
 400:Drivers/STM32F0xx_HAL_Driver/Src/stm32f0xx_hal_rtc.c **** /**
 401:Drivers/STM32F0xx_HAL_Driver/Src/stm32f0xx_hal_rtc.c ****   * @brief  Set RTC current time.
 402:Drivers/STM32F0xx_HAL_Driver/Src/stm32f0xx_hal_rtc.c ****   * @param  hrtc RTC handle
 403:Drivers/STM32F0xx_HAL_Driver/Src/stm32f0xx_hal_rtc.c ****   * @param  sTime Pointer to Time structure
 404:Drivers/STM32F0xx_HAL_Driver/Src/stm32f0xx_hal_rtc.c ****   * @param  Format Specifies the format of the entered parameters.
 405:Drivers/STM32F0xx_HAL_Driver/Src/stm32f0xx_hal_rtc.c ****   *          This parameter can be one of the following values:
 406:Drivers/STM32F0xx_HAL_Driver/Src/stm32f0xx_hal_rtc.c ****   *            @arg RTC_FORMAT_BIN: Binary data format 
 407:Drivers/STM32F0xx_HAL_Driver/Src/stm32f0xx_hal_rtc.c ****   *            @arg RTC_FORMAT_BCD: BCD data format
 408:Drivers/STM32F0xx_HAL_Driver/Src/stm32f0xx_hal_rtc.c ****   * @retval HAL status
 409:Drivers/STM32F0xx_HAL_Driver/Src/stm32f0xx_hal_rtc.c ****   */
 410:Drivers/STM32F0xx_HAL_Driver/Src/stm32f0xx_hal_rtc.c **** HAL_StatusTypeDef HAL_RTC_SetTime(RTC_HandleTypeDef *hrtc, RTC_TimeTypeDef *sTime, uint32_t Format)
 411:Drivers/STM32F0xx_HAL_Driver/Src/stm32f0xx_hal_rtc.c **** {
 412:Drivers/STM32F0xx_HAL_Driver/Src/stm32f0xx_hal_rtc.c ****   uint32_t tmpreg = 0U;
 413:Drivers/STM32F0xx_HAL_Driver/Src/stm32f0xx_hal_rtc.c ****   
 414:Drivers/STM32F0xx_HAL_Driver/Src/stm32f0xx_hal_rtc.c ****  /* Check the parameters */
 415:Drivers/STM32F0xx_HAL_Driver/Src/stm32f0xx_hal_rtc.c ****   assert_param(IS_RTC_FORMAT(Format));
 416:Drivers/STM32F0xx_HAL_Driver/Src/stm32f0xx_hal_rtc.c ****   assert_param(IS_RTC_DAYLIGHT_SAVING(sTime->DayLightSaving));
 417:Drivers/STM32F0xx_HAL_Driver/Src/stm32f0xx_hal_rtc.c ****   assert_param(IS_RTC_STORE_OPERATION(sTime->StoreOperation));
 418:Drivers/STM32F0xx_HAL_Driver/Src/stm32f0xx_hal_rtc.c ****   
 419:Drivers/STM32F0xx_HAL_Driver/Src/stm32f0xx_hal_rtc.c ****   /* Process Locked */ 
 420:Drivers/STM32F0xx_HAL_Driver/Src/stm32f0xx_hal_rtc.c ****   __HAL_LOCK(hrtc);
 421:Drivers/STM32F0xx_HAL_Driver/Src/stm32f0xx_hal_rtc.c ****   
 422:Drivers/STM32F0xx_HAL_Driver/Src/stm32f0xx_hal_rtc.c ****   hrtc->State = HAL_RTC_STATE_BUSY;
 423:Drivers/STM32F0xx_HAL_Driver/Src/stm32f0xx_hal_rtc.c ****   
 424:Drivers/STM32F0xx_HAL_Driver/Src/stm32f0xx_hal_rtc.c ****   if(Format == RTC_FORMAT_BIN)
 425:Drivers/STM32F0xx_HAL_Driver/Src/stm32f0xx_hal_rtc.c ****   {
 426:Drivers/STM32F0xx_HAL_Driver/Src/stm32f0xx_hal_rtc.c ****     if((hrtc->Instance->CR & RTC_CR_FMT) != (uint32_t)RESET)
 427:Drivers/STM32F0xx_HAL_Driver/Src/stm32f0xx_hal_rtc.c ****     {
 428:Drivers/STM32F0xx_HAL_Driver/Src/stm32f0xx_hal_rtc.c ****       assert_param(IS_RTC_HOUR12(sTime->Hours));
 429:Drivers/STM32F0xx_HAL_Driver/Src/stm32f0xx_hal_rtc.c ****       assert_param(IS_RTC_HOURFORMAT12(sTime->TimeFormat));
 430:Drivers/STM32F0xx_HAL_Driver/Src/stm32f0xx_hal_rtc.c ****     } 
 431:Drivers/STM32F0xx_HAL_Driver/Src/stm32f0xx_hal_rtc.c ****     else
 432:Drivers/STM32F0xx_HAL_Driver/Src/stm32f0xx_hal_rtc.c ****     {
 433:Drivers/STM32F0xx_HAL_Driver/Src/stm32f0xx_hal_rtc.c ****       sTime->TimeFormat = 0x00U;
 434:Drivers/STM32F0xx_HAL_Driver/Src/stm32f0xx_hal_rtc.c ****       assert_param(IS_RTC_HOUR24(sTime->Hours));
 435:Drivers/STM32F0xx_HAL_Driver/Src/stm32f0xx_hal_rtc.c ****     }
 436:Drivers/STM32F0xx_HAL_Driver/Src/stm32f0xx_hal_rtc.c ****     assert_param(IS_RTC_MINUTES(sTime->Minutes));
 437:Drivers/STM32F0xx_HAL_Driver/Src/stm32f0xx_hal_rtc.c ****     assert_param(IS_RTC_SECONDS(sTime->Seconds));
 438:Drivers/STM32F0xx_HAL_Driver/Src/stm32f0xx_hal_rtc.c ****     
 439:Drivers/STM32F0xx_HAL_Driver/Src/stm32f0xx_hal_rtc.c ****     tmpreg = (uint32_t)(((uint32_t)RTC_ByteToBcd2(sTime->Hours) << 16U) | \
 440:Drivers/STM32F0xx_HAL_Driver/Src/stm32f0xx_hal_rtc.c ****                         ((uint32_t)RTC_ByteToBcd2(sTime->Minutes) << 8U) | \
 441:Drivers/STM32F0xx_HAL_Driver/Src/stm32f0xx_hal_rtc.c ****                         ((uint32_t)RTC_ByteToBcd2(sTime->Seconds)) | \
 442:Drivers/STM32F0xx_HAL_Driver/Src/stm32f0xx_hal_rtc.c ****                         (((uint32_t)sTime->TimeFormat) << 16U));  
 443:Drivers/STM32F0xx_HAL_Driver/Src/stm32f0xx_hal_rtc.c ****   }
 444:Drivers/STM32F0xx_HAL_Driver/Src/stm32f0xx_hal_rtc.c ****   else
 445:Drivers/STM32F0xx_HAL_Driver/Src/stm32f0xx_hal_rtc.c ****   {
 446:Drivers/STM32F0xx_HAL_Driver/Src/stm32f0xx_hal_rtc.c ****     if((hrtc->Instance->CR & RTC_CR_FMT) != (uint32_t)RESET)
ARM GAS  /var/folders/vr/85797ndx6jd_r3n_lsprlrj40000gn/T//ccWMqnSu.s 			page 10


 447:Drivers/STM32F0xx_HAL_Driver/Src/stm32f0xx_hal_rtc.c ****     {
 448:Drivers/STM32F0xx_HAL_Driver/Src/stm32f0xx_hal_rtc.c ****       tmpreg = RTC_Bcd2ToByte(sTime->Hours);
 449:Drivers/STM32F0xx_HAL_Driver/Src/stm32f0xx_hal_rtc.c ****       assert_param(IS_RTC_HOUR12(tmpreg));
 450:Drivers/STM32F0xx_HAL_Driver/Src/stm32f0xx_hal_rtc.c ****       assert_param(IS_RTC_HOURFORMAT12(sTime->TimeFormat)); 
 451:Drivers/STM32F0xx_HAL_Driver/Src/stm32f0xx_hal_rtc.c ****     } 
 452:Drivers/STM32F0xx_HAL_Driver/Src/stm32f0xx_hal_rtc.c ****     else
 453:Drivers/STM32F0xx_HAL_Driver/Src/stm32f0xx_hal_rtc.c ****     {
 454:Drivers/STM32F0xx_HAL_Driver/Src/stm32f0xx_hal_rtc.c ****       sTime->TimeFormat = 0x00U;
 455:Drivers/STM32F0xx_HAL_Driver/Src/stm32f0xx_hal_rtc.c ****       assert_param(IS_RTC_HOUR24(RTC_Bcd2ToByte(sTime->Hours)));
 456:Drivers/STM32F0xx_HAL_Driver/Src/stm32f0xx_hal_rtc.c ****     }
 457:Drivers/STM32F0xx_HAL_Driver/Src/stm32f0xx_hal_rtc.c ****     assert_param(IS_RTC_MINUTES(RTC_Bcd2ToByte(sTime->Minutes)));
 458:Drivers/STM32F0xx_HAL_Driver/Src/stm32f0xx_hal_rtc.c ****     assert_param(IS_RTC_SECONDS(RTC_Bcd2ToByte(sTime->Seconds)));
 459:Drivers/STM32F0xx_HAL_Driver/Src/stm32f0xx_hal_rtc.c ****     tmpreg = (((uint32_t)(sTime->Hours) << 16U) | \
 460:Drivers/STM32F0xx_HAL_Driver/Src/stm32f0xx_hal_rtc.c ****               ((uint32_t)(sTime->Minutes) << 8U) | \
 461:Drivers/STM32F0xx_HAL_Driver/Src/stm32f0xx_hal_rtc.c ****               ((uint32_t)sTime->Seconds) | \
 462:Drivers/STM32F0xx_HAL_Driver/Src/stm32f0xx_hal_rtc.c ****               ((uint32_t)(sTime->TimeFormat) << 16U));   
 463:Drivers/STM32F0xx_HAL_Driver/Src/stm32f0xx_hal_rtc.c ****   }
 464:Drivers/STM32F0xx_HAL_Driver/Src/stm32f0xx_hal_rtc.c ****   
 465:Drivers/STM32F0xx_HAL_Driver/Src/stm32f0xx_hal_rtc.c ****   /* Disable the write protection for RTC registers */
 466:Drivers/STM32F0xx_HAL_Driver/Src/stm32f0xx_hal_rtc.c ****   __HAL_RTC_WRITEPROTECTION_DISABLE(hrtc);
 467:Drivers/STM32F0xx_HAL_Driver/Src/stm32f0xx_hal_rtc.c ****   
 468:Drivers/STM32F0xx_HAL_Driver/Src/stm32f0xx_hal_rtc.c ****   /* Set Initialization mode */
 469:Drivers/STM32F0xx_HAL_Driver/Src/stm32f0xx_hal_rtc.c ****   if(RTC_EnterInitMode(hrtc) != HAL_OK)
 470:Drivers/STM32F0xx_HAL_Driver/Src/stm32f0xx_hal_rtc.c ****   {
 471:Drivers/STM32F0xx_HAL_Driver/Src/stm32f0xx_hal_rtc.c ****     /* Enable the write protection for RTC registers */
 472:Drivers/STM32F0xx_HAL_Driver/Src/stm32f0xx_hal_rtc.c ****     __HAL_RTC_WRITEPROTECTION_ENABLE(hrtc); 
 473:Drivers/STM32F0xx_HAL_Driver/Src/stm32f0xx_hal_rtc.c ****     
 474:Drivers/STM32F0xx_HAL_Driver/Src/stm32f0xx_hal_rtc.c ****     /* Set RTC state */
 475:Drivers/STM32F0xx_HAL_Driver/Src/stm32f0xx_hal_rtc.c ****     hrtc->State = HAL_RTC_STATE_ERROR;
 476:Drivers/STM32F0xx_HAL_Driver/Src/stm32f0xx_hal_rtc.c ****     
 477:Drivers/STM32F0xx_HAL_Driver/Src/stm32f0xx_hal_rtc.c ****     /* Process Unlocked */ 
 478:Drivers/STM32F0xx_HAL_Driver/Src/stm32f0xx_hal_rtc.c ****     __HAL_UNLOCK(hrtc);
 479:Drivers/STM32F0xx_HAL_Driver/Src/stm32f0xx_hal_rtc.c ****     
 480:Drivers/STM32F0xx_HAL_Driver/Src/stm32f0xx_hal_rtc.c ****     return HAL_ERROR;
 481:Drivers/STM32F0xx_HAL_Driver/Src/stm32f0xx_hal_rtc.c ****   } 
 482:Drivers/STM32F0xx_HAL_Driver/Src/stm32f0xx_hal_rtc.c ****   else
 483:Drivers/STM32F0xx_HAL_Driver/Src/stm32f0xx_hal_rtc.c ****   {
 484:Drivers/STM32F0xx_HAL_Driver/Src/stm32f0xx_hal_rtc.c ****     /* Set the RTC_TR register */
 485:Drivers/STM32F0xx_HAL_Driver/Src/stm32f0xx_hal_rtc.c ****     hrtc->Instance->TR = (uint32_t)(tmpreg & RTC_TR_RESERVED_MASK);
 486:Drivers/STM32F0xx_HAL_Driver/Src/stm32f0xx_hal_rtc.c ****      
 487:Drivers/STM32F0xx_HAL_Driver/Src/stm32f0xx_hal_rtc.c ****     /* Clear the bits to be configured */
 488:Drivers/STM32F0xx_HAL_Driver/Src/stm32f0xx_hal_rtc.c ****     hrtc->Instance->CR &= ((uint32_t)~RTC_CR_BKP);
 489:Drivers/STM32F0xx_HAL_Driver/Src/stm32f0xx_hal_rtc.c **** 
 490:Drivers/STM32F0xx_HAL_Driver/Src/stm32f0xx_hal_rtc.c ****     /* Configure the RTC_CR register */
 491:Drivers/STM32F0xx_HAL_Driver/Src/stm32f0xx_hal_rtc.c ****     hrtc->Instance->CR |= (uint32_t)(sTime->DayLightSaving | sTime->StoreOperation);
 492:Drivers/STM32F0xx_HAL_Driver/Src/stm32f0xx_hal_rtc.c ****     
 493:Drivers/STM32F0xx_HAL_Driver/Src/stm32f0xx_hal_rtc.c ****     /* Exit Initialization mode */
 494:Drivers/STM32F0xx_HAL_Driver/Src/stm32f0xx_hal_rtc.c ****     hrtc->Instance->ISR &= ((uint32_t)~RTC_ISR_INIT);
 495:Drivers/STM32F0xx_HAL_Driver/Src/stm32f0xx_hal_rtc.c **** 
 496:Drivers/STM32F0xx_HAL_Driver/Src/stm32f0xx_hal_rtc.c ****     /* If  CR_BYPSHAD bit = 0, wait for synchro else this check is not needed */
 497:Drivers/STM32F0xx_HAL_Driver/Src/stm32f0xx_hal_rtc.c ****     if((hrtc->Instance->CR & RTC_CR_BYPSHAD) == RESET)
 498:Drivers/STM32F0xx_HAL_Driver/Src/stm32f0xx_hal_rtc.c ****     {
 499:Drivers/STM32F0xx_HAL_Driver/Src/stm32f0xx_hal_rtc.c ****       if(HAL_RTC_WaitForSynchro(hrtc) != HAL_OK)
 500:Drivers/STM32F0xx_HAL_Driver/Src/stm32f0xx_hal_rtc.c ****       {        
 501:Drivers/STM32F0xx_HAL_Driver/Src/stm32f0xx_hal_rtc.c ****         /* Enable the write protection for RTC registers */
 502:Drivers/STM32F0xx_HAL_Driver/Src/stm32f0xx_hal_rtc.c ****         __HAL_RTC_WRITEPROTECTION_ENABLE(hrtc);  
 503:Drivers/STM32F0xx_HAL_Driver/Src/stm32f0xx_hal_rtc.c ****         
ARM GAS  /var/folders/vr/85797ndx6jd_r3n_lsprlrj40000gn/T//ccWMqnSu.s 			page 11


 504:Drivers/STM32F0xx_HAL_Driver/Src/stm32f0xx_hal_rtc.c ****         hrtc->State = HAL_RTC_STATE_ERROR;
 505:Drivers/STM32F0xx_HAL_Driver/Src/stm32f0xx_hal_rtc.c ****         
 506:Drivers/STM32F0xx_HAL_Driver/Src/stm32f0xx_hal_rtc.c ****         /* Process Unlocked */ 
 507:Drivers/STM32F0xx_HAL_Driver/Src/stm32f0xx_hal_rtc.c ****         __HAL_UNLOCK(hrtc);
 508:Drivers/STM32F0xx_HAL_Driver/Src/stm32f0xx_hal_rtc.c ****         
 509:Drivers/STM32F0xx_HAL_Driver/Src/stm32f0xx_hal_rtc.c ****         return HAL_ERROR;
 510:Drivers/STM32F0xx_HAL_Driver/Src/stm32f0xx_hal_rtc.c ****       }
 511:Drivers/STM32F0xx_HAL_Driver/Src/stm32f0xx_hal_rtc.c ****     }
 512:Drivers/STM32F0xx_HAL_Driver/Src/stm32f0xx_hal_rtc.c ****     
 513:Drivers/STM32F0xx_HAL_Driver/Src/stm32f0xx_hal_rtc.c ****     /* Enable the write protection for RTC registers */
 514:Drivers/STM32F0xx_HAL_Driver/Src/stm32f0xx_hal_rtc.c ****     __HAL_RTC_WRITEPROTECTION_ENABLE(hrtc);
 515:Drivers/STM32F0xx_HAL_Driver/Src/stm32f0xx_hal_rtc.c ****     
 516:Drivers/STM32F0xx_HAL_Driver/Src/stm32f0xx_hal_rtc.c ****    hrtc->State = HAL_RTC_STATE_READY;
 517:Drivers/STM32F0xx_HAL_Driver/Src/stm32f0xx_hal_rtc.c ****   
 518:Drivers/STM32F0xx_HAL_Driver/Src/stm32f0xx_hal_rtc.c ****    __HAL_UNLOCK(hrtc); 
 519:Drivers/STM32F0xx_HAL_Driver/Src/stm32f0xx_hal_rtc.c ****      
 520:Drivers/STM32F0xx_HAL_Driver/Src/stm32f0xx_hal_rtc.c ****    return HAL_OK;
 521:Drivers/STM32F0xx_HAL_Driver/Src/stm32f0xx_hal_rtc.c ****   }
 522:Drivers/STM32F0xx_HAL_Driver/Src/stm32f0xx_hal_rtc.c **** }
 523:Drivers/STM32F0xx_HAL_Driver/Src/stm32f0xx_hal_rtc.c **** 
 524:Drivers/STM32F0xx_HAL_Driver/Src/stm32f0xx_hal_rtc.c **** /**
 525:Drivers/STM32F0xx_HAL_Driver/Src/stm32f0xx_hal_rtc.c ****   * @brief  Get RTC current time.
 526:Drivers/STM32F0xx_HAL_Driver/Src/stm32f0xx_hal_rtc.c ****   * @param  hrtc RTC handle
 527:Drivers/STM32F0xx_HAL_Driver/Src/stm32f0xx_hal_rtc.c ****   * @param  sTime Pointer to Time structure with Hours, Minutes and Seconds fields returned 
 528:Drivers/STM32F0xx_HAL_Driver/Src/stm32f0xx_hal_rtc.c ****   *                with input format (BIN or BCD), also SubSeconds field returning the
 529:Drivers/STM32F0xx_HAL_Driver/Src/stm32f0xx_hal_rtc.c ****   *                RTC_SSR register content and SecondFraction field the Synchronous pre-scaler
 530:Drivers/STM32F0xx_HAL_Driver/Src/stm32f0xx_hal_rtc.c ****   *                factor to be used for second fraction ratio computation.
 531:Drivers/STM32F0xx_HAL_Driver/Src/stm32f0xx_hal_rtc.c ****   * @param  Format Specifies the format of the entered parameters.
 532:Drivers/STM32F0xx_HAL_Driver/Src/stm32f0xx_hal_rtc.c ****   *          This parameter can be one of the following values:
 533:Drivers/STM32F0xx_HAL_Driver/Src/stm32f0xx_hal_rtc.c ****   *            @arg RTC_FORMAT_BIN: Binary data format 
 534:Drivers/STM32F0xx_HAL_Driver/Src/stm32f0xx_hal_rtc.c ****   *            @arg RTC_FORMAT_BCD: BCD data format
 535:Drivers/STM32F0xx_HAL_Driver/Src/stm32f0xx_hal_rtc.c ****   * @note  You can use SubSeconds and SecondFraction (sTime structure fields returned) to convert S
 536:Drivers/STM32F0xx_HAL_Driver/Src/stm32f0xx_hal_rtc.c ****   *        value in second fraction ratio with time unit following generic formula:
 537:Drivers/STM32F0xx_HAL_Driver/Src/stm32f0xx_hal_rtc.c ****   *        Second fraction ratio * time_unit= [(SecondFraction-SubSeconds)/(SecondFraction+1)] * ti
 538:Drivers/STM32F0xx_HAL_Driver/Src/stm32f0xx_hal_rtc.c ****   *        This conversion can be performed only if no shift operation is pending (ie. SHFP=0) when
 539:Drivers/STM32F0xx_HAL_Driver/Src/stm32f0xx_hal_rtc.c ****   * @note You must call HAL_RTC_GetDate() after HAL_RTC_GetTime() to unlock the values 
 540:Drivers/STM32F0xx_HAL_Driver/Src/stm32f0xx_hal_rtc.c ****   * in the higher-order calendar shadow registers to ensure consistency between the time and date v
 541:Drivers/STM32F0xx_HAL_Driver/Src/stm32f0xx_hal_rtc.c ****   * Reading RTC current time locks the values in calendar shadow registers until Current date is re
 542:Drivers/STM32F0xx_HAL_Driver/Src/stm32f0xx_hal_rtc.c ****   * to ensure consistency between the time and date values.
 543:Drivers/STM32F0xx_HAL_Driver/Src/stm32f0xx_hal_rtc.c ****   * @retval HAL status
 544:Drivers/STM32F0xx_HAL_Driver/Src/stm32f0xx_hal_rtc.c ****   */
 545:Drivers/STM32F0xx_HAL_Driver/Src/stm32f0xx_hal_rtc.c **** HAL_StatusTypeDef HAL_RTC_GetTime(RTC_HandleTypeDef *hrtc, RTC_TimeTypeDef *sTime, uint32_t Format)
 546:Drivers/STM32F0xx_HAL_Driver/Src/stm32f0xx_hal_rtc.c **** {
  73              		.loc 1 546 1 is_stmt 1 view -0
  74              		.cfi_startproc
  75              		@ args = 0, pretend = 0, frame = 0
  76              		@ frame_needed = 0, uses_anonymous_args = 0
 547:Drivers/STM32F0xx_HAL_Driver/Src/stm32f0xx_hal_rtc.c ****   uint32_t tmpreg = 0;
  77              		.loc 1 547 3 view .LVU4
 548:Drivers/STM32F0xx_HAL_Driver/Src/stm32f0xx_hal_rtc.c **** 
 549:Drivers/STM32F0xx_HAL_Driver/Src/stm32f0xx_hal_rtc.c ****   /* Check the parameters */
 550:Drivers/STM32F0xx_HAL_Driver/Src/stm32f0xx_hal_rtc.c ****   assert_param(IS_RTC_FORMAT(Format));
  78              		.loc 1 550 3 view .LVU5
 551:Drivers/STM32F0xx_HAL_Driver/Src/stm32f0xx_hal_rtc.c ****   
 552:Drivers/STM32F0xx_HAL_Driver/Src/stm32f0xx_hal_rtc.c ****   /* Get subseconds structure field from the corresponding register*/
 553:Drivers/STM32F0xx_HAL_Driver/Src/stm32f0xx_hal_rtc.c ****   sTime->SubSeconds = (uint32_t)(hrtc->Instance->SSR);
  79              		.loc 1 553 3 view .LVU6
ARM GAS  /var/folders/vr/85797ndx6jd_r3n_lsprlrj40000gn/T//ccWMqnSu.s 			page 12


  80              		.loc 1 553 38 is_stmt 0 view .LVU7
  81 0000 0068     		ldr	r0, [r0]
  82              	.LVL2:
 546:Drivers/STM32F0xx_HAL_Driver/Src/stm32f0xx_hal_rtc.c ****   uint32_t tmpreg = 0;
  83              		.loc 1 546 1 view .LVU8
  84 0002 70B5     		push	{r4, r5, r6, lr}
  85              	.LCFI0:
  86              		.cfi_def_cfa_offset 16
  87              		.cfi_offset 4, -16
  88              		.cfi_offset 5, -12
  89              		.cfi_offset 6, -8
  90              		.cfi_offset 14, -4
  91              		.loc 1 553 48 view .LVU9
  92 0004 836A     		ldr	r3, [r0, #40]
 554:Drivers/STM32F0xx_HAL_Driver/Src/stm32f0xx_hal_rtc.c **** 
 555:Drivers/STM32F0xx_HAL_Driver/Src/stm32f0xx_hal_rtc.c ****   /* Get SecondFraction structure field from the corresponding register field*/
 556:Drivers/STM32F0xx_HAL_Driver/Src/stm32f0xx_hal_rtc.c ****   sTime->SecondFraction = (uint32_t)(hrtc->Instance->PRER & RTC_PRER_PREDIV_S);
 557:Drivers/STM32F0xx_HAL_Driver/Src/stm32f0xx_hal_rtc.c ****   
 558:Drivers/STM32F0xx_HAL_Driver/Src/stm32f0xx_hal_rtc.c ****   /* Get the TR register */
 559:Drivers/STM32F0xx_HAL_Driver/Src/stm32f0xx_hal_rtc.c ****   tmpreg = (uint32_t)(hrtc->Instance->TR & RTC_TR_RESERVED_MASK); 
 560:Drivers/STM32F0xx_HAL_Driver/Src/stm32f0xx_hal_rtc.c ****   
 561:Drivers/STM32F0xx_HAL_Driver/Src/stm32f0xx_hal_rtc.c ****   /* Fill the structure fields with the read parameters */
 562:Drivers/STM32F0xx_HAL_Driver/Src/stm32f0xx_hal_rtc.c ****   sTime->Hours = (uint8_t)((tmpreg & (RTC_TR_HT | RTC_TR_HU)) >> 16U);
 563:Drivers/STM32F0xx_HAL_Driver/Src/stm32f0xx_hal_rtc.c ****   sTime->Minutes = (uint8_t)((tmpreg & (RTC_TR_MNT | RTC_TR_MNU)) >>8U);
 564:Drivers/STM32F0xx_HAL_Driver/Src/stm32f0xx_hal_rtc.c ****   sTime->Seconds = (uint8_t)(tmpreg & (RTC_TR_ST | RTC_TR_SU));
 565:Drivers/STM32F0xx_HAL_Driver/Src/stm32f0xx_hal_rtc.c ****   sTime->TimeFormat = (uint8_t)((tmpreg & (RTC_TR_PM)) >> 16U); 
  93              		.loc 1 565 23 view .LVU10
  94 0006 4026     		movs	r6, #64
 553:Drivers/STM32F0xx_HAL_Driver/Src/stm32f0xx_hal_rtc.c **** 
  95              		.loc 1 553 21 view .LVU11
  96 0008 4B60     		str	r3, [r1, #4]
 556:Drivers/STM32F0xx_HAL_Driver/Src/stm32f0xx_hal_rtc.c ****   
  97              		.loc 1 556 3 is_stmt 1 view .LVU12
 556:Drivers/STM32F0xx_HAL_Driver/Src/stm32f0xx_hal_rtc.c ****   
  98              		.loc 1 556 52 is_stmt 0 view .LVU13
  99 000a 0369     		ldr	r3, [r0, #16]
 559:Drivers/STM32F0xx_HAL_Driver/Src/stm32f0xx_hal_rtc.c ****   
 100              		.loc 1 559 37 view .LVU14
 101 000c 0468     		ldr	r4, [r0]
 562:Drivers/STM32F0xx_HAL_Driver/Src/stm32f0xx_hal_rtc.c ****   sTime->Minutes = (uint8_t)((tmpreg & (RTC_TR_MNT | RTC_TR_MNU)) >>8U);
 102              		.loc 1 562 18 view .LVU15
 103 000e 3F20     		movs	r0, #63
 556:Drivers/STM32F0xx_HAL_Driver/Src/stm32f0xx_hal_rtc.c ****   
 104              		.loc 1 556 27 view .LVU16
 105 0010 5B04     		lsls	r3, r3, #17
 106 0012 5B0C     		lsrs	r3, r3, #17
 556:Drivers/STM32F0xx_HAL_Driver/Src/stm32f0xx_hal_rtc.c ****   
 107              		.loc 1 556 25 view .LVU17
 108 0014 8B60     		str	r3, [r1, #8]
 559:Drivers/STM32F0xx_HAL_Driver/Src/stm32f0xx_hal_rtc.c ****   
 109              		.loc 1 559 3 is_stmt 1 view .LVU18
 559:Drivers/STM32F0xx_HAL_Driver/Src/stm32f0xx_hal_rtc.c ****   
 110              		.loc 1 559 10 is_stmt 0 view .LVU19
 111 0016 134B     		ldr	r3, .L6
 112 0018 1C40     		ands	r4, r3
 113              	.LVL3:
 562:Drivers/STM32F0xx_HAL_Driver/Src/stm32f0xx_hal_rtc.c ****   sTime->Minutes = (uint8_t)((tmpreg & (RTC_TR_MNT | RTC_TR_MNU)) >>8U);
ARM GAS  /var/folders/vr/85797ndx6jd_r3n_lsprlrj40000gn/T//ccWMqnSu.s 			page 13


 114              		.loc 1 562 3 is_stmt 1 view .LVU20
 562:Drivers/STM32F0xx_HAL_Driver/Src/stm32f0xx_hal_rtc.c ****   sTime->Minutes = (uint8_t)((tmpreg & (RTC_TR_MNT | RTC_TR_MNU)) >>8U);
 115              		.loc 1 562 18 is_stmt 0 view .LVU21
 116 001a 250C     		lsrs	r5, r4, #16
 563:Drivers/STM32F0xx_HAL_Driver/Src/stm32f0xx_hal_rtc.c ****   sTime->Seconds = (uint8_t)(tmpreg & (RTC_TR_ST | RTC_TR_SU));
 117              		.loc 1 563 67 view .LVU22
 118 001c 230A     		lsrs	r3, r4, #8
 562:Drivers/STM32F0xx_HAL_Driver/Src/stm32f0xx_hal_rtc.c ****   sTime->Minutes = (uint8_t)((tmpreg & (RTC_TR_MNT | RTC_TR_MNU)) >>8U);
 119              		.loc 1 562 18 view .LVU23
 120 001e 2840     		ands	r0, r5
 563:Drivers/STM32F0xx_HAL_Driver/Src/stm32f0xx_hal_rtc.c ****   sTime->Seconds = (uint8_t)(tmpreg & (RTC_TR_ST | RTC_TR_SU));
 121              		.loc 1 563 20 view .LVU24
 122 0020 DBB2     		uxtb	r3, r3
 564:Drivers/STM32F0xx_HAL_Driver/Src/stm32f0xx_hal_rtc.c ****   sTime->TimeFormat = (uint8_t)((tmpreg & (RTC_TR_PM)) >> 16U); 
 123              		.loc 1 564 20 view .LVU25
 124 0022 E4B2     		uxtb	r4, r4
 125              	.LVL4:
 126              		.loc 1 565 23 view .LVU26
 127 0024 2E40     		ands	r6, r5
 562:Drivers/STM32F0xx_HAL_Driver/Src/stm32f0xx_hal_rtc.c ****   sTime->Minutes = (uint8_t)((tmpreg & (RTC_TR_MNT | RTC_TR_MNU)) >>8U);
 128              		.loc 1 562 16 view .LVU27
 129 0026 0870     		strb	r0, [r1]
 563:Drivers/STM32F0xx_HAL_Driver/Src/stm32f0xx_hal_rtc.c ****   sTime->Seconds = (uint8_t)(tmpreg & (RTC_TR_ST | RTC_TR_SU));
 130              		.loc 1 563 3 is_stmt 1 view .LVU28
 563:Drivers/STM32F0xx_HAL_Driver/Src/stm32f0xx_hal_rtc.c ****   sTime->Seconds = (uint8_t)(tmpreg & (RTC_TR_ST | RTC_TR_SU));
 131              		.loc 1 563 18 is_stmt 0 view .LVU29
 132 0028 4B70     		strb	r3, [r1, #1]
 564:Drivers/STM32F0xx_HAL_Driver/Src/stm32f0xx_hal_rtc.c ****   sTime->TimeFormat = (uint8_t)((tmpreg & (RTC_TR_PM)) >> 16U); 
 133              		.loc 1 564 3 is_stmt 1 view .LVU30
 564:Drivers/STM32F0xx_HAL_Driver/Src/stm32f0xx_hal_rtc.c ****   sTime->TimeFormat = (uint8_t)((tmpreg & (RTC_TR_PM)) >> 16U); 
 134              		.loc 1 564 18 is_stmt 0 view .LVU31
 135 002a 8C70     		strb	r4, [r1, #2]
 136              		.loc 1 565 3 is_stmt 1 view .LVU32
 137              		.loc 1 565 21 is_stmt 0 view .LVU33
 138 002c CE70     		strb	r6, [r1, #3]
 566:Drivers/STM32F0xx_HAL_Driver/Src/stm32f0xx_hal_rtc.c ****   
 567:Drivers/STM32F0xx_HAL_Driver/Src/stm32f0xx_hal_rtc.c ****   /* Check the input parameters format */
 568:Drivers/STM32F0xx_HAL_Driver/Src/stm32f0xx_hal_rtc.c ****   if(Format == RTC_FORMAT_BIN)
 139              		.loc 1 568 3 is_stmt 1 view .LVU34
 140              		.loc 1 568 5 is_stmt 0 view .LVU35
 141 002e 002A     		cmp	r2, #0
 142 0030 15D1     		bne	.L5
 569:Drivers/STM32F0xx_HAL_Driver/Src/stm32f0xx_hal_rtc.c ****   {
 570:Drivers/STM32F0xx_HAL_Driver/Src/stm32f0xx_hal_rtc.c ****     /* Convert the time structure parameters to Binary format */
 571:Drivers/STM32F0xx_HAL_Driver/Src/stm32f0xx_hal_rtc.c ****     sTime->Hours = (uint8_t)RTC_Bcd2ToByte(sTime->Hours);
 143              		.loc 1 571 5 is_stmt 1 view .LVU36
 144              	.LVL5:
 145              	.LBB68:
 146              	.LBI68:
 572:Drivers/STM32F0xx_HAL_Driver/Src/stm32f0xx_hal_rtc.c ****     sTime->Minutes = (uint8_t)RTC_Bcd2ToByte(sTime->Minutes);
 573:Drivers/STM32F0xx_HAL_Driver/Src/stm32f0xx_hal_rtc.c ****     sTime->Seconds = (uint8_t)RTC_Bcd2ToByte(sTime->Seconds);  
 574:Drivers/STM32F0xx_HAL_Driver/Src/stm32f0xx_hal_rtc.c ****   }
 575:Drivers/STM32F0xx_HAL_Driver/Src/stm32f0xx_hal_rtc.c ****   
 576:Drivers/STM32F0xx_HAL_Driver/Src/stm32f0xx_hal_rtc.c ****   return HAL_OK;
 577:Drivers/STM32F0xx_HAL_Driver/Src/stm32f0xx_hal_rtc.c **** }
 578:Drivers/STM32F0xx_HAL_Driver/Src/stm32f0xx_hal_rtc.c **** 
 579:Drivers/STM32F0xx_HAL_Driver/Src/stm32f0xx_hal_rtc.c **** /**
ARM GAS  /var/folders/vr/85797ndx6jd_r3n_lsprlrj40000gn/T//ccWMqnSu.s 			page 14


 580:Drivers/STM32F0xx_HAL_Driver/Src/stm32f0xx_hal_rtc.c ****   * @brief  Set RTC current date.
 581:Drivers/STM32F0xx_HAL_Driver/Src/stm32f0xx_hal_rtc.c ****   * @param  hrtc RTC handle
 582:Drivers/STM32F0xx_HAL_Driver/Src/stm32f0xx_hal_rtc.c ****   * @param  sDate Pointer to date structure
 583:Drivers/STM32F0xx_HAL_Driver/Src/stm32f0xx_hal_rtc.c ****   * @param  Format specifies the format of the entered parameters.
 584:Drivers/STM32F0xx_HAL_Driver/Src/stm32f0xx_hal_rtc.c ****   *          This parameter can be one of the following values:
 585:Drivers/STM32F0xx_HAL_Driver/Src/stm32f0xx_hal_rtc.c ****   *            @arg RTC_FORMAT_BIN: Binary data format 
 586:Drivers/STM32F0xx_HAL_Driver/Src/stm32f0xx_hal_rtc.c ****   *            @arg RTC_FORMAT_BCD: BCD data format
 587:Drivers/STM32F0xx_HAL_Driver/Src/stm32f0xx_hal_rtc.c ****   * @retval HAL status
 588:Drivers/STM32F0xx_HAL_Driver/Src/stm32f0xx_hal_rtc.c ****   */
 589:Drivers/STM32F0xx_HAL_Driver/Src/stm32f0xx_hal_rtc.c **** HAL_StatusTypeDef HAL_RTC_SetDate(RTC_HandleTypeDef *hrtc, RTC_DateTypeDef *sDate, uint32_t Format)
 590:Drivers/STM32F0xx_HAL_Driver/Src/stm32f0xx_hal_rtc.c **** {
 591:Drivers/STM32F0xx_HAL_Driver/Src/stm32f0xx_hal_rtc.c ****   uint32_t datetmpreg = 0U;
 592:Drivers/STM32F0xx_HAL_Driver/Src/stm32f0xx_hal_rtc.c ****   
 593:Drivers/STM32F0xx_HAL_Driver/Src/stm32f0xx_hal_rtc.c ****  /* Check the parameters */
 594:Drivers/STM32F0xx_HAL_Driver/Src/stm32f0xx_hal_rtc.c ****   assert_param(IS_RTC_FORMAT(Format));
 595:Drivers/STM32F0xx_HAL_Driver/Src/stm32f0xx_hal_rtc.c ****   
 596:Drivers/STM32F0xx_HAL_Driver/Src/stm32f0xx_hal_rtc.c ****  /* Process Locked */ 
 597:Drivers/STM32F0xx_HAL_Driver/Src/stm32f0xx_hal_rtc.c ****  __HAL_LOCK(hrtc);
 598:Drivers/STM32F0xx_HAL_Driver/Src/stm32f0xx_hal_rtc.c ****   
 599:Drivers/STM32F0xx_HAL_Driver/Src/stm32f0xx_hal_rtc.c ****   hrtc->State = HAL_RTC_STATE_BUSY; 
 600:Drivers/STM32F0xx_HAL_Driver/Src/stm32f0xx_hal_rtc.c ****   
 601:Drivers/STM32F0xx_HAL_Driver/Src/stm32f0xx_hal_rtc.c ****   if((Format == RTC_FORMAT_BIN) && ((sDate->Month & 0x10U) == 0x10U))
 602:Drivers/STM32F0xx_HAL_Driver/Src/stm32f0xx_hal_rtc.c ****   {
 603:Drivers/STM32F0xx_HAL_Driver/Src/stm32f0xx_hal_rtc.c ****     sDate->Month = (uint8_t)((sDate->Month & (uint8_t)~(0x10U)) + (uint8_t)0x0AU);
 604:Drivers/STM32F0xx_HAL_Driver/Src/stm32f0xx_hal_rtc.c ****   }
 605:Drivers/STM32F0xx_HAL_Driver/Src/stm32f0xx_hal_rtc.c ****   
 606:Drivers/STM32F0xx_HAL_Driver/Src/stm32f0xx_hal_rtc.c ****   assert_param(IS_RTC_WEEKDAY(sDate->WeekDay));
 607:Drivers/STM32F0xx_HAL_Driver/Src/stm32f0xx_hal_rtc.c ****   
 608:Drivers/STM32F0xx_HAL_Driver/Src/stm32f0xx_hal_rtc.c ****   if(Format == RTC_FORMAT_BIN)
 609:Drivers/STM32F0xx_HAL_Driver/Src/stm32f0xx_hal_rtc.c ****   {   
 610:Drivers/STM32F0xx_HAL_Driver/Src/stm32f0xx_hal_rtc.c ****     assert_param(IS_RTC_YEAR(sDate->Year));
 611:Drivers/STM32F0xx_HAL_Driver/Src/stm32f0xx_hal_rtc.c ****     assert_param(IS_RTC_MONTH(sDate->Month));
 612:Drivers/STM32F0xx_HAL_Driver/Src/stm32f0xx_hal_rtc.c ****     assert_param(IS_RTC_DATE(sDate->Date)); 
 613:Drivers/STM32F0xx_HAL_Driver/Src/stm32f0xx_hal_rtc.c ****     
 614:Drivers/STM32F0xx_HAL_Driver/Src/stm32f0xx_hal_rtc.c ****    datetmpreg = (((uint32_t)RTC_ByteToBcd2(sDate->Year) << 16U) | \
 615:Drivers/STM32F0xx_HAL_Driver/Src/stm32f0xx_hal_rtc.c ****                  ((uint32_t)RTC_ByteToBcd2(sDate->Month) << 8U) | \
 616:Drivers/STM32F0xx_HAL_Driver/Src/stm32f0xx_hal_rtc.c ****                  ((uint32_t)RTC_ByteToBcd2(sDate->Date)) | \
 617:Drivers/STM32F0xx_HAL_Driver/Src/stm32f0xx_hal_rtc.c ****                  ((uint32_t)sDate->WeekDay << 13U));   
 618:Drivers/STM32F0xx_HAL_Driver/Src/stm32f0xx_hal_rtc.c ****   }
 619:Drivers/STM32F0xx_HAL_Driver/Src/stm32f0xx_hal_rtc.c ****   else
 620:Drivers/STM32F0xx_HAL_Driver/Src/stm32f0xx_hal_rtc.c ****   {   
 621:Drivers/STM32F0xx_HAL_Driver/Src/stm32f0xx_hal_rtc.c ****     assert_param(IS_RTC_YEAR(RTC_Bcd2ToByte(sDate->Year)));
 622:Drivers/STM32F0xx_HAL_Driver/Src/stm32f0xx_hal_rtc.c ****     datetmpreg = RTC_Bcd2ToByte(sDate->Month);
 623:Drivers/STM32F0xx_HAL_Driver/Src/stm32f0xx_hal_rtc.c ****     assert_param(IS_RTC_MONTH(datetmpreg));
 624:Drivers/STM32F0xx_HAL_Driver/Src/stm32f0xx_hal_rtc.c ****     datetmpreg = RTC_Bcd2ToByte(sDate->Date);
 625:Drivers/STM32F0xx_HAL_Driver/Src/stm32f0xx_hal_rtc.c ****     assert_param(IS_RTC_DATE(datetmpreg));
 626:Drivers/STM32F0xx_HAL_Driver/Src/stm32f0xx_hal_rtc.c ****     
 627:Drivers/STM32F0xx_HAL_Driver/Src/stm32f0xx_hal_rtc.c ****     datetmpreg = ((((uint32_t)sDate->Year) << 16U) | \
 628:Drivers/STM32F0xx_HAL_Driver/Src/stm32f0xx_hal_rtc.c ****                   (((uint32_t)sDate->Month) << 8U) | \
 629:Drivers/STM32F0xx_HAL_Driver/Src/stm32f0xx_hal_rtc.c ****                   ((uint32_t)sDate->Date) | \
 630:Drivers/STM32F0xx_HAL_Driver/Src/stm32f0xx_hal_rtc.c ****                   (((uint32_t)sDate->WeekDay) << 13U));  
 631:Drivers/STM32F0xx_HAL_Driver/Src/stm32f0xx_hal_rtc.c ****   }
 632:Drivers/STM32F0xx_HAL_Driver/Src/stm32f0xx_hal_rtc.c **** 
 633:Drivers/STM32F0xx_HAL_Driver/Src/stm32f0xx_hal_rtc.c ****   /* Disable the write protection for RTC registers */
 634:Drivers/STM32F0xx_HAL_Driver/Src/stm32f0xx_hal_rtc.c ****   __HAL_RTC_WRITEPROTECTION_DISABLE(hrtc);
 635:Drivers/STM32F0xx_HAL_Driver/Src/stm32f0xx_hal_rtc.c ****   
 636:Drivers/STM32F0xx_HAL_Driver/Src/stm32f0xx_hal_rtc.c ****   /* Set Initialization mode */
ARM GAS  /var/folders/vr/85797ndx6jd_r3n_lsprlrj40000gn/T//ccWMqnSu.s 			page 15


 637:Drivers/STM32F0xx_HAL_Driver/Src/stm32f0xx_hal_rtc.c ****   if(RTC_EnterInitMode(hrtc) != HAL_OK)
 638:Drivers/STM32F0xx_HAL_Driver/Src/stm32f0xx_hal_rtc.c ****   {
 639:Drivers/STM32F0xx_HAL_Driver/Src/stm32f0xx_hal_rtc.c ****     /* Enable the write protection for RTC registers */
 640:Drivers/STM32F0xx_HAL_Driver/Src/stm32f0xx_hal_rtc.c ****     __HAL_RTC_WRITEPROTECTION_ENABLE(hrtc); 
 641:Drivers/STM32F0xx_HAL_Driver/Src/stm32f0xx_hal_rtc.c ****     
 642:Drivers/STM32F0xx_HAL_Driver/Src/stm32f0xx_hal_rtc.c ****     /* Set RTC state*/
 643:Drivers/STM32F0xx_HAL_Driver/Src/stm32f0xx_hal_rtc.c ****     hrtc->State = HAL_RTC_STATE_ERROR;
 644:Drivers/STM32F0xx_HAL_Driver/Src/stm32f0xx_hal_rtc.c ****     
 645:Drivers/STM32F0xx_HAL_Driver/Src/stm32f0xx_hal_rtc.c ****     /* Process Unlocked */ 
 646:Drivers/STM32F0xx_HAL_Driver/Src/stm32f0xx_hal_rtc.c ****     __HAL_UNLOCK(hrtc);
 647:Drivers/STM32F0xx_HAL_Driver/Src/stm32f0xx_hal_rtc.c ****     
 648:Drivers/STM32F0xx_HAL_Driver/Src/stm32f0xx_hal_rtc.c ****     return HAL_ERROR;
 649:Drivers/STM32F0xx_HAL_Driver/Src/stm32f0xx_hal_rtc.c ****   } 
 650:Drivers/STM32F0xx_HAL_Driver/Src/stm32f0xx_hal_rtc.c ****   else
 651:Drivers/STM32F0xx_HAL_Driver/Src/stm32f0xx_hal_rtc.c ****   {
 652:Drivers/STM32F0xx_HAL_Driver/Src/stm32f0xx_hal_rtc.c ****     /* Set the RTC_DR register */
 653:Drivers/STM32F0xx_HAL_Driver/Src/stm32f0xx_hal_rtc.c ****     hrtc->Instance->DR = (uint32_t)(datetmpreg & RTC_DR_RESERVED_MASK);
 654:Drivers/STM32F0xx_HAL_Driver/Src/stm32f0xx_hal_rtc.c ****     
 655:Drivers/STM32F0xx_HAL_Driver/Src/stm32f0xx_hal_rtc.c ****     /* Exit Initialization mode */
 656:Drivers/STM32F0xx_HAL_Driver/Src/stm32f0xx_hal_rtc.c ****     hrtc->Instance->ISR &= ((uint32_t)~RTC_ISR_INIT);
 657:Drivers/STM32F0xx_HAL_Driver/Src/stm32f0xx_hal_rtc.c **** 
 658:Drivers/STM32F0xx_HAL_Driver/Src/stm32f0xx_hal_rtc.c ****     /* If  CR_BYPSHAD bit = 0, wait for synchro else this check is not needed */
 659:Drivers/STM32F0xx_HAL_Driver/Src/stm32f0xx_hal_rtc.c ****     if((hrtc->Instance->CR & RTC_CR_BYPSHAD) == RESET)
 660:Drivers/STM32F0xx_HAL_Driver/Src/stm32f0xx_hal_rtc.c ****     {
 661:Drivers/STM32F0xx_HAL_Driver/Src/stm32f0xx_hal_rtc.c ****       if(HAL_RTC_WaitForSynchro(hrtc) != HAL_OK)
 662:Drivers/STM32F0xx_HAL_Driver/Src/stm32f0xx_hal_rtc.c ****       { 
 663:Drivers/STM32F0xx_HAL_Driver/Src/stm32f0xx_hal_rtc.c ****         /* Enable the write protection for RTC registers */
 664:Drivers/STM32F0xx_HAL_Driver/Src/stm32f0xx_hal_rtc.c ****         __HAL_RTC_WRITEPROTECTION_ENABLE(hrtc);  
 665:Drivers/STM32F0xx_HAL_Driver/Src/stm32f0xx_hal_rtc.c ****         
 666:Drivers/STM32F0xx_HAL_Driver/Src/stm32f0xx_hal_rtc.c ****         hrtc->State = HAL_RTC_STATE_ERROR;
 667:Drivers/STM32F0xx_HAL_Driver/Src/stm32f0xx_hal_rtc.c ****         
 668:Drivers/STM32F0xx_HAL_Driver/Src/stm32f0xx_hal_rtc.c ****         /* Process Unlocked */ 
 669:Drivers/STM32F0xx_HAL_Driver/Src/stm32f0xx_hal_rtc.c ****         __HAL_UNLOCK(hrtc);
 670:Drivers/STM32F0xx_HAL_Driver/Src/stm32f0xx_hal_rtc.c ****         
 671:Drivers/STM32F0xx_HAL_Driver/Src/stm32f0xx_hal_rtc.c ****         return HAL_ERROR;
 672:Drivers/STM32F0xx_HAL_Driver/Src/stm32f0xx_hal_rtc.c ****       }
 673:Drivers/STM32F0xx_HAL_Driver/Src/stm32f0xx_hal_rtc.c ****     }
 674:Drivers/STM32F0xx_HAL_Driver/Src/stm32f0xx_hal_rtc.c ****     
 675:Drivers/STM32F0xx_HAL_Driver/Src/stm32f0xx_hal_rtc.c ****     /* Enable the write protection for RTC registers */
 676:Drivers/STM32F0xx_HAL_Driver/Src/stm32f0xx_hal_rtc.c ****     __HAL_RTC_WRITEPROTECTION_ENABLE(hrtc);  
 677:Drivers/STM32F0xx_HAL_Driver/Src/stm32f0xx_hal_rtc.c ****     
 678:Drivers/STM32F0xx_HAL_Driver/Src/stm32f0xx_hal_rtc.c ****     hrtc->State = HAL_RTC_STATE_READY ;
 679:Drivers/STM32F0xx_HAL_Driver/Src/stm32f0xx_hal_rtc.c ****     
 680:Drivers/STM32F0xx_HAL_Driver/Src/stm32f0xx_hal_rtc.c ****     /* Process Unlocked */ 
 681:Drivers/STM32F0xx_HAL_Driver/Src/stm32f0xx_hal_rtc.c ****     __HAL_UNLOCK(hrtc);
 682:Drivers/STM32F0xx_HAL_Driver/Src/stm32f0xx_hal_rtc.c ****     
 683:Drivers/STM32F0xx_HAL_Driver/Src/stm32f0xx_hal_rtc.c ****     return HAL_OK;    
 684:Drivers/STM32F0xx_HAL_Driver/Src/stm32f0xx_hal_rtc.c ****   }
 685:Drivers/STM32F0xx_HAL_Driver/Src/stm32f0xx_hal_rtc.c **** }
 686:Drivers/STM32F0xx_HAL_Driver/Src/stm32f0xx_hal_rtc.c **** 
 687:Drivers/STM32F0xx_HAL_Driver/Src/stm32f0xx_hal_rtc.c **** /**
 688:Drivers/STM32F0xx_HAL_Driver/Src/stm32f0xx_hal_rtc.c ****   * @brief  Get RTC current date.
 689:Drivers/STM32F0xx_HAL_Driver/Src/stm32f0xx_hal_rtc.c ****   * @param  hrtc RTC handle
 690:Drivers/STM32F0xx_HAL_Driver/Src/stm32f0xx_hal_rtc.c ****   * @param  sDate Pointer to Date structure
 691:Drivers/STM32F0xx_HAL_Driver/Src/stm32f0xx_hal_rtc.c ****   * @param  Format Specifies the format of the entered parameters.
 692:Drivers/STM32F0xx_HAL_Driver/Src/stm32f0xx_hal_rtc.c ****   *          This parameter can be one of the following values:
 693:Drivers/STM32F0xx_HAL_Driver/Src/stm32f0xx_hal_rtc.c ****   *            @arg RTC_FORMAT_BIN :  Binary data format 
ARM GAS  /var/folders/vr/85797ndx6jd_r3n_lsprlrj40000gn/T//ccWMqnSu.s 			page 16


 694:Drivers/STM32F0xx_HAL_Driver/Src/stm32f0xx_hal_rtc.c ****   *            @arg RTC_FORMAT_BCD :  BCD data format
 695:Drivers/STM32F0xx_HAL_Driver/Src/stm32f0xx_hal_rtc.c ****   * @note You must call HAL_RTC_GetDate() after HAL_RTC_GetTime() to unlock the values 
 696:Drivers/STM32F0xx_HAL_Driver/Src/stm32f0xx_hal_rtc.c ****   * in the higher-order calendar shadow registers to ensure consistency between the time and date v
 697:Drivers/STM32F0xx_HAL_Driver/Src/stm32f0xx_hal_rtc.c ****   * Reading RTC current time locks the values in calendar shadow registers until Current date is re
 698:Drivers/STM32F0xx_HAL_Driver/Src/stm32f0xx_hal_rtc.c ****   * @retval HAL status
 699:Drivers/STM32F0xx_HAL_Driver/Src/stm32f0xx_hal_rtc.c ****   */
 700:Drivers/STM32F0xx_HAL_Driver/Src/stm32f0xx_hal_rtc.c **** HAL_StatusTypeDef HAL_RTC_GetDate(RTC_HandleTypeDef *hrtc, RTC_DateTypeDef *sDate, uint32_t Format)
 701:Drivers/STM32F0xx_HAL_Driver/Src/stm32f0xx_hal_rtc.c **** {
 702:Drivers/STM32F0xx_HAL_Driver/Src/stm32f0xx_hal_rtc.c ****   uint32_t datetmpreg = 0;
 703:Drivers/STM32F0xx_HAL_Driver/Src/stm32f0xx_hal_rtc.c **** 
 704:Drivers/STM32F0xx_HAL_Driver/Src/stm32f0xx_hal_rtc.c ****   /* Check the parameters */
 705:Drivers/STM32F0xx_HAL_Driver/Src/stm32f0xx_hal_rtc.c ****   assert_param(IS_RTC_FORMAT(Format));
 706:Drivers/STM32F0xx_HAL_Driver/Src/stm32f0xx_hal_rtc.c ****           
 707:Drivers/STM32F0xx_HAL_Driver/Src/stm32f0xx_hal_rtc.c ****   /* Get the DR register */
 708:Drivers/STM32F0xx_HAL_Driver/Src/stm32f0xx_hal_rtc.c ****   datetmpreg = (uint32_t)(hrtc->Instance->DR & RTC_DR_RESERVED_MASK); 
 709:Drivers/STM32F0xx_HAL_Driver/Src/stm32f0xx_hal_rtc.c **** 
 710:Drivers/STM32F0xx_HAL_Driver/Src/stm32f0xx_hal_rtc.c ****   /* Fill the structure fields with the read parameters */
 711:Drivers/STM32F0xx_HAL_Driver/Src/stm32f0xx_hal_rtc.c ****   sDate->Year = (uint8_t)((datetmpreg & (RTC_DR_YT | RTC_DR_YU)) >> 16U);
 712:Drivers/STM32F0xx_HAL_Driver/Src/stm32f0xx_hal_rtc.c ****   sDate->Month = (uint8_t)((datetmpreg & (RTC_DR_MT | RTC_DR_MU)) >> 8U);
 713:Drivers/STM32F0xx_HAL_Driver/Src/stm32f0xx_hal_rtc.c ****   sDate->Date = (uint8_t)(datetmpreg & (RTC_DR_DT | RTC_DR_DU));
 714:Drivers/STM32F0xx_HAL_Driver/Src/stm32f0xx_hal_rtc.c ****   sDate->WeekDay = (uint8_t)((datetmpreg & (RTC_DR_WDU)) >> 13U); 
 715:Drivers/STM32F0xx_HAL_Driver/Src/stm32f0xx_hal_rtc.c **** 
 716:Drivers/STM32F0xx_HAL_Driver/Src/stm32f0xx_hal_rtc.c ****   /* Check the input parameters format */
 717:Drivers/STM32F0xx_HAL_Driver/Src/stm32f0xx_hal_rtc.c ****   if(Format == RTC_FORMAT_BIN)
 718:Drivers/STM32F0xx_HAL_Driver/Src/stm32f0xx_hal_rtc.c ****   {    
 719:Drivers/STM32F0xx_HAL_Driver/Src/stm32f0xx_hal_rtc.c ****     /* Convert the date structure parameters to Binary format */
 720:Drivers/STM32F0xx_HAL_Driver/Src/stm32f0xx_hal_rtc.c ****     sDate->Year = (uint8_t)RTC_Bcd2ToByte(sDate->Year);
 721:Drivers/STM32F0xx_HAL_Driver/Src/stm32f0xx_hal_rtc.c ****     sDate->Month = (uint8_t)RTC_Bcd2ToByte(sDate->Month);
 722:Drivers/STM32F0xx_HAL_Driver/Src/stm32f0xx_hal_rtc.c ****     sDate->Date = (uint8_t)RTC_Bcd2ToByte(sDate->Date);  
 723:Drivers/STM32F0xx_HAL_Driver/Src/stm32f0xx_hal_rtc.c ****   }
 724:Drivers/STM32F0xx_HAL_Driver/Src/stm32f0xx_hal_rtc.c ****   return HAL_OK;
 725:Drivers/STM32F0xx_HAL_Driver/Src/stm32f0xx_hal_rtc.c **** }
 726:Drivers/STM32F0xx_HAL_Driver/Src/stm32f0xx_hal_rtc.c **** 
 727:Drivers/STM32F0xx_HAL_Driver/Src/stm32f0xx_hal_rtc.c **** /**
 728:Drivers/STM32F0xx_HAL_Driver/Src/stm32f0xx_hal_rtc.c ****   * @}
 729:Drivers/STM32F0xx_HAL_Driver/Src/stm32f0xx_hal_rtc.c ****   */
 730:Drivers/STM32F0xx_HAL_Driver/Src/stm32f0xx_hal_rtc.c **** 
 731:Drivers/STM32F0xx_HAL_Driver/Src/stm32f0xx_hal_rtc.c **** /** @addtogroup RTC_Exported_Functions_Group3
 732:Drivers/STM32F0xx_HAL_Driver/Src/stm32f0xx_hal_rtc.c ****  *  @brief   RTC Alarm functions
 733:Drivers/STM32F0xx_HAL_Driver/Src/stm32f0xx_hal_rtc.c ****  *
 734:Drivers/STM32F0xx_HAL_Driver/Src/stm32f0xx_hal_rtc.c **** @verbatim   
 735:Drivers/STM32F0xx_HAL_Driver/Src/stm32f0xx_hal_rtc.c ****  ===============================================================================
 736:Drivers/STM32F0xx_HAL_Driver/Src/stm32f0xx_hal_rtc.c ****                  ##### RTC Alarm functions #####
 737:Drivers/STM32F0xx_HAL_Driver/Src/stm32f0xx_hal_rtc.c ****  ===============================================================================  
 738:Drivers/STM32F0xx_HAL_Driver/Src/stm32f0xx_hal_rtc.c ****  
 739:Drivers/STM32F0xx_HAL_Driver/Src/stm32f0xx_hal_rtc.c ****  [..] This section provides functions allowing to configure Alarm feature
 740:Drivers/STM32F0xx_HAL_Driver/Src/stm32f0xx_hal_rtc.c **** 
 741:Drivers/STM32F0xx_HAL_Driver/Src/stm32f0xx_hal_rtc.c **** @endverbatim
 742:Drivers/STM32F0xx_HAL_Driver/Src/stm32f0xx_hal_rtc.c ****   * @{
 743:Drivers/STM32F0xx_HAL_Driver/Src/stm32f0xx_hal_rtc.c ****   */
 744:Drivers/STM32F0xx_HAL_Driver/Src/stm32f0xx_hal_rtc.c **** /**
 745:Drivers/STM32F0xx_HAL_Driver/Src/stm32f0xx_hal_rtc.c ****   * @brief  Set the specified RTC Alarm.
 746:Drivers/STM32F0xx_HAL_Driver/Src/stm32f0xx_hal_rtc.c ****   * @param  hrtc RTC handle
 747:Drivers/STM32F0xx_HAL_Driver/Src/stm32f0xx_hal_rtc.c ****   * @param  sAlarm Pointer to Alarm structure
 748:Drivers/STM32F0xx_HAL_Driver/Src/stm32f0xx_hal_rtc.c ****   * @param  Format Specifies the format of the entered parameters.
 749:Drivers/STM32F0xx_HAL_Driver/Src/stm32f0xx_hal_rtc.c ****   *          This parameter can be one of the following values:
 750:Drivers/STM32F0xx_HAL_Driver/Src/stm32f0xx_hal_rtc.c ****   *             @arg RTC_FORMAT_BIN: Binary data format 
ARM GAS  /var/folders/vr/85797ndx6jd_r3n_lsprlrj40000gn/T//ccWMqnSu.s 			page 17


 751:Drivers/STM32F0xx_HAL_Driver/Src/stm32f0xx_hal_rtc.c ****   *             @arg RTC_FORMAT_BCD: BCD data format
 752:Drivers/STM32F0xx_HAL_Driver/Src/stm32f0xx_hal_rtc.c ****   * @retval HAL status
 753:Drivers/STM32F0xx_HAL_Driver/Src/stm32f0xx_hal_rtc.c ****   */
 754:Drivers/STM32F0xx_HAL_Driver/Src/stm32f0xx_hal_rtc.c **** HAL_StatusTypeDef HAL_RTC_SetAlarm(RTC_HandleTypeDef *hrtc, RTC_AlarmTypeDef *sAlarm, uint32_t Form
 755:Drivers/STM32F0xx_HAL_Driver/Src/stm32f0xx_hal_rtc.c **** {
 756:Drivers/STM32F0xx_HAL_Driver/Src/stm32f0xx_hal_rtc.c ****   uint32_t tickstart = 0U;
 757:Drivers/STM32F0xx_HAL_Driver/Src/stm32f0xx_hal_rtc.c ****   uint32_t tmpreg = 0U, subsecondtmpreg = 0U;
 758:Drivers/STM32F0xx_HAL_Driver/Src/stm32f0xx_hal_rtc.c ****   
 759:Drivers/STM32F0xx_HAL_Driver/Src/stm32f0xx_hal_rtc.c ****   /* Check the parameters */
 760:Drivers/STM32F0xx_HAL_Driver/Src/stm32f0xx_hal_rtc.c ****   assert_param(IS_RTC_FORMAT(Format));
 761:Drivers/STM32F0xx_HAL_Driver/Src/stm32f0xx_hal_rtc.c ****   assert_param(IS_RTC_ALARM(sAlarm->Alarm));
 762:Drivers/STM32F0xx_HAL_Driver/Src/stm32f0xx_hal_rtc.c ****   assert_param(IS_RTC_ALARM_MASK(sAlarm->AlarmMask));
 763:Drivers/STM32F0xx_HAL_Driver/Src/stm32f0xx_hal_rtc.c ****   assert_param(IS_RTC_ALARM_DATE_WEEKDAY_SEL(sAlarm->AlarmDateWeekDaySel));
 764:Drivers/STM32F0xx_HAL_Driver/Src/stm32f0xx_hal_rtc.c ****   assert_param(IS_RTC_ALARM_SUB_SECOND_VALUE(sAlarm->AlarmTime.SubSeconds));
 765:Drivers/STM32F0xx_HAL_Driver/Src/stm32f0xx_hal_rtc.c ****   assert_param(IS_RTC_ALARM_SUB_SECOND_MASK(sAlarm->AlarmSubSecondMask));
 766:Drivers/STM32F0xx_HAL_Driver/Src/stm32f0xx_hal_rtc.c ****   
 767:Drivers/STM32F0xx_HAL_Driver/Src/stm32f0xx_hal_rtc.c ****   /* Process Locked */ 
 768:Drivers/STM32F0xx_HAL_Driver/Src/stm32f0xx_hal_rtc.c ****   __HAL_LOCK(hrtc);
 769:Drivers/STM32F0xx_HAL_Driver/Src/stm32f0xx_hal_rtc.c ****   
 770:Drivers/STM32F0xx_HAL_Driver/Src/stm32f0xx_hal_rtc.c ****   hrtc->State = HAL_RTC_STATE_BUSY;
 771:Drivers/STM32F0xx_HAL_Driver/Src/stm32f0xx_hal_rtc.c ****   
 772:Drivers/STM32F0xx_HAL_Driver/Src/stm32f0xx_hal_rtc.c ****   if(Format == RTC_FORMAT_BIN)
 773:Drivers/STM32F0xx_HAL_Driver/Src/stm32f0xx_hal_rtc.c ****   {
 774:Drivers/STM32F0xx_HAL_Driver/Src/stm32f0xx_hal_rtc.c ****     if((hrtc->Instance->CR & RTC_CR_FMT) != (uint32_t)RESET)
 775:Drivers/STM32F0xx_HAL_Driver/Src/stm32f0xx_hal_rtc.c ****     {
 776:Drivers/STM32F0xx_HAL_Driver/Src/stm32f0xx_hal_rtc.c ****       assert_param(IS_RTC_HOUR12(sAlarm->AlarmTime.Hours));
 777:Drivers/STM32F0xx_HAL_Driver/Src/stm32f0xx_hal_rtc.c ****       assert_param(IS_RTC_HOURFORMAT12(sAlarm->AlarmTime.TimeFormat));
 778:Drivers/STM32F0xx_HAL_Driver/Src/stm32f0xx_hal_rtc.c ****     } 
 779:Drivers/STM32F0xx_HAL_Driver/Src/stm32f0xx_hal_rtc.c ****     else
 780:Drivers/STM32F0xx_HAL_Driver/Src/stm32f0xx_hal_rtc.c ****     {
 781:Drivers/STM32F0xx_HAL_Driver/Src/stm32f0xx_hal_rtc.c ****       sAlarm->AlarmTime.TimeFormat = 0x00U;
 782:Drivers/STM32F0xx_HAL_Driver/Src/stm32f0xx_hal_rtc.c ****       assert_param(IS_RTC_HOUR24(sAlarm->AlarmTime.Hours));
 783:Drivers/STM32F0xx_HAL_Driver/Src/stm32f0xx_hal_rtc.c ****     }
 784:Drivers/STM32F0xx_HAL_Driver/Src/stm32f0xx_hal_rtc.c ****     assert_param(IS_RTC_MINUTES(sAlarm->AlarmTime.Minutes));
 785:Drivers/STM32F0xx_HAL_Driver/Src/stm32f0xx_hal_rtc.c ****     assert_param(IS_RTC_SECONDS(sAlarm->AlarmTime.Seconds));
 786:Drivers/STM32F0xx_HAL_Driver/Src/stm32f0xx_hal_rtc.c ****     
 787:Drivers/STM32F0xx_HAL_Driver/Src/stm32f0xx_hal_rtc.c ****     if(sAlarm->AlarmDateWeekDaySel == RTC_ALARMDATEWEEKDAYSEL_DATE)
 788:Drivers/STM32F0xx_HAL_Driver/Src/stm32f0xx_hal_rtc.c ****     {
 789:Drivers/STM32F0xx_HAL_Driver/Src/stm32f0xx_hal_rtc.c ****       assert_param(IS_RTC_ALARM_DATE_WEEKDAY_DATE(sAlarm->AlarmDateWeekDay));
 790:Drivers/STM32F0xx_HAL_Driver/Src/stm32f0xx_hal_rtc.c ****     }
 791:Drivers/STM32F0xx_HAL_Driver/Src/stm32f0xx_hal_rtc.c ****     else
 792:Drivers/STM32F0xx_HAL_Driver/Src/stm32f0xx_hal_rtc.c ****     {
 793:Drivers/STM32F0xx_HAL_Driver/Src/stm32f0xx_hal_rtc.c ****       assert_param(IS_RTC_ALARM_DATE_WEEKDAY_WEEKDAY(sAlarm->AlarmDateWeekDay));
 794:Drivers/STM32F0xx_HAL_Driver/Src/stm32f0xx_hal_rtc.c ****     }
 795:Drivers/STM32F0xx_HAL_Driver/Src/stm32f0xx_hal_rtc.c ****     
 796:Drivers/STM32F0xx_HAL_Driver/Src/stm32f0xx_hal_rtc.c ****     tmpreg = (((uint32_t)RTC_ByteToBcd2(sAlarm->AlarmTime.Hours) << 16U) | \
 797:Drivers/STM32F0xx_HAL_Driver/Src/stm32f0xx_hal_rtc.c ****               ((uint32_t)RTC_ByteToBcd2(sAlarm->AlarmTime.Minutes) << 8U) | \
 798:Drivers/STM32F0xx_HAL_Driver/Src/stm32f0xx_hal_rtc.c ****               ((uint32_t)RTC_ByteToBcd2(sAlarm->AlarmTime.Seconds)) | \
 799:Drivers/STM32F0xx_HAL_Driver/Src/stm32f0xx_hal_rtc.c ****               ((uint32_t)(sAlarm->AlarmTime.TimeFormat) << 16U) | \
 800:Drivers/STM32F0xx_HAL_Driver/Src/stm32f0xx_hal_rtc.c ****               ((uint32_t)RTC_ByteToBcd2(sAlarm->AlarmDateWeekDay) << 24U) | \
 801:Drivers/STM32F0xx_HAL_Driver/Src/stm32f0xx_hal_rtc.c ****               ((uint32_t)sAlarm->AlarmDateWeekDaySel) | \
 802:Drivers/STM32F0xx_HAL_Driver/Src/stm32f0xx_hal_rtc.c ****               ((uint32_t)sAlarm->AlarmMask)); 
 803:Drivers/STM32F0xx_HAL_Driver/Src/stm32f0xx_hal_rtc.c ****   }
 804:Drivers/STM32F0xx_HAL_Driver/Src/stm32f0xx_hal_rtc.c ****   else
 805:Drivers/STM32F0xx_HAL_Driver/Src/stm32f0xx_hal_rtc.c ****   {
 806:Drivers/STM32F0xx_HAL_Driver/Src/stm32f0xx_hal_rtc.c ****     if((hrtc->Instance->CR & RTC_CR_FMT) != (uint32_t)RESET)
 807:Drivers/STM32F0xx_HAL_Driver/Src/stm32f0xx_hal_rtc.c ****     {
ARM GAS  /var/folders/vr/85797ndx6jd_r3n_lsprlrj40000gn/T//ccWMqnSu.s 			page 18


 808:Drivers/STM32F0xx_HAL_Driver/Src/stm32f0xx_hal_rtc.c ****       tmpreg = RTC_Bcd2ToByte(sAlarm->AlarmTime.Hours);
 809:Drivers/STM32F0xx_HAL_Driver/Src/stm32f0xx_hal_rtc.c ****       assert_param(IS_RTC_HOUR12(tmpreg));
 810:Drivers/STM32F0xx_HAL_Driver/Src/stm32f0xx_hal_rtc.c ****       assert_param(IS_RTC_HOURFORMAT12(sAlarm->AlarmTime.TimeFormat));
 811:Drivers/STM32F0xx_HAL_Driver/Src/stm32f0xx_hal_rtc.c ****     } 
 812:Drivers/STM32F0xx_HAL_Driver/Src/stm32f0xx_hal_rtc.c ****     else
 813:Drivers/STM32F0xx_HAL_Driver/Src/stm32f0xx_hal_rtc.c ****     {
 814:Drivers/STM32F0xx_HAL_Driver/Src/stm32f0xx_hal_rtc.c ****       sAlarm->AlarmTime.TimeFormat = 0x00U;
 815:Drivers/STM32F0xx_HAL_Driver/Src/stm32f0xx_hal_rtc.c ****       assert_param(IS_RTC_HOUR24(RTC_Bcd2ToByte(sAlarm->AlarmTime.Hours)));
 816:Drivers/STM32F0xx_HAL_Driver/Src/stm32f0xx_hal_rtc.c ****     }
 817:Drivers/STM32F0xx_HAL_Driver/Src/stm32f0xx_hal_rtc.c ****     
 818:Drivers/STM32F0xx_HAL_Driver/Src/stm32f0xx_hal_rtc.c ****     assert_param(IS_RTC_MINUTES(RTC_Bcd2ToByte(sAlarm->AlarmTime.Minutes)));
 819:Drivers/STM32F0xx_HAL_Driver/Src/stm32f0xx_hal_rtc.c ****     assert_param(IS_RTC_SECONDS(RTC_Bcd2ToByte(sAlarm->AlarmTime.Seconds)));
 820:Drivers/STM32F0xx_HAL_Driver/Src/stm32f0xx_hal_rtc.c ****     
 821:Drivers/STM32F0xx_HAL_Driver/Src/stm32f0xx_hal_rtc.c ****     if(sAlarm->AlarmDateWeekDaySel == RTC_ALARMDATEWEEKDAYSEL_DATE)
 822:Drivers/STM32F0xx_HAL_Driver/Src/stm32f0xx_hal_rtc.c ****     {
 823:Drivers/STM32F0xx_HAL_Driver/Src/stm32f0xx_hal_rtc.c ****       tmpreg = RTC_Bcd2ToByte(sAlarm->AlarmDateWeekDay);
 824:Drivers/STM32F0xx_HAL_Driver/Src/stm32f0xx_hal_rtc.c ****       assert_param(IS_RTC_ALARM_DATE_WEEKDAY_DATE(tmpreg));    
 825:Drivers/STM32F0xx_HAL_Driver/Src/stm32f0xx_hal_rtc.c ****     }
 826:Drivers/STM32F0xx_HAL_Driver/Src/stm32f0xx_hal_rtc.c ****     else
 827:Drivers/STM32F0xx_HAL_Driver/Src/stm32f0xx_hal_rtc.c ****     {
 828:Drivers/STM32F0xx_HAL_Driver/Src/stm32f0xx_hal_rtc.c ****       tmpreg = RTC_Bcd2ToByte(sAlarm->AlarmDateWeekDay);
 829:Drivers/STM32F0xx_HAL_Driver/Src/stm32f0xx_hal_rtc.c ****       assert_param(IS_RTC_ALARM_DATE_WEEKDAY_WEEKDAY(tmpreg));      
 830:Drivers/STM32F0xx_HAL_Driver/Src/stm32f0xx_hal_rtc.c ****     }  
 831:Drivers/STM32F0xx_HAL_Driver/Src/stm32f0xx_hal_rtc.c ****     
 832:Drivers/STM32F0xx_HAL_Driver/Src/stm32f0xx_hal_rtc.c ****     tmpreg = (((uint32_t)(sAlarm->AlarmTime.Hours) << 16U) | \
 833:Drivers/STM32F0xx_HAL_Driver/Src/stm32f0xx_hal_rtc.c ****               ((uint32_t)(sAlarm->AlarmTime.Minutes) << 8U) | \
 834:Drivers/STM32F0xx_HAL_Driver/Src/stm32f0xx_hal_rtc.c ****               ((uint32_t) sAlarm->AlarmTime.Seconds) | \
 835:Drivers/STM32F0xx_HAL_Driver/Src/stm32f0xx_hal_rtc.c ****               ((uint32_t)(sAlarm->AlarmTime.TimeFormat) << 16U) | \
 836:Drivers/STM32F0xx_HAL_Driver/Src/stm32f0xx_hal_rtc.c ****               ((uint32_t)(sAlarm->AlarmDateWeekDay) << 24U) | \
 837:Drivers/STM32F0xx_HAL_Driver/Src/stm32f0xx_hal_rtc.c ****               ((uint32_t)sAlarm->AlarmDateWeekDaySel) | \
 838:Drivers/STM32F0xx_HAL_Driver/Src/stm32f0xx_hal_rtc.c ****               ((uint32_t)sAlarm->AlarmMask));   
 839:Drivers/STM32F0xx_HAL_Driver/Src/stm32f0xx_hal_rtc.c ****   }
 840:Drivers/STM32F0xx_HAL_Driver/Src/stm32f0xx_hal_rtc.c ****   
 841:Drivers/STM32F0xx_HAL_Driver/Src/stm32f0xx_hal_rtc.c ****   /* Configure the Alarm A Sub Second registers */
 842:Drivers/STM32F0xx_HAL_Driver/Src/stm32f0xx_hal_rtc.c ****   subsecondtmpreg = (uint32_t)((uint32_t)(sAlarm->AlarmTime.SubSeconds) | (uint32_t)(sAlarm->AlarmS
 843:Drivers/STM32F0xx_HAL_Driver/Src/stm32f0xx_hal_rtc.c ****   
 844:Drivers/STM32F0xx_HAL_Driver/Src/stm32f0xx_hal_rtc.c ****   /* Disable the write protection for RTC registers */
 845:Drivers/STM32F0xx_HAL_Driver/Src/stm32f0xx_hal_rtc.c ****   __HAL_RTC_WRITEPROTECTION_DISABLE(hrtc);
 846:Drivers/STM32F0xx_HAL_Driver/Src/stm32f0xx_hal_rtc.c **** 
 847:Drivers/STM32F0xx_HAL_Driver/Src/stm32f0xx_hal_rtc.c ****   /* Disable the Alarm A interrupt */
 848:Drivers/STM32F0xx_HAL_Driver/Src/stm32f0xx_hal_rtc.c ****   __HAL_RTC_ALARMA_DISABLE(hrtc);
 849:Drivers/STM32F0xx_HAL_Driver/Src/stm32f0xx_hal_rtc.c **** 
 850:Drivers/STM32F0xx_HAL_Driver/Src/stm32f0xx_hal_rtc.c ****   /* In case of interrupt mode is used, the interrupt source must disabled */ 
 851:Drivers/STM32F0xx_HAL_Driver/Src/stm32f0xx_hal_rtc.c ****   __HAL_RTC_ALARM_DISABLE_IT(hrtc, RTC_IT_ALRA);
 852:Drivers/STM32F0xx_HAL_Driver/Src/stm32f0xx_hal_rtc.c ****          
 853:Drivers/STM32F0xx_HAL_Driver/Src/stm32f0xx_hal_rtc.c ****   tickstart = HAL_GetTick();
 854:Drivers/STM32F0xx_HAL_Driver/Src/stm32f0xx_hal_rtc.c ****   /* Wait till RTC ALRAWF flag is set and if Time out is reached exit */
 855:Drivers/STM32F0xx_HAL_Driver/Src/stm32f0xx_hal_rtc.c ****   while(__HAL_RTC_ALARM_GET_FLAG(hrtc, RTC_FLAG_ALRAWF) == RESET)
 856:Drivers/STM32F0xx_HAL_Driver/Src/stm32f0xx_hal_rtc.c ****   {
 857:Drivers/STM32F0xx_HAL_Driver/Src/stm32f0xx_hal_rtc.c ****     if((HAL_GetTick()-tickstart) > RTC_TIMEOUT_VALUE)
 858:Drivers/STM32F0xx_HAL_Driver/Src/stm32f0xx_hal_rtc.c ****     {
 859:Drivers/STM32F0xx_HAL_Driver/Src/stm32f0xx_hal_rtc.c ****       /* Enable the write protection for RTC registers */
 860:Drivers/STM32F0xx_HAL_Driver/Src/stm32f0xx_hal_rtc.c ****       __HAL_RTC_WRITEPROTECTION_ENABLE(hrtc);
 861:Drivers/STM32F0xx_HAL_Driver/Src/stm32f0xx_hal_rtc.c **** 
 862:Drivers/STM32F0xx_HAL_Driver/Src/stm32f0xx_hal_rtc.c ****       hrtc->State = HAL_RTC_STATE_TIMEOUT; 
 863:Drivers/STM32F0xx_HAL_Driver/Src/stm32f0xx_hal_rtc.c **** 
 864:Drivers/STM32F0xx_HAL_Driver/Src/stm32f0xx_hal_rtc.c ****       /* Process Unlocked */ 
ARM GAS  /var/folders/vr/85797ndx6jd_r3n_lsprlrj40000gn/T//ccWMqnSu.s 			page 19


 865:Drivers/STM32F0xx_HAL_Driver/Src/stm32f0xx_hal_rtc.c ****       __HAL_UNLOCK(hrtc);
 866:Drivers/STM32F0xx_HAL_Driver/Src/stm32f0xx_hal_rtc.c ****         
 867:Drivers/STM32F0xx_HAL_Driver/Src/stm32f0xx_hal_rtc.c ****       return HAL_TIMEOUT;
 868:Drivers/STM32F0xx_HAL_Driver/Src/stm32f0xx_hal_rtc.c ****     }
 869:Drivers/STM32F0xx_HAL_Driver/Src/stm32f0xx_hal_rtc.c ****   }
 870:Drivers/STM32F0xx_HAL_Driver/Src/stm32f0xx_hal_rtc.c ****     
 871:Drivers/STM32F0xx_HAL_Driver/Src/stm32f0xx_hal_rtc.c ****   hrtc->Instance->ALRMAR = (uint32_t)tmpreg;
 872:Drivers/STM32F0xx_HAL_Driver/Src/stm32f0xx_hal_rtc.c ****   /* Configure the Alarm A Sub Second register */
 873:Drivers/STM32F0xx_HAL_Driver/Src/stm32f0xx_hal_rtc.c ****   hrtc->Instance->ALRMASSR = subsecondtmpreg;
 874:Drivers/STM32F0xx_HAL_Driver/Src/stm32f0xx_hal_rtc.c ****   /* Configure the Alarm state: Enable Alarm */
 875:Drivers/STM32F0xx_HAL_Driver/Src/stm32f0xx_hal_rtc.c ****   __HAL_RTC_ALARMA_ENABLE(hrtc);
 876:Drivers/STM32F0xx_HAL_Driver/Src/stm32f0xx_hal_rtc.c ****   
 877:Drivers/STM32F0xx_HAL_Driver/Src/stm32f0xx_hal_rtc.c ****   /* Enable the write protection for RTC registers */
 878:Drivers/STM32F0xx_HAL_Driver/Src/stm32f0xx_hal_rtc.c ****   __HAL_RTC_WRITEPROTECTION_ENABLE(hrtc);   
 879:Drivers/STM32F0xx_HAL_Driver/Src/stm32f0xx_hal_rtc.c ****   
 880:Drivers/STM32F0xx_HAL_Driver/Src/stm32f0xx_hal_rtc.c ****   /* Change RTC state */
 881:Drivers/STM32F0xx_HAL_Driver/Src/stm32f0xx_hal_rtc.c ****   hrtc->State = HAL_RTC_STATE_READY; 
 882:Drivers/STM32F0xx_HAL_Driver/Src/stm32f0xx_hal_rtc.c ****   
 883:Drivers/STM32F0xx_HAL_Driver/Src/stm32f0xx_hal_rtc.c ****   /* Process Unlocked */ 
 884:Drivers/STM32F0xx_HAL_Driver/Src/stm32f0xx_hal_rtc.c ****   __HAL_UNLOCK(hrtc);
 885:Drivers/STM32F0xx_HAL_Driver/Src/stm32f0xx_hal_rtc.c ****   
 886:Drivers/STM32F0xx_HAL_Driver/Src/stm32f0xx_hal_rtc.c ****   return HAL_OK;
 887:Drivers/STM32F0xx_HAL_Driver/Src/stm32f0xx_hal_rtc.c **** }
 888:Drivers/STM32F0xx_HAL_Driver/Src/stm32f0xx_hal_rtc.c **** 
 889:Drivers/STM32F0xx_HAL_Driver/Src/stm32f0xx_hal_rtc.c **** /**
 890:Drivers/STM32F0xx_HAL_Driver/Src/stm32f0xx_hal_rtc.c ****   * @brief  Set the specified RTC Alarm with Interrupt.
 891:Drivers/STM32F0xx_HAL_Driver/Src/stm32f0xx_hal_rtc.c ****   * @param  hrtc RTC handle
 892:Drivers/STM32F0xx_HAL_Driver/Src/stm32f0xx_hal_rtc.c ****   * @param  sAlarm Pointer to Alarm structure
 893:Drivers/STM32F0xx_HAL_Driver/Src/stm32f0xx_hal_rtc.c ****   * @param  Format Specifies the format of the entered parameters.
 894:Drivers/STM32F0xx_HAL_Driver/Src/stm32f0xx_hal_rtc.c ****   *          This parameter can be one of the following values:
 895:Drivers/STM32F0xx_HAL_Driver/Src/stm32f0xx_hal_rtc.c ****   *             @arg RTC_FORMAT_BIN: Binary data format 
 896:Drivers/STM32F0xx_HAL_Driver/Src/stm32f0xx_hal_rtc.c ****   *             @arg RTC_FORMAT_BCD: BCD data format
 897:Drivers/STM32F0xx_HAL_Driver/Src/stm32f0xx_hal_rtc.c ****   * @note   The Alarm register can only be written when the corresponding Alarm
 898:Drivers/STM32F0xx_HAL_Driver/Src/stm32f0xx_hal_rtc.c ****   *         is disabled (Use the HAL_RTC_DeactivateAlarm()).   
 899:Drivers/STM32F0xx_HAL_Driver/Src/stm32f0xx_hal_rtc.c ****   * @note   The HAL_RTC_SetTime() must be called before enabling the Alarm feature.   
 900:Drivers/STM32F0xx_HAL_Driver/Src/stm32f0xx_hal_rtc.c ****   * @retval HAL status
 901:Drivers/STM32F0xx_HAL_Driver/Src/stm32f0xx_hal_rtc.c ****   */
 902:Drivers/STM32F0xx_HAL_Driver/Src/stm32f0xx_hal_rtc.c **** HAL_StatusTypeDef HAL_RTC_SetAlarm_IT(RTC_HandleTypeDef *hrtc, RTC_AlarmTypeDef *sAlarm, uint32_t F
 903:Drivers/STM32F0xx_HAL_Driver/Src/stm32f0xx_hal_rtc.c **** {
 904:Drivers/STM32F0xx_HAL_Driver/Src/stm32f0xx_hal_rtc.c ****   uint32_t tickstart = 0U;
 905:Drivers/STM32F0xx_HAL_Driver/Src/stm32f0xx_hal_rtc.c ****   uint32_t tmpreg = 0U, subsecondtmpreg = 0U;
 906:Drivers/STM32F0xx_HAL_Driver/Src/stm32f0xx_hal_rtc.c ****   
 907:Drivers/STM32F0xx_HAL_Driver/Src/stm32f0xx_hal_rtc.c ****   /* Check the parameters */
 908:Drivers/STM32F0xx_HAL_Driver/Src/stm32f0xx_hal_rtc.c ****   assert_param(IS_RTC_FORMAT(Format));
 909:Drivers/STM32F0xx_HAL_Driver/Src/stm32f0xx_hal_rtc.c ****   assert_param(IS_RTC_ALARM(sAlarm->Alarm));
 910:Drivers/STM32F0xx_HAL_Driver/Src/stm32f0xx_hal_rtc.c ****   assert_param(IS_RTC_ALARM_MASK(sAlarm->AlarmMask));
 911:Drivers/STM32F0xx_HAL_Driver/Src/stm32f0xx_hal_rtc.c ****   assert_param(IS_RTC_ALARM_DATE_WEEKDAY_SEL(sAlarm->AlarmDateWeekDaySel));
 912:Drivers/STM32F0xx_HAL_Driver/Src/stm32f0xx_hal_rtc.c ****   assert_param(IS_RTC_ALARM_SUB_SECOND_VALUE(sAlarm->AlarmTime.SubSeconds));
 913:Drivers/STM32F0xx_HAL_Driver/Src/stm32f0xx_hal_rtc.c ****   assert_param(IS_RTC_ALARM_SUB_SECOND_MASK(sAlarm->AlarmSubSecondMask));
 914:Drivers/STM32F0xx_HAL_Driver/Src/stm32f0xx_hal_rtc.c ****       
 915:Drivers/STM32F0xx_HAL_Driver/Src/stm32f0xx_hal_rtc.c ****   /* Process Locked */ 
 916:Drivers/STM32F0xx_HAL_Driver/Src/stm32f0xx_hal_rtc.c ****   __HAL_LOCK(hrtc);
 917:Drivers/STM32F0xx_HAL_Driver/Src/stm32f0xx_hal_rtc.c ****   
 918:Drivers/STM32F0xx_HAL_Driver/Src/stm32f0xx_hal_rtc.c ****   hrtc->State = HAL_RTC_STATE_BUSY;
 919:Drivers/STM32F0xx_HAL_Driver/Src/stm32f0xx_hal_rtc.c ****   
 920:Drivers/STM32F0xx_HAL_Driver/Src/stm32f0xx_hal_rtc.c ****   if(Format == RTC_FORMAT_BIN)
 921:Drivers/STM32F0xx_HAL_Driver/Src/stm32f0xx_hal_rtc.c ****   {
ARM GAS  /var/folders/vr/85797ndx6jd_r3n_lsprlrj40000gn/T//ccWMqnSu.s 			page 20


 922:Drivers/STM32F0xx_HAL_Driver/Src/stm32f0xx_hal_rtc.c ****     if((hrtc->Instance->CR & RTC_CR_FMT) != (uint32_t)RESET)
 923:Drivers/STM32F0xx_HAL_Driver/Src/stm32f0xx_hal_rtc.c ****     {
 924:Drivers/STM32F0xx_HAL_Driver/Src/stm32f0xx_hal_rtc.c ****       assert_param(IS_RTC_HOUR12(sAlarm->AlarmTime.Hours));
 925:Drivers/STM32F0xx_HAL_Driver/Src/stm32f0xx_hal_rtc.c ****       assert_param(IS_RTC_HOURFORMAT12(sAlarm->AlarmTime.TimeFormat));
 926:Drivers/STM32F0xx_HAL_Driver/Src/stm32f0xx_hal_rtc.c ****     } 
 927:Drivers/STM32F0xx_HAL_Driver/Src/stm32f0xx_hal_rtc.c ****     else
 928:Drivers/STM32F0xx_HAL_Driver/Src/stm32f0xx_hal_rtc.c ****     {
 929:Drivers/STM32F0xx_HAL_Driver/Src/stm32f0xx_hal_rtc.c ****       sAlarm->AlarmTime.TimeFormat = 0x00U;
 930:Drivers/STM32F0xx_HAL_Driver/Src/stm32f0xx_hal_rtc.c ****       assert_param(IS_RTC_HOUR24(sAlarm->AlarmTime.Hours));
 931:Drivers/STM32F0xx_HAL_Driver/Src/stm32f0xx_hal_rtc.c ****     }
 932:Drivers/STM32F0xx_HAL_Driver/Src/stm32f0xx_hal_rtc.c ****     assert_param(IS_RTC_MINUTES(sAlarm->AlarmTime.Minutes));
 933:Drivers/STM32F0xx_HAL_Driver/Src/stm32f0xx_hal_rtc.c ****     assert_param(IS_RTC_SECONDS(sAlarm->AlarmTime.Seconds));
 934:Drivers/STM32F0xx_HAL_Driver/Src/stm32f0xx_hal_rtc.c ****     
 935:Drivers/STM32F0xx_HAL_Driver/Src/stm32f0xx_hal_rtc.c ****     if(sAlarm->AlarmDateWeekDaySel == RTC_ALARMDATEWEEKDAYSEL_DATE)
 936:Drivers/STM32F0xx_HAL_Driver/Src/stm32f0xx_hal_rtc.c ****     {
 937:Drivers/STM32F0xx_HAL_Driver/Src/stm32f0xx_hal_rtc.c ****       assert_param(IS_RTC_ALARM_DATE_WEEKDAY_DATE(sAlarm->AlarmDateWeekDay));
 938:Drivers/STM32F0xx_HAL_Driver/Src/stm32f0xx_hal_rtc.c ****     }
 939:Drivers/STM32F0xx_HAL_Driver/Src/stm32f0xx_hal_rtc.c ****     else
 940:Drivers/STM32F0xx_HAL_Driver/Src/stm32f0xx_hal_rtc.c ****     {
 941:Drivers/STM32F0xx_HAL_Driver/Src/stm32f0xx_hal_rtc.c ****       assert_param(IS_RTC_ALARM_DATE_WEEKDAY_WEEKDAY(sAlarm->AlarmDateWeekDay));
 942:Drivers/STM32F0xx_HAL_Driver/Src/stm32f0xx_hal_rtc.c ****     }
 943:Drivers/STM32F0xx_HAL_Driver/Src/stm32f0xx_hal_rtc.c ****     tmpreg = (((uint32_t)RTC_ByteToBcd2(sAlarm->AlarmTime.Hours) << 16U) | \
 944:Drivers/STM32F0xx_HAL_Driver/Src/stm32f0xx_hal_rtc.c ****               ((uint32_t)RTC_ByteToBcd2(sAlarm->AlarmTime.Minutes) << 8U) | \
 945:Drivers/STM32F0xx_HAL_Driver/Src/stm32f0xx_hal_rtc.c ****               ((uint32_t)RTC_ByteToBcd2(sAlarm->AlarmTime.Seconds)) | \
 946:Drivers/STM32F0xx_HAL_Driver/Src/stm32f0xx_hal_rtc.c ****               ((uint32_t)(sAlarm->AlarmTime.TimeFormat) << 16U) | \
 947:Drivers/STM32F0xx_HAL_Driver/Src/stm32f0xx_hal_rtc.c ****               ((uint32_t)RTC_ByteToBcd2(sAlarm->AlarmDateWeekDay) << 24U) | \
 948:Drivers/STM32F0xx_HAL_Driver/Src/stm32f0xx_hal_rtc.c ****               ((uint32_t)sAlarm->AlarmDateWeekDaySel) | \
 949:Drivers/STM32F0xx_HAL_Driver/Src/stm32f0xx_hal_rtc.c ****               ((uint32_t)sAlarm->AlarmMask)); 
 950:Drivers/STM32F0xx_HAL_Driver/Src/stm32f0xx_hal_rtc.c ****   }
 951:Drivers/STM32F0xx_HAL_Driver/Src/stm32f0xx_hal_rtc.c ****   else
 952:Drivers/STM32F0xx_HAL_Driver/Src/stm32f0xx_hal_rtc.c ****   {
 953:Drivers/STM32F0xx_HAL_Driver/Src/stm32f0xx_hal_rtc.c ****     if((hrtc->Instance->CR & RTC_CR_FMT) != (uint32_t)RESET)
 954:Drivers/STM32F0xx_HAL_Driver/Src/stm32f0xx_hal_rtc.c ****     {
 955:Drivers/STM32F0xx_HAL_Driver/Src/stm32f0xx_hal_rtc.c ****       tmpreg = RTC_Bcd2ToByte(sAlarm->AlarmTime.Hours);
 956:Drivers/STM32F0xx_HAL_Driver/Src/stm32f0xx_hal_rtc.c ****       assert_param(IS_RTC_HOUR12(tmpreg));
 957:Drivers/STM32F0xx_HAL_Driver/Src/stm32f0xx_hal_rtc.c ****       assert_param(IS_RTC_HOURFORMAT12(sAlarm->AlarmTime.TimeFormat));
 958:Drivers/STM32F0xx_HAL_Driver/Src/stm32f0xx_hal_rtc.c ****     } 
 959:Drivers/STM32F0xx_HAL_Driver/Src/stm32f0xx_hal_rtc.c ****     else
 960:Drivers/STM32F0xx_HAL_Driver/Src/stm32f0xx_hal_rtc.c ****     {
 961:Drivers/STM32F0xx_HAL_Driver/Src/stm32f0xx_hal_rtc.c ****       sAlarm->AlarmTime.TimeFormat = 0x00U;
 962:Drivers/STM32F0xx_HAL_Driver/Src/stm32f0xx_hal_rtc.c ****       assert_param(IS_RTC_HOUR24(RTC_Bcd2ToByte(sAlarm->AlarmTime.Hours)));
 963:Drivers/STM32F0xx_HAL_Driver/Src/stm32f0xx_hal_rtc.c ****     }
 964:Drivers/STM32F0xx_HAL_Driver/Src/stm32f0xx_hal_rtc.c ****     
 965:Drivers/STM32F0xx_HAL_Driver/Src/stm32f0xx_hal_rtc.c ****     assert_param(IS_RTC_MINUTES(RTC_Bcd2ToByte(sAlarm->AlarmTime.Minutes)));
 966:Drivers/STM32F0xx_HAL_Driver/Src/stm32f0xx_hal_rtc.c ****     assert_param(IS_RTC_SECONDS(RTC_Bcd2ToByte(sAlarm->AlarmTime.Seconds)));
 967:Drivers/STM32F0xx_HAL_Driver/Src/stm32f0xx_hal_rtc.c ****     
 968:Drivers/STM32F0xx_HAL_Driver/Src/stm32f0xx_hal_rtc.c ****     if(sAlarm->AlarmDateWeekDaySel == RTC_ALARMDATEWEEKDAYSEL_DATE)
 969:Drivers/STM32F0xx_HAL_Driver/Src/stm32f0xx_hal_rtc.c ****     {
 970:Drivers/STM32F0xx_HAL_Driver/Src/stm32f0xx_hal_rtc.c ****       tmpreg = RTC_Bcd2ToByte(sAlarm->AlarmDateWeekDay);
 971:Drivers/STM32F0xx_HAL_Driver/Src/stm32f0xx_hal_rtc.c ****       assert_param(IS_RTC_ALARM_DATE_WEEKDAY_DATE(tmpreg));    
 972:Drivers/STM32F0xx_HAL_Driver/Src/stm32f0xx_hal_rtc.c ****     }
 973:Drivers/STM32F0xx_HAL_Driver/Src/stm32f0xx_hal_rtc.c ****     else
 974:Drivers/STM32F0xx_HAL_Driver/Src/stm32f0xx_hal_rtc.c ****     {
 975:Drivers/STM32F0xx_HAL_Driver/Src/stm32f0xx_hal_rtc.c ****       tmpreg = RTC_Bcd2ToByte(sAlarm->AlarmDateWeekDay);
 976:Drivers/STM32F0xx_HAL_Driver/Src/stm32f0xx_hal_rtc.c ****       assert_param(IS_RTC_ALARM_DATE_WEEKDAY_WEEKDAY(tmpreg));      
 977:Drivers/STM32F0xx_HAL_Driver/Src/stm32f0xx_hal_rtc.c ****     }
 978:Drivers/STM32F0xx_HAL_Driver/Src/stm32f0xx_hal_rtc.c ****     tmpreg = (((uint32_t)(sAlarm->AlarmTime.Hours) << 16U) | \
ARM GAS  /var/folders/vr/85797ndx6jd_r3n_lsprlrj40000gn/T//ccWMqnSu.s 			page 21


 979:Drivers/STM32F0xx_HAL_Driver/Src/stm32f0xx_hal_rtc.c ****               ((uint32_t)(sAlarm->AlarmTime.Minutes) << 8U) | \
 980:Drivers/STM32F0xx_HAL_Driver/Src/stm32f0xx_hal_rtc.c ****               ((uint32_t) sAlarm->AlarmTime.Seconds) | \
 981:Drivers/STM32F0xx_HAL_Driver/Src/stm32f0xx_hal_rtc.c ****               ((uint32_t)(sAlarm->AlarmTime.TimeFormat) << 16U) | \
 982:Drivers/STM32F0xx_HAL_Driver/Src/stm32f0xx_hal_rtc.c ****               ((uint32_t)(sAlarm->AlarmDateWeekDay) << 24U) | \
 983:Drivers/STM32F0xx_HAL_Driver/Src/stm32f0xx_hal_rtc.c ****               ((uint32_t)sAlarm->AlarmDateWeekDaySel) | \
 984:Drivers/STM32F0xx_HAL_Driver/Src/stm32f0xx_hal_rtc.c ****               ((uint32_t)sAlarm->AlarmMask));     
 985:Drivers/STM32F0xx_HAL_Driver/Src/stm32f0xx_hal_rtc.c ****   }
 986:Drivers/STM32F0xx_HAL_Driver/Src/stm32f0xx_hal_rtc.c ****   /* Configure the Alarm A Sub Second registers */
 987:Drivers/STM32F0xx_HAL_Driver/Src/stm32f0xx_hal_rtc.c ****   subsecondtmpreg = (uint32_t)((uint32_t)(sAlarm->AlarmTime.SubSeconds) | (uint32_t)(sAlarm->AlarmS
 988:Drivers/STM32F0xx_HAL_Driver/Src/stm32f0xx_hal_rtc.c ****   
 989:Drivers/STM32F0xx_HAL_Driver/Src/stm32f0xx_hal_rtc.c ****   /* Disable the write protection for RTC registers */
 990:Drivers/STM32F0xx_HAL_Driver/Src/stm32f0xx_hal_rtc.c ****   __HAL_RTC_WRITEPROTECTION_DISABLE(hrtc);
 991:Drivers/STM32F0xx_HAL_Driver/Src/stm32f0xx_hal_rtc.c ****   
 992:Drivers/STM32F0xx_HAL_Driver/Src/stm32f0xx_hal_rtc.c ****   /* Disable the Alarm A interrupt */
 993:Drivers/STM32F0xx_HAL_Driver/Src/stm32f0xx_hal_rtc.c ****   __HAL_RTC_ALARMA_DISABLE(hrtc);
 994:Drivers/STM32F0xx_HAL_Driver/Src/stm32f0xx_hal_rtc.c **** 
 995:Drivers/STM32F0xx_HAL_Driver/Src/stm32f0xx_hal_rtc.c ****   /* Clear flag alarm A */
 996:Drivers/STM32F0xx_HAL_Driver/Src/stm32f0xx_hal_rtc.c ****   __HAL_RTC_ALARM_CLEAR_FLAG(hrtc, RTC_FLAG_ALRAF);
 997:Drivers/STM32F0xx_HAL_Driver/Src/stm32f0xx_hal_rtc.c **** 
 998:Drivers/STM32F0xx_HAL_Driver/Src/stm32f0xx_hal_rtc.c ****   tickstart = HAL_GetTick();
 999:Drivers/STM32F0xx_HAL_Driver/Src/stm32f0xx_hal_rtc.c ****   
1000:Drivers/STM32F0xx_HAL_Driver/Src/stm32f0xx_hal_rtc.c ****   /* Wait till RTC ALRAWF flag is set and if Time out is reached exit */
1001:Drivers/STM32F0xx_HAL_Driver/Src/stm32f0xx_hal_rtc.c ****   while(__HAL_RTC_ALARM_GET_FLAG(hrtc, RTC_FLAG_ALRAWF) == RESET)
1002:Drivers/STM32F0xx_HAL_Driver/Src/stm32f0xx_hal_rtc.c ****   {
1003:Drivers/STM32F0xx_HAL_Driver/Src/stm32f0xx_hal_rtc.c ****     if((HAL_GetTick()-tickstart) > RTC_TIMEOUT_VALUE)
1004:Drivers/STM32F0xx_HAL_Driver/Src/stm32f0xx_hal_rtc.c ****     {
1005:Drivers/STM32F0xx_HAL_Driver/Src/stm32f0xx_hal_rtc.c ****       /* Enable the write protection for RTC registers */
1006:Drivers/STM32F0xx_HAL_Driver/Src/stm32f0xx_hal_rtc.c ****       __HAL_RTC_WRITEPROTECTION_ENABLE(hrtc);
1007:Drivers/STM32F0xx_HAL_Driver/Src/stm32f0xx_hal_rtc.c ****         
1008:Drivers/STM32F0xx_HAL_Driver/Src/stm32f0xx_hal_rtc.c ****       hrtc->State = HAL_RTC_STATE_TIMEOUT; 
1009:Drivers/STM32F0xx_HAL_Driver/Src/stm32f0xx_hal_rtc.c ****         
1010:Drivers/STM32F0xx_HAL_Driver/Src/stm32f0xx_hal_rtc.c ****       /* Process Unlocked */ 
1011:Drivers/STM32F0xx_HAL_Driver/Src/stm32f0xx_hal_rtc.c ****       __HAL_UNLOCK(hrtc);
1012:Drivers/STM32F0xx_HAL_Driver/Src/stm32f0xx_hal_rtc.c ****         
1013:Drivers/STM32F0xx_HAL_Driver/Src/stm32f0xx_hal_rtc.c ****       return HAL_TIMEOUT;
1014:Drivers/STM32F0xx_HAL_Driver/Src/stm32f0xx_hal_rtc.c ****     }  
1015:Drivers/STM32F0xx_HAL_Driver/Src/stm32f0xx_hal_rtc.c ****   }
1016:Drivers/STM32F0xx_HAL_Driver/Src/stm32f0xx_hal_rtc.c ****     
1017:Drivers/STM32F0xx_HAL_Driver/Src/stm32f0xx_hal_rtc.c ****   hrtc->Instance->ALRMAR = (uint32_t)tmpreg;
1018:Drivers/STM32F0xx_HAL_Driver/Src/stm32f0xx_hal_rtc.c ****   /* Configure the Alarm A Sub Second register */
1019:Drivers/STM32F0xx_HAL_Driver/Src/stm32f0xx_hal_rtc.c ****   hrtc->Instance->ALRMASSR = subsecondtmpreg;
1020:Drivers/STM32F0xx_HAL_Driver/Src/stm32f0xx_hal_rtc.c ****   /* Configure the Alarm state: Enable Alarm */
1021:Drivers/STM32F0xx_HAL_Driver/Src/stm32f0xx_hal_rtc.c ****   __HAL_RTC_ALARMA_ENABLE(hrtc);
1022:Drivers/STM32F0xx_HAL_Driver/Src/stm32f0xx_hal_rtc.c ****   /* Configure the Alarm interrupt */
1023:Drivers/STM32F0xx_HAL_Driver/Src/stm32f0xx_hal_rtc.c ****   __HAL_RTC_ALARM_ENABLE_IT(hrtc,RTC_IT_ALRA);
1024:Drivers/STM32F0xx_HAL_Driver/Src/stm32f0xx_hal_rtc.c **** 
1025:Drivers/STM32F0xx_HAL_Driver/Src/stm32f0xx_hal_rtc.c ****   /* RTC Alarm Interrupt Configuration: EXTI configuration */
1026:Drivers/STM32F0xx_HAL_Driver/Src/stm32f0xx_hal_rtc.c ****   __HAL_RTC_ALARM_EXTI_ENABLE_IT();
1027:Drivers/STM32F0xx_HAL_Driver/Src/stm32f0xx_hal_rtc.c ****   
1028:Drivers/STM32F0xx_HAL_Driver/Src/stm32f0xx_hal_rtc.c ****   __HAL_RTC_ALARM_EXTI_ENABLE_RISING_EDGE();
1029:Drivers/STM32F0xx_HAL_Driver/Src/stm32f0xx_hal_rtc.c ****   
1030:Drivers/STM32F0xx_HAL_Driver/Src/stm32f0xx_hal_rtc.c ****   /* Enable the write protection for RTC registers */
1031:Drivers/STM32F0xx_HAL_Driver/Src/stm32f0xx_hal_rtc.c ****   __HAL_RTC_WRITEPROTECTION_ENABLE(hrtc);  
1032:Drivers/STM32F0xx_HAL_Driver/Src/stm32f0xx_hal_rtc.c ****   
1033:Drivers/STM32F0xx_HAL_Driver/Src/stm32f0xx_hal_rtc.c ****   hrtc->State = HAL_RTC_STATE_READY; 
1034:Drivers/STM32F0xx_HAL_Driver/Src/stm32f0xx_hal_rtc.c ****   
1035:Drivers/STM32F0xx_HAL_Driver/Src/stm32f0xx_hal_rtc.c ****   /* Process Unlocked */ 
ARM GAS  /var/folders/vr/85797ndx6jd_r3n_lsprlrj40000gn/T//ccWMqnSu.s 			page 22


1036:Drivers/STM32F0xx_HAL_Driver/Src/stm32f0xx_hal_rtc.c ****   __HAL_UNLOCK(hrtc);  
1037:Drivers/STM32F0xx_HAL_Driver/Src/stm32f0xx_hal_rtc.c ****   
1038:Drivers/STM32F0xx_HAL_Driver/Src/stm32f0xx_hal_rtc.c ****   return HAL_OK;
1039:Drivers/STM32F0xx_HAL_Driver/Src/stm32f0xx_hal_rtc.c **** }
1040:Drivers/STM32F0xx_HAL_Driver/Src/stm32f0xx_hal_rtc.c **** 
1041:Drivers/STM32F0xx_HAL_Driver/Src/stm32f0xx_hal_rtc.c **** /**
1042:Drivers/STM32F0xx_HAL_Driver/Src/stm32f0xx_hal_rtc.c ****   * @brief  Deactivate the specified RTC Alarm.
1043:Drivers/STM32F0xx_HAL_Driver/Src/stm32f0xx_hal_rtc.c ****   * @param  hrtc RTC handle
1044:Drivers/STM32F0xx_HAL_Driver/Src/stm32f0xx_hal_rtc.c ****   * @param  Alarm Specifies the Alarm.
1045:Drivers/STM32F0xx_HAL_Driver/Src/stm32f0xx_hal_rtc.c ****   *          This parameter can be one of the following values:
1046:Drivers/STM32F0xx_HAL_Driver/Src/stm32f0xx_hal_rtc.c ****   *            @arg RTC_ALARM_A:  AlarmA
1047:Drivers/STM32F0xx_HAL_Driver/Src/stm32f0xx_hal_rtc.c ****   * @retval HAL status
1048:Drivers/STM32F0xx_HAL_Driver/Src/stm32f0xx_hal_rtc.c ****   */
1049:Drivers/STM32F0xx_HAL_Driver/Src/stm32f0xx_hal_rtc.c **** HAL_StatusTypeDef HAL_RTC_DeactivateAlarm(RTC_HandleTypeDef *hrtc, uint32_t Alarm)
1050:Drivers/STM32F0xx_HAL_Driver/Src/stm32f0xx_hal_rtc.c **** {
1051:Drivers/STM32F0xx_HAL_Driver/Src/stm32f0xx_hal_rtc.c ****   uint32_t tickstart = 0U;
1052:Drivers/STM32F0xx_HAL_Driver/Src/stm32f0xx_hal_rtc.c ****   
1053:Drivers/STM32F0xx_HAL_Driver/Src/stm32f0xx_hal_rtc.c ****   /* Check the parameters */
1054:Drivers/STM32F0xx_HAL_Driver/Src/stm32f0xx_hal_rtc.c ****   assert_param(IS_RTC_ALARM(Alarm));
1055:Drivers/STM32F0xx_HAL_Driver/Src/stm32f0xx_hal_rtc.c ****   
1056:Drivers/STM32F0xx_HAL_Driver/Src/stm32f0xx_hal_rtc.c ****   /* Process Locked */ 
1057:Drivers/STM32F0xx_HAL_Driver/Src/stm32f0xx_hal_rtc.c ****   __HAL_LOCK(hrtc);
1058:Drivers/STM32F0xx_HAL_Driver/Src/stm32f0xx_hal_rtc.c ****   
1059:Drivers/STM32F0xx_HAL_Driver/Src/stm32f0xx_hal_rtc.c ****   hrtc->State = HAL_RTC_STATE_BUSY;
1060:Drivers/STM32F0xx_HAL_Driver/Src/stm32f0xx_hal_rtc.c ****   
1061:Drivers/STM32F0xx_HAL_Driver/Src/stm32f0xx_hal_rtc.c ****   /* Disable the write protection for RTC registers */
1062:Drivers/STM32F0xx_HAL_Driver/Src/stm32f0xx_hal_rtc.c ****   __HAL_RTC_WRITEPROTECTION_DISABLE(hrtc);
1063:Drivers/STM32F0xx_HAL_Driver/Src/stm32f0xx_hal_rtc.c ****   
1064:Drivers/STM32F0xx_HAL_Driver/Src/stm32f0xx_hal_rtc.c ****   __HAL_RTC_ALARMA_DISABLE(hrtc);
1065:Drivers/STM32F0xx_HAL_Driver/Src/stm32f0xx_hal_rtc.c ****     
1066:Drivers/STM32F0xx_HAL_Driver/Src/stm32f0xx_hal_rtc.c ****   /* In case of interrupt mode is used, the interrupt source must disabled */ 
1067:Drivers/STM32F0xx_HAL_Driver/Src/stm32f0xx_hal_rtc.c ****   __HAL_RTC_ALARM_DISABLE_IT(hrtc, RTC_IT_ALRA);
1068:Drivers/STM32F0xx_HAL_Driver/Src/stm32f0xx_hal_rtc.c ****     
1069:Drivers/STM32F0xx_HAL_Driver/Src/stm32f0xx_hal_rtc.c ****   tickstart = HAL_GetTick();
1070:Drivers/STM32F0xx_HAL_Driver/Src/stm32f0xx_hal_rtc.c ****     
1071:Drivers/STM32F0xx_HAL_Driver/Src/stm32f0xx_hal_rtc.c ****   /* Wait till RTC ALRxWF flag is set and if Time out is reached exit */
1072:Drivers/STM32F0xx_HAL_Driver/Src/stm32f0xx_hal_rtc.c ****   while(__HAL_RTC_ALARM_GET_FLAG(hrtc, RTC_FLAG_ALRAWF) == RESET)
1073:Drivers/STM32F0xx_HAL_Driver/Src/stm32f0xx_hal_rtc.c ****   {
1074:Drivers/STM32F0xx_HAL_Driver/Src/stm32f0xx_hal_rtc.c ****     if((HAL_GetTick()-tickstart) > RTC_TIMEOUT_VALUE)
1075:Drivers/STM32F0xx_HAL_Driver/Src/stm32f0xx_hal_rtc.c ****     { 
1076:Drivers/STM32F0xx_HAL_Driver/Src/stm32f0xx_hal_rtc.c ****       /* Enable the write protection for RTC registers */
1077:Drivers/STM32F0xx_HAL_Driver/Src/stm32f0xx_hal_rtc.c ****       __HAL_RTC_WRITEPROTECTION_ENABLE(hrtc);
1078:Drivers/STM32F0xx_HAL_Driver/Src/stm32f0xx_hal_rtc.c ****         
1079:Drivers/STM32F0xx_HAL_Driver/Src/stm32f0xx_hal_rtc.c ****       hrtc->State = HAL_RTC_STATE_TIMEOUT; 
1080:Drivers/STM32F0xx_HAL_Driver/Src/stm32f0xx_hal_rtc.c ****         
1081:Drivers/STM32F0xx_HAL_Driver/Src/stm32f0xx_hal_rtc.c ****       /* Process Unlocked */ 
1082:Drivers/STM32F0xx_HAL_Driver/Src/stm32f0xx_hal_rtc.c ****       __HAL_UNLOCK(hrtc);
1083:Drivers/STM32F0xx_HAL_Driver/Src/stm32f0xx_hal_rtc.c ****         
1084:Drivers/STM32F0xx_HAL_Driver/Src/stm32f0xx_hal_rtc.c ****       return HAL_TIMEOUT;
1085:Drivers/STM32F0xx_HAL_Driver/Src/stm32f0xx_hal_rtc.c ****     }      
1086:Drivers/STM32F0xx_HAL_Driver/Src/stm32f0xx_hal_rtc.c ****   }
1087:Drivers/STM32F0xx_HAL_Driver/Src/stm32f0xx_hal_rtc.c ****   /* Enable the write protection for RTC registers */
1088:Drivers/STM32F0xx_HAL_Driver/Src/stm32f0xx_hal_rtc.c ****   __HAL_RTC_WRITEPROTECTION_ENABLE(hrtc);
1089:Drivers/STM32F0xx_HAL_Driver/Src/stm32f0xx_hal_rtc.c ****   
1090:Drivers/STM32F0xx_HAL_Driver/Src/stm32f0xx_hal_rtc.c ****   hrtc->State = HAL_RTC_STATE_READY; 
1091:Drivers/STM32F0xx_HAL_Driver/Src/stm32f0xx_hal_rtc.c ****   
1092:Drivers/STM32F0xx_HAL_Driver/Src/stm32f0xx_hal_rtc.c ****   /* Process Unlocked */ 
ARM GAS  /var/folders/vr/85797ndx6jd_r3n_lsprlrj40000gn/T//ccWMqnSu.s 			page 23


1093:Drivers/STM32F0xx_HAL_Driver/Src/stm32f0xx_hal_rtc.c ****   __HAL_UNLOCK(hrtc);  
1094:Drivers/STM32F0xx_HAL_Driver/Src/stm32f0xx_hal_rtc.c ****   
1095:Drivers/STM32F0xx_HAL_Driver/Src/stm32f0xx_hal_rtc.c ****   return HAL_OK; 
1096:Drivers/STM32F0xx_HAL_Driver/Src/stm32f0xx_hal_rtc.c **** }
1097:Drivers/STM32F0xx_HAL_Driver/Src/stm32f0xx_hal_rtc.c ****            
1098:Drivers/STM32F0xx_HAL_Driver/Src/stm32f0xx_hal_rtc.c **** /**
1099:Drivers/STM32F0xx_HAL_Driver/Src/stm32f0xx_hal_rtc.c ****   * @brief  Get the RTC Alarm value and masks.
1100:Drivers/STM32F0xx_HAL_Driver/Src/stm32f0xx_hal_rtc.c ****   * @param  hrtc RTC handle
1101:Drivers/STM32F0xx_HAL_Driver/Src/stm32f0xx_hal_rtc.c ****   * @param  sAlarm Pointer to Date structure
1102:Drivers/STM32F0xx_HAL_Driver/Src/stm32f0xx_hal_rtc.c ****   * @param  Alarm Specifies the Alarm.
1103:Drivers/STM32F0xx_HAL_Driver/Src/stm32f0xx_hal_rtc.c ****   *          This parameter can be one of the following values:
1104:Drivers/STM32F0xx_HAL_Driver/Src/stm32f0xx_hal_rtc.c ****   *             @arg RTC_ALARM_A: AlarmA
1105:Drivers/STM32F0xx_HAL_Driver/Src/stm32f0xx_hal_rtc.c ****   * @param  Format Specifies the format of the entered parameters.
1106:Drivers/STM32F0xx_HAL_Driver/Src/stm32f0xx_hal_rtc.c ****   *          This parameter can be one of the following values:
1107:Drivers/STM32F0xx_HAL_Driver/Src/stm32f0xx_hal_rtc.c ****   *             @arg RTC_FORMAT_BIN: Binary data format 
1108:Drivers/STM32F0xx_HAL_Driver/Src/stm32f0xx_hal_rtc.c ****   *             @arg RTC_FORMAT_BCD: BCD data format
1109:Drivers/STM32F0xx_HAL_Driver/Src/stm32f0xx_hal_rtc.c ****   * @retval HAL status
1110:Drivers/STM32F0xx_HAL_Driver/Src/stm32f0xx_hal_rtc.c ****   */
1111:Drivers/STM32F0xx_HAL_Driver/Src/stm32f0xx_hal_rtc.c **** HAL_StatusTypeDef HAL_RTC_GetAlarm(RTC_HandleTypeDef *hrtc, RTC_AlarmTypeDef *sAlarm, uint32_t Alar
1112:Drivers/STM32F0xx_HAL_Driver/Src/stm32f0xx_hal_rtc.c **** {
1113:Drivers/STM32F0xx_HAL_Driver/Src/stm32f0xx_hal_rtc.c ****   uint32_t tmpreg = 0U, subsecondtmpreg = 0U;
1114:Drivers/STM32F0xx_HAL_Driver/Src/stm32f0xx_hal_rtc.c ****   
1115:Drivers/STM32F0xx_HAL_Driver/Src/stm32f0xx_hal_rtc.c ****   /* Check the parameters */
1116:Drivers/STM32F0xx_HAL_Driver/Src/stm32f0xx_hal_rtc.c ****   assert_param(IS_RTC_FORMAT(Format));
1117:Drivers/STM32F0xx_HAL_Driver/Src/stm32f0xx_hal_rtc.c ****   assert_param(IS_RTC_ALARM(Alarm));
1118:Drivers/STM32F0xx_HAL_Driver/Src/stm32f0xx_hal_rtc.c ****   
1119:Drivers/STM32F0xx_HAL_Driver/Src/stm32f0xx_hal_rtc.c ****   sAlarm->Alarm = RTC_ALARM_A;
1120:Drivers/STM32F0xx_HAL_Driver/Src/stm32f0xx_hal_rtc.c ****     
1121:Drivers/STM32F0xx_HAL_Driver/Src/stm32f0xx_hal_rtc.c ****   tmpreg = (uint32_t)(hrtc->Instance->ALRMAR);
1122:Drivers/STM32F0xx_HAL_Driver/Src/stm32f0xx_hal_rtc.c ****   subsecondtmpreg = (uint32_t)((hrtc->Instance->ALRMASSR ) & RTC_ALRMASSR_SS);
1123:Drivers/STM32F0xx_HAL_Driver/Src/stm32f0xx_hal_rtc.c ****     
1124:Drivers/STM32F0xx_HAL_Driver/Src/stm32f0xx_hal_rtc.c ****   /* Fill the structure with the read parameters */
1125:Drivers/STM32F0xx_HAL_Driver/Src/stm32f0xx_hal_rtc.c ****   sAlarm->AlarmTime.Hours = (uint32_t)((tmpreg & (RTC_ALRMAR_HT | RTC_ALRMAR_HU)) >> 16U);
1126:Drivers/STM32F0xx_HAL_Driver/Src/stm32f0xx_hal_rtc.c ****   sAlarm->AlarmTime.Minutes = (uint32_t)((tmpreg & (RTC_ALRMAR_MNT | RTC_ALRMAR_MNU)) >> 8U);
1127:Drivers/STM32F0xx_HAL_Driver/Src/stm32f0xx_hal_rtc.c ****   sAlarm->AlarmTime.Seconds = (uint32_t)(tmpreg & (RTC_ALRMAR_ST | RTC_ALRMAR_SU));
1128:Drivers/STM32F0xx_HAL_Driver/Src/stm32f0xx_hal_rtc.c ****   sAlarm->AlarmTime.TimeFormat = (uint32_t)((tmpreg & RTC_ALRMAR_PM) >> 16U);
1129:Drivers/STM32F0xx_HAL_Driver/Src/stm32f0xx_hal_rtc.c ****   sAlarm->AlarmTime.SubSeconds = (uint32_t) subsecondtmpreg;
1130:Drivers/STM32F0xx_HAL_Driver/Src/stm32f0xx_hal_rtc.c ****   sAlarm->AlarmDateWeekDay = (uint32_t)((tmpreg & (RTC_ALRMAR_DT | RTC_ALRMAR_DU)) >> 24U);
1131:Drivers/STM32F0xx_HAL_Driver/Src/stm32f0xx_hal_rtc.c ****   sAlarm->AlarmDateWeekDaySel = (uint32_t)(tmpreg & RTC_ALRMAR_WDSEL);
1132:Drivers/STM32F0xx_HAL_Driver/Src/stm32f0xx_hal_rtc.c ****   sAlarm->AlarmMask = (uint32_t)(tmpreg & RTC_ALARMMASK_ALL);
1133:Drivers/STM32F0xx_HAL_Driver/Src/stm32f0xx_hal_rtc.c ****     
1134:Drivers/STM32F0xx_HAL_Driver/Src/stm32f0xx_hal_rtc.c ****   if(Format == RTC_FORMAT_BIN)
1135:Drivers/STM32F0xx_HAL_Driver/Src/stm32f0xx_hal_rtc.c ****   {
1136:Drivers/STM32F0xx_HAL_Driver/Src/stm32f0xx_hal_rtc.c ****     sAlarm->AlarmTime.Hours = RTC_Bcd2ToByte(sAlarm->AlarmTime.Hours);
1137:Drivers/STM32F0xx_HAL_Driver/Src/stm32f0xx_hal_rtc.c ****     sAlarm->AlarmTime.Minutes = RTC_Bcd2ToByte(sAlarm->AlarmTime.Minutes);
1138:Drivers/STM32F0xx_HAL_Driver/Src/stm32f0xx_hal_rtc.c ****     sAlarm->AlarmTime.Seconds = RTC_Bcd2ToByte(sAlarm->AlarmTime.Seconds);
1139:Drivers/STM32F0xx_HAL_Driver/Src/stm32f0xx_hal_rtc.c ****     sAlarm->AlarmDateWeekDay = RTC_Bcd2ToByte(sAlarm->AlarmDateWeekDay);
1140:Drivers/STM32F0xx_HAL_Driver/Src/stm32f0xx_hal_rtc.c ****   }  
1141:Drivers/STM32F0xx_HAL_Driver/Src/stm32f0xx_hal_rtc.c ****     
1142:Drivers/STM32F0xx_HAL_Driver/Src/stm32f0xx_hal_rtc.c ****   return HAL_OK;
1143:Drivers/STM32F0xx_HAL_Driver/Src/stm32f0xx_hal_rtc.c **** }
1144:Drivers/STM32F0xx_HAL_Driver/Src/stm32f0xx_hal_rtc.c **** 
1145:Drivers/STM32F0xx_HAL_Driver/Src/stm32f0xx_hal_rtc.c **** /**
1146:Drivers/STM32F0xx_HAL_Driver/Src/stm32f0xx_hal_rtc.c ****   * @brief  Handle Alarm interrupt request.
1147:Drivers/STM32F0xx_HAL_Driver/Src/stm32f0xx_hal_rtc.c ****   * @param  hrtc RTC handle
1148:Drivers/STM32F0xx_HAL_Driver/Src/stm32f0xx_hal_rtc.c ****   * @retval None
1149:Drivers/STM32F0xx_HAL_Driver/Src/stm32f0xx_hal_rtc.c ****   */
ARM GAS  /var/folders/vr/85797ndx6jd_r3n_lsprlrj40000gn/T//ccWMqnSu.s 			page 24


1150:Drivers/STM32F0xx_HAL_Driver/Src/stm32f0xx_hal_rtc.c **** void HAL_RTC_AlarmIRQHandler(RTC_HandleTypeDef* hrtc)
1151:Drivers/STM32F0xx_HAL_Driver/Src/stm32f0xx_hal_rtc.c **** {  
1152:Drivers/STM32F0xx_HAL_Driver/Src/stm32f0xx_hal_rtc.c ****   /* Get the AlarmA interrupt source enable status */
1153:Drivers/STM32F0xx_HAL_Driver/Src/stm32f0xx_hal_rtc.c ****   if(__HAL_RTC_ALARM_GET_IT_SOURCE(hrtc, RTC_IT_ALRA) != RESET)
1154:Drivers/STM32F0xx_HAL_Driver/Src/stm32f0xx_hal_rtc.c ****   {
1155:Drivers/STM32F0xx_HAL_Driver/Src/stm32f0xx_hal_rtc.c ****     /* Get the pending status of the AlarmA Interrupt */
1156:Drivers/STM32F0xx_HAL_Driver/Src/stm32f0xx_hal_rtc.c ****     if(__HAL_RTC_ALARM_GET_FLAG(hrtc, RTC_FLAG_ALRAF) != RESET)
1157:Drivers/STM32F0xx_HAL_Driver/Src/stm32f0xx_hal_rtc.c ****     {
1158:Drivers/STM32F0xx_HAL_Driver/Src/stm32f0xx_hal_rtc.c ****       /* AlarmA callback */
1159:Drivers/STM32F0xx_HAL_Driver/Src/stm32f0xx_hal_rtc.c ****       HAL_RTC_AlarmAEventCallback(hrtc);
1160:Drivers/STM32F0xx_HAL_Driver/Src/stm32f0xx_hal_rtc.c **** 
1161:Drivers/STM32F0xx_HAL_Driver/Src/stm32f0xx_hal_rtc.c ****       /* Clear the AlarmA interrupt pending bit */
1162:Drivers/STM32F0xx_HAL_Driver/Src/stm32f0xx_hal_rtc.c ****       __HAL_RTC_ALARM_CLEAR_FLAG(hrtc, RTC_FLAG_ALRAF);
1163:Drivers/STM32F0xx_HAL_Driver/Src/stm32f0xx_hal_rtc.c ****     }
1164:Drivers/STM32F0xx_HAL_Driver/Src/stm32f0xx_hal_rtc.c ****   }
1165:Drivers/STM32F0xx_HAL_Driver/Src/stm32f0xx_hal_rtc.c ****   
1166:Drivers/STM32F0xx_HAL_Driver/Src/stm32f0xx_hal_rtc.c ****   /* Clear the EXTI's line Flag for RTC Alarm */
1167:Drivers/STM32F0xx_HAL_Driver/Src/stm32f0xx_hal_rtc.c ****   __HAL_RTC_ALARM_EXTI_CLEAR_FLAG();
1168:Drivers/STM32F0xx_HAL_Driver/Src/stm32f0xx_hal_rtc.c ****   
1169:Drivers/STM32F0xx_HAL_Driver/Src/stm32f0xx_hal_rtc.c ****   /* Change RTC state */
1170:Drivers/STM32F0xx_HAL_Driver/Src/stm32f0xx_hal_rtc.c ****   hrtc->State = HAL_RTC_STATE_READY; 
1171:Drivers/STM32F0xx_HAL_Driver/Src/stm32f0xx_hal_rtc.c **** }
1172:Drivers/STM32F0xx_HAL_Driver/Src/stm32f0xx_hal_rtc.c **** 
1173:Drivers/STM32F0xx_HAL_Driver/Src/stm32f0xx_hal_rtc.c **** /**
1174:Drivers/STM32F0xx_HAL_Driver/Src/stm32f0xx_hal_rtc.c ****   * @brief  Alarm A callback.
1175:Drivers/STM32F0xx_HAL_Driver/Src/stm32f0xx_hal_rtc.c ****   * @param  hrtc RTC handle
1176:Drivers/STM32F0xx_HAL_Driver/Src/stm32f0xx_hal_rtc.c ****   * @retval None
1177:Drivers/STM32F0xx_HAL_Driver/Src/stm32f0xx_hal_rtc.c ****   */
1178:Drivers/STM32F0xx_HAL_Driver/Src/stm32f0xx_hal_rtc.c **** __weak void HAL_RTC_AlarmAEventCallback(RTC_HandleTypeDef *hrtc)
1179:Drivers/STM32F0xx_HAL_Driver/Src/stm32f0xx_hal_rtc.c **** {
1180:Drivers/STM32F0xx_HAL_Driver/Src/stm32f0xx_hal_rtc.c ****   /* Prevent unused argument(s) compilation warning */
1181:Drivers/STM32F0xx_HAL_Driver/Src/stm32f0xx_hal_rtc.c ****   UNUSED(hrtc);
1182:Drivers/STM32F0xx_HAL_Driver/Src/stm32f0xx_hal_rtc.c **** 
1183:Drivers/STM32F0xx_HAL_Driver/Src/stm32f0xx_hal_rtc.c ****   /* NOTE : This function should not be modified, when the callback is needed,
1184:Drivers/STM32F0xx_HAL_Driver/Src/stm32f0xx_hal_rtc.c ****             the HAL_RTC_AlarmAEventCallback could be implemented in the user file
1185:Drivers/STM32F0xx_HAL_Driver/Src/stm32f0xx_hal_rtc.c ****    */
1186:Drivers/STM32F0xx_HAL_Driver/Src/stm32f0xx_hal_rtc.c **** }
1187:Drivers/STM32F0xx_HAL_Driver/Src/stm32f0xx_hal_rtc.c **** 
1188:Drivers/STM32F0xx_HAL_Driver/Src/stm32f0xx_hal_rtc.c **** /**
1189:Drivers/STM32F0xx_HAL_Driver/Src/stm32f0xx_hal_rtc.c ****   * @brief  Handle AlarmA Polling request.
1190:Drivers/STM32F0xx_HAL_Driver/Src/stm32f0xx_hal_rtc.c ****   * @param  hrtc RTC handle
1191:Drivers/STM32F0xx_HAL_Driver/Src/stm32f0xx_hal_rtc.c ****   * @param  Timeout Timeout duration
1192:Drivers/STM32F0xx_HAL_Driver/Src/stm32f0xx_hal_rtc.c ****   * @retval HAL status
1193:Drivers/STM32F0xx_HAL_Driver/Src/stm32f0xx_hal_rtc.c ****   */
1194:Drivers/STM32F0xx_HAL_Driver/Src/stm32f0xx_hal_rtc.c **** HAL_StatusTypeDef HAL_RTC_PollForAlarmAEvent(RTC_HandleTypeDef *hrtc, uint32_t Timeout)
1195:Drivers/STM32F0xx_HAL_Driver/Src/stm32f0xx_hal_rtc.c **** {
1196:Drivers/STM32F0xx_HAL_Driver/Src/stm32f0xx_hal_rtc.c **** 
1197:Drivers/STM32F0xx_HAL_Driver/Src/stm32f0xx_hal_rtc.c ****   uint32_t tickstart = HAL_GetTick();   
1198:Drivers/STM32F0xx_HAL_Driver/Src/stm32f0xx_hal_rtc.c ****   
1199:Drivers/STM32F0xx_HAL_Driver/Src/stm32f0xx_hal_rtc.c ****   while(__HAL_RTC_ALARM_GET_FLAG(hrtc, RTC_FLAG_ALRAF) == RESET)
1200:Drivers/STM32F0xx_HAL_Driver/Src/stm32f0xx_hal_rtc.c ****   {
1201:Drivers/STM32F0xx_HAL_Driver/Src/stm32f0xx_hal_rtc.c ****     if(Timeout != HAL_MAX_DELAY)
1202:Drivers/STM32F0xx_HAL_Driver/Src/stm32f0xx_hal_rtc.c ****     {
1203:Drivers/STM32F0xx_HAL_Driver/Src/stm32f0xx_hal_rtc.c ****       if((Timeout == 0U) || ((HAL_GetTick() - tickstart) > Timeout))
1204:Drivers/STM32F0xx_HAL_Driver/Src/stm32f0xx_hal_rtc.c ****       {
1205:Drivers/STM32F0xx_HAL_Driver/Src/stm32f0xx_hal_rtc.c ****         hrtc->State = HAL_RTC_STATE_TIMEOUT;
1206:Drivers/STM32F0xx_HAL_Driver/Src/stm32f0xx_hal_rtc.c ****         return HAL_TIMEOUT;
ARM GAS  /var/folders/vr/85797ndx6jd_r3n_lsprlrj40000gn/T//ccWMqnSu.s 			page 25


1207:Drivers/STM32F0xx_HAL_Driver/Src/stm32f0xx_hal_rtc.c ****       }
1208:Drivers/STM32F0xx_HAL_Driver/Src/stm32f0xx_hal_rtc.c ****     }
1209:Drivers/STM32F0xx_HAL_Driver/Src/stm32f0xx_hal_rtc.c ****   }
1210:Drivers/STM32F0xx_HAL_Driver/Src/stm32f0xx_hal_rtc.c ****   
1211:Drivers/STM32F0xx_HAL_Driver/Src/stm32f0xx_hal_rtc.c ****   /* Clear the Alarm interrupt pending bit */
1212:Drivers/STM32F0xx_HAL_Driver/Src/stm32f0xx_hal_rtc.c ****   __HAL_RTC_ALARM_CLEAR_FLAG(hrtc, RTC_FLAG_ALRAF);
1213:Drivers/STM32F0xx_HAL_Driver/Src/stm32f0xx_hal_rtc.c ****   
1214:Drivers/STM32F0xx_HAL_Driver/Src/stm32f0xx_hal_rtc.c ****   /* Change RTC state */
1215:Drivers/STM32F0xx_HAL_Driver/Src/stm32f0xx_hal_rtc.c ****   hrtc->State = HAL_RTC_STATE_READY; 
1216:Drivers/STM32F0xx_HAL_Driver/Src/stm32f0xx_hal_rtc.c ****   
1217:Drivers/STM32F0xx_HAL_Driver/Src/stm32f0xx_hal_rtc.c ****   return HAL_OK;  
1218:Drivers/STM32F0xx_HAL_Driver/Src/stm32f0xx_hal_rtc.c **** }
1219:Drivers/STM32F0xx_HAL_Driver/Src/stm32f0xx_hal_rtc.c **** 
1220:Drivers/STM32F0xx_HAL_Driver/Src/stm32f0xx_hal_rtc.c **** /**
1221:Drivers/STM32F0xx_HAL_Driver/Src/stm32f0xx_hal_rtc.c ****   * @}
1222:Drivers/STM32F0xx_HAL_Driver/Src/stm32f0xx_hal_rtc.c ****   */
1223:Drivers/STM32F0xx_HAL_Driver/Src/stm32f0xx_hal_rtc.c **** 
1224:Drivers/STM32F0xx_HAL_Driver/Src/stm32f0xx_hal_rtc.c **** /** @addtogroup RTC_Exported_Functions_Group4
1225:Drivers/STM32F0xx_HAL_Driver/Src/stm32f0xx_hal_rtc.c ****  *  @brief   Peripheral Control functions 
1226:Drivers/STM32F0xx_HAL_Driver/Src/stm32f0xx_hal_rtc.c ****  *
1227:Drivers/STM32F0xx_HAL_Driver/Src/stm32f0xx_hal_rtc.c **** @verbatim   
1228:Drivers/STM32F0xx_HAL_Driver/Src/stm32f0xx_hal_rtc.c ****  ===============================================================================
1229:Drivers/STM32F0xx_HAL_Driver/Src/stm32f0xx_hal_rtc.c ****                      ##### Peripheral Control functions #####
1230:Drivers/STM32F0xx_HAL_Driver/Src/stm32f0xx_hal_rtc.c ****  ===============================================================================  
1231:Drivers/STM32F0xx_HAL_Driver/Src/stm32f0xx_hal_rtc.c ****     [..]
1232:Drivers/STM32F0xx_HAL_Driver/Src/stm32f0xx_hal_rtc.c ****     This subsection provides functions allowing to
1233:Drivers/STM32F0xx_HAL_Driver/Src/stm32f0xx_hal_rtc.c ****       (+) Wait for RTC Time and Date Synchronization
1234:Drivers/STM32F0xx_HAL_Driver/Src/stm32f0xx_hal_rtc.c **** 
1235:Drivers/STM32F0xx_HAL_Driver/Src/stm32f0xx_hal_rtc.c **** @endverbatim
1236:Drivers/STM32F0xx_HAL_Driver/Src/stm32f0xx_hal_rtc.c ****   * @{
1237:Drivers/STM32F0xx_HAL_Driver/Src/stm32f0xx_hal_rtc.c ****   */
1238:Drivers/STM32F0xx_HAL_Driver/Src/stm32f0xx_hal_rtc.c **** 
1239:Drivers/STM32F0xx_HAL_Driver/Src/stm32f0xx_hal_rtc.c **** /**
1240:Drivers/STM32F0xx_HAL_Driver/Src/stm32f0xx_hal_rtc.c ****   * @brief  Wait until the RTC Time and Date registers (RTC_TR and RTC_DR) are
1241:Drivers/STM32F0xx_HAL_Driver/Src/stm32f0xx_hal_rtc.c ****   *         synchronized with RTC APB clock.
1242:Drivers/STM32F0xx_HAL_Driver/Src/stm32f0xx_hal_rtc.c ****   * @note   The RTC Resynchronization mode is write protected, use the 
1243:Drivers/STM32F0xx_HAL_Driver/Src/stm32f0xx_hal_rtc.c ****   *         __HAL_RTC_WRITEPROTECTION_DISABLE() before calling this function. 
1244:Drivers/STM32F0xx_HAL_Driver/Src/stm32f0xx_hal_rtc.c ****   * @note   To read the calendar through the shadow registers after Calendar 
1245:Drivers/STM32F0xx_HAL_Driver/Src/stm32f0xx_hal_rtc.c ****   *         initialization, calendar update or after wakeup from low power modes
1246:Drivers/STM32F0xx_HAL_Driver/Src/stm32f0xx_hal_rtc.c ****   *         the software must first clear the RSF flag.
1247:Drivers/STM32F0xx_HAL_Driver/Src/stm32f0xx_hal_rtc.c ****   *         The software must then wait until it is set again before reading
1248:Drivers/STM32F0xx_HAL_Driver/Src/stm32f0xx_hal_rtc.c ****   *         the calendar, which means that the calendar registers have been
1249:Drivers/STM32F0xx_HAL_Driver/Src/stm32f0xx_hal_rtc.c ****   *         correctly copied into the RTC_TR and RTC_DR shadow registers.
1250:Drivers/STM32F0xx_HAL_Driver/Src/stm32f0xx_hal_rtc.c ****   * @param  hrtc RTC handle
1251:Drivers/STM32F0xx_HAL_Driver/Src/stm32f0xx_hal_rtc.c ****   * @retval HAL status
1252:Drivers/STM32F0xx_HAL_Driver/Src/stm32f0xx_hal_rtc.c ****   */
1253:Drivers/STM32F0xx_HAL_Driver/Src/stm32f0xx_hal_rtc.c **** HAL_StatusTypeDef HAL_RTC_WaitForSynchro(RTC_HandleTypeDef* hrtc)
1254:Drivers/STM32F0xx_HAL_Driver/Src/stm32f0xx_hal_rtc.c **** {
1255:Drivers/STM32F0xx_HAL_Driver/Src/stm32f0xx_hal_rtc.c ****   uint32_t tickstart = 0U;
1256:Drivers/STM32F0xx_HAL_Driver/Src/stm32f0xx_hal_rtc.c **** 
1257:Drivers/STM32F0xx_HAL_Driver/Src/stm32f0xx_hal_rtc.c ****   /* Clear RSF flag */
1258:Drivers/STM32F0xx_HAL_Driver/Src/stm32f0xx_hal_rtc.c ****   hrtc->Instance->ISR &= (uint32_t)RTC_RSF_MASK;
1259:Drivers/STM32F0xx_HAL_Driver/Src/stm32f0xx_hal_rtc.c **** 
1260:Drivers/STM32F0xx_HAL_Driver/Src/stm32f0xx_hal_rtc.c ****   tickstart = HAL_GetTick();
1261:Drivers/STM32F0xx_HAL_Driver/Src/stm32f0xx_hal_rtc.c **** 
1262:Drivers/STM32F0xx_HAL_Driver/Src/stm32f0xx_hal_rtc.c ****   /* Wait the registers to be synchronised */
1263:Drivers/STM32F0xx_HAL_Driver/Src/stm32f0xx_hal_rtc.c ****   while((hrtc->Instance->ISR & RTC_ISR_RSF) == (uint32_t)RESET)
ARM GAS  /var/folders/vr/85797ndx6jd_r3n_lsprlrj40000gn/T//ccWMqnSu.s 			page 26


1264:Drivers/STM32F0xx_HAL_Driver/Src/stm32f0xx_hal_rtc.c ****   {
1265:Drivers/STM32F0xx_HAL_Driver/Src/stm32f0xx_hal_rtc.c ****     if((HAL_GetTick()-tickstart) > RTC_TIMEOUT_VALUE)
1266:Drivers/STM32F0xx_HAL_Driver/Src/stm32f0xx_hal_rtc.c ****     {       
1267:Drivers/STM32F0xx_HAL_Driver/Src/stm32f0xx_hal_rtc.c ****       return HAL_TIMEOUT;
1268:Drivers/STM32F0xx_HAL_Driver/Src/stm32f0xx_hal_rtc.c ****     } 
1269:Drivers/STM32F0xx_HAL_Driver/Src/stm32f0xx_hal_rtc.c ****   }
1270:Drivers/STM32F0xx_HAL_Driver/Src/stm32f0xx_hal_rtc.c **** 
1271:Drivers/STM32F0xx_HAL_Driver/Src/stm32f0xx_hal_rtc.c ****   return HAL_OK;
1272:Drivers/STM32F0xx_HAL_Driver/Src/stm32f0xx_hal_rtc.c **** }
1273:Drivers/STM32F0xx_HAL_Driver/Src/stm32f0xx_hal_rtc.c **** 
1274:Drivers/STM32F0xx_HAL_Driver/Src/stm32f0xx_hal_rtc.c **** /**
1275:Drivers/STM32F0xx_HAL_Driver/Src/stm32f0xx_hal_rtc.c ****   * @}
1276:Drivers/STM32F0xx_HAL_Driver/Src/stm32f0xx_hal_rtc.c ****   */
1277:Drivers/STM32F0xx_HAL_Driver/Src/stm32f0xx_hal_rtc.c **** 
1278:Drivers/STM32F0xx_HAL_Driver/Src/stm32f0xx_hal_rtc.c **** /** @addtogroup RTC_Exported_Functions_Group5
1279:Drivers/STM32F0xx_HAL_Driver/Src/stm32f0xx_hal_rtc.c ****  *  @brief   Peripheral State functions 
1280:Drivers/STM32F0xx_HAL_Driver/Src/stm32f0xx_hal_rtc.c ****  *
1281:Drivers/STM32F0xx_HAL_Driver/Src/stm32f0xx_hal_rtc.c **** @verbatim   
1282:Drivers/STM32F0xx_HAL_Driver/Src/stm32f0xx_hal_rtc.c ****  ===============================================================================
1283:Drivers/STM32F0xx_HAL_Driver/Src/stm32f0xx_hal_rtc.c ****                      ##### Peripheral State functions #####
1284:Drivers/STM32F0xx_HAL_Driver/Src/stm32f0xx_hal_rtc.c ****  ===============================================================================  
1285:Drivers/STM32F0xx_HAL_Driver/Src/stm32f0xx_hal_rtc.c ****     [..]
1286:Drivers/STM32F0xx_HAL_Driver/Src/stm32f0xx_hal_rtc.c ****     This subsection provides functions allowing to
1287:Drivers/STM32F0xx_HAL_Driver/Src/stm32f0xx_hal_rtc.c ****       (+) Get RTC state
1288:Drivers/STM32F0xx_HAL_Driver/Src/stm32f0xx_hal_rtc.c **** 
1289:Drivers/STM32F0xx_HAL_Driver/Src/stm32f0xx_hal_rtc.c **** @endverbatim
1290:Drivers/STM32F0xx_HAL_Driver/Src/stm32f0xx_hal_rtc.c ****   * @{
1291:Drivers/STM32F0xx_HAL_Driver/Src/stm32f0xx_hal_rtc.c ****   */
1292:Drivers/STM32F0xx_HAL_Driver/Src/stm32f0xx_hal_rtc.c **** /**
1293:Drivers/STM32F0xx_HAL_Driver/Src/stm32f0xx_hal_rtc.c ****   * @brief  Return the RTC handle state.
1294:Drivers/STM32F0xx_HAL_Driver/Src/stm32f0xx_hal_rtc.c ****   * @param  hrtc RTC handle
1295:Drivers/STM32F0xx_HAL_Driver/Src/stm32f0xx_hal_rtc.c ****   * @retval HAL state
1296:Drivers/STM32F0xx_HAL_Driver/Src/stm32f0xx_hal_rtc.c ****   */
1297:Drivers/STM32F0xx_HAL_Driver/Src/stm32f0xx_hal_rtc.c **** HAL_RTCStateTypeDef HAL_RTC_GetState(RTC_HandleTypeDef* hrtc)
1298:Drivers/STM32F0xx_HAL_Driver/Src/stm32f0xx_hal_rtc.c **** {
1299:Drivers/STM32F0xx_HAL_Driver/Src/stm32f0xx_hal_rtc.c ****   /* Return RTC handle state */
1300:Drivers/STM32F0xx_HAL_Driver/Src/stm32f0xx_hal_rtc.c ****   return hrtc->State;
1301:Drivers/STM32F0xx_HAL_Driver/Src/stm32f0xx_hal_rtc.c **** }
1302:Drivers/STM32F0xx_HAL_Driver/Src/stm32f0xx_hal_rtc.c **** 
1303:Drivers/STM32F0xx_HAL_Driver/Src/stm32f0xx_hal_rtc.c **** /**
1304:Drivers/STM32F0xx_HAL_Driver/Src/stm32f0xx_hal_rtc.c ****   * @}
1305:Drivers/STM32F0xx_HAL_Driver/Src/stm32f0xx_hal_rtc.c ****   */
1306:Drivers/STM32F0xx_HAL_Driver/Src/stm32f0xx_hal_rtc.c **** 
1307:Drivers/STM32F0xx_HAL_Driver/Src/stm32f0xx_hal_rtc.c **** /**
1308:Drivers/STM32F0xx_HAL_Driver/Src/stm32f0xx_hal_rtc.c ****   * @}
1309:Drivers/STM32F0xx_HAL_Driver/Src/stm32f0xx_hal_rtc.c ****   */
1310:Drivers/STM32F0xx_HAL_Driver/Src/stm32f0xx_hal_rtc.c **** 
1311:Drivers/STM32F0xx_HAL_Driver/Src/stm32f0xx_hal_rtc.c **** /** @addtogroup RTC_Private_Functions
1312:Drivers/STM32F0xx_HAL_Driver/Src/stm32f0xx_hal_rtc.c ****   * @{
1313:Drivers/STM32F0xx_HAL_Driver/Src/stm32f0xx_hal_rtc.c ****   */
1314:Drivers/STM32F0xx_HAL_Driver/Src/stm32f0xx_hal_rtc.c **** /**
1315:Drivers/STM32F0xx_HAL_Driver/Src/stm32f0xx_hal_rtc.c ****   * @brief  Enter the RTC Initialization mode.
1316:Drivers/STM32F0xx_HAL_Driver/Src/stm32f0xx_hal_rtc.c ****   * @note   The RTC Initialization mode is write protected, use the
1317:Drivers/STM32F0xx_HAL_Driver/Src/stm32f0xx_hal_rtc.c ****   *         __HAL_RTC_WRITEPROTECTION_DISABLE() before calling this function.
1318:Drivers/STM32F0xx_HAL_Driver/Src/stm32f0xx_hal_rtc.c ****   * @param  hrtc RTC handle
1319:Drivers/STM32F0xx_HAL_Driver/Src/stm32f0xx_hal_rtc.c ****   * @retval HAL status
1320:Drivers/STM32F0xx_HAL_Driver/Src/stm32f0xx_hal_rtc.c ****   */
ARM GAS  /var/folders/vr/85797ndx6jd_r3n_lsprlrj40000gn/T//ccWMqnSu.s 			page 27


1321:Drivers/STM32F0xx_HAL_Driver/Src/stm32f0xx_hal_rtc.c **** HAL_StatusTypeDef RTC_EnterInitMode(RTC_HandleTypeDef* hrtc)
1322:Drivers/STM32F0xx_HAL_Driver/Src/stm32f0xx_hal_rtc.c **** {
1323:Drivers/STM32F0xx_HAL_Driver/Src/stm32f0xx_hal_rtc.c ****   uint32_t tickstart = 0U;
1324:Drivers/STM32F0xx_HAL_Driver/Src/stm32f0xx_hal_rtc.c ****   
1325:Drivers/STM32F0xx_HAL_Driver/Src/stm32f0xx_hal_rtc.c ****   /* Check if the Initialization mode is set */
1326:Drivers/STM32F0xx_HAL_Driver/Src/stm32f0xx_hal_rtc.c ****   if((hrtc->Instance->ISR & RTC_ISR_INITF) == (uint32_t)RESET)
1327:Drivers/STM32F0xx_HAL_Driver/Src/stm32f0xx_hal_rtc.c ****   {
1328:Drivers/STM32F0xx_HAL_Driver/Src/stm32f0xx_hal_rtc.c ****     /* Set the Initialization mode */
1329:Drivers/STM32F0xx_HAL_Driver/Src/stm32f0xx_hal_rtc.c ****     hrtc->Instance->ISR = (uint32_t)RTC_INIT_MASK;
1330:Drivers/STM32F0xx_HAL_Driver/Src/stm32f0xx_hal_rtc.c ****     
1331:Drivers/STM32F0xx_HAL_Driver/Src/stm32f0xx_hal_rtc.c ****     tickstart = HAL_GetTick();
1332:Drivers/STM32F0xx_HAL_Driver/Src/stm32f0xx_hal_rtc.c ****     
1333:Drivers/STM32F0xx_HAL_Driver/Src/stm32f0xx_hal_rtc.c ****     /* Wait till RTC is in INIT state and if Time out is reached exit */
1334:Drivers/STM32F0xx_HAL_Driver/Src/stm32f0xx_hal_rtc.c ****     while((hrtc->Instance->ISR & RTC_ISR_INITF) == (uint32_t)RESET)
1335:Drivers/STM32F0xx_HAL_Driver/Src/stm32f0xx_hal_rtc.c ****     {
1336:Drivers/STM32F0xx_HAL_Driver/Src/stm32f0xx_hal_rtc.c ****       if((HAL_GetTick()-tickstart) > RTC_TIMEOUT_VALUE)
1337:Drivers/STM32F0xx_HAL_Driver/Src/stm32f0xx_hal_rtc.c ****       {       
1338:Drivers/STM32F0xx_HAL_Driver/Src/stm32f0xx_hal_rtc.c ****         return HAL_TIMEOUT;
1339:Drivers/STM32F0xx_HAL_Driver/Src/stm32f0xx_hal_rtc.c ****       } 
1340:Drivers/STM32F0xx_HAL_Driver/Src/stm32f0xx_hal_rtc.c ****     }
1341:Drivers/STM32F0xx_HAL_Driver/Src/stm32f0xx_hal_rtc.c ****   }
1342:Drivers/STM32F0xx_HAL_Driver/Src/stm32f0xx_hal_rtc.c ****   
1343:Drivers/STM32F0xx_HAL_Driver/Src/stm32f0xx_hal_rtc.c ****   return HAL_OK;  
1344:Drivers/STM32F0xx_HAL_Driver/Src/stm32f0xx_hal_rtc.c **** }
1345:Drivers/STM32F0xx_HAL_Driver/Src/stm32f0xx_hal_rtc.c **** 
1346:Drivers/STM32F0xx_HAL_Driver/Src/stm32f0xx_hal_rtc.c **** 
1347:Drivers/STM32F0xx_HAL_Driver/Src/stm32f0xx_hal_rtc.c **** /**
1348:Drivers/STM32F0xx_HAL_Driver/Src/stm32f0xx_hal_rtc.c ****   * @brief  Convert a 2 digit decimal to BCD format.
1349:Drivers/STM32F0xx_HAL_Driver/Src/stm32f0xx_hal_rtc.c ****   * @param  Value Byte to be converted
1350:Drivers/STM32F0xx_HAL_Driver/Src/stm32f0xx_hal_rtc.c ****   * @retval Converted byte
1351:Drivers/STM32F0xx_HAL_Driver/Src/stm32f0xx_hal_rtc.c ****   */
1352:Drivers/STM32F0xx_HAL_Driver/Src/stm32f0xx_hal_rtc.c **** uint8_t RTC_ByteToBcd2(uint8_t Value)
1353:Drivers/STM32F0xx_HAL_Driver/Src/stm32f0xx_hal_rtc.c **** {
1354:Drivers/STM32F0xx_HAL_Driver/Src/stm32f0xx_hal_rtc.c ****   uint32_t bcdhigh = 0U;
1355:Drivers/STM32F0xx_HAL_Driver/Src/stm32f0xx_hal_rtc.c ****   
1356:Drivers/STM32F0xx_HAL_Driver/Src/stm32f0xx_hal_rtc.c ****   while(Value >= 10U)
1357:Drivers/STM32F0xx_HAL_Driver/Src/stm32f0xx_hal_rtc.c ****   {
1358:Drivers/STM32F0xx_HAL_Driver/Src/stm32f0xx_hal_rtc.c ****     bcdhigh++;
1359:Drivers/STM32F0xx_HAL_Driver/Src/stm32f0xx_hal_rtc.c ****     Value -= 10U;
1360:Drivers/STM32F0xx_HAL_Driver/Src/stm32f0xx_hal_rtc.c ****   }
1361:Drivers/STM32F0xx_HAL_Driver/Src/stm32f0xx_hal_rtc.c ****   
1362:Drivers/STM32F0xx_HAL_Driver/Src/stm32f0xx_hal_rtc.c ****   return  ((uint8_t)(bcdhigh << 4U) | Value);
1363:Drivers/STM32F0xx_HAL_Driver/Src/stm32f0xx_hal_rtc.c **** }
1364:Drivers/STM32F0xx_HAL_Driver/Src/stm32f0xx_hal_rtc.c **** 
1365:Drivers/STM32F0xx_HAL_Driver/Src/stm32f0xx_hal_rtc.c **** /**
1366:Drivers/STM32F0xx_HAL_Driver/Src/stm32f0xx_hal_rtc.c ****   * @brief  Convert from 2 digit BCD to Binary.
1367:Drivers/STM32F0xx_HAL_Driver/Src/stm32f0xx_hal_rtc.c ****   * @param  Value BCD value to be converted
1368:Drivers/STM32F0xx_HAL_Driver/Src/stm32f0xx_hal_rtc.c ****   * @retval Converted word
1369:Drivers/STM32F0xx_HAL_Driver/Src/stm32f0xx_hal_rtc.c ****   */
1370:Drivers/STM32F0xx_HAL_Driver/Src/stm32f0xx_hal_rtc.c **** uint8_t RTC_Bcd2ToByte(uint8_t Value)
 147              		.loc 1 1370 9 view .LVU37
 148              	.LBB69:
1371:Drivers/STM32F0xx_HAL_Driver/Src/stm32f0xx_hal_rtc.c **** {
1372:Drivers/STM32F0xx_HAL_Driver/Src/stm32f0xx_hal_rtc.c ****   uint32_t tmp = 0U;
 149              		.loc 1 1372 3 view .LVU38
1373:Drivers/STM32F0xx_HAL_Driver/Src/stm32f0xx_hal_rtc.c ****   tmp = ((uint8_t)(Value & (uint8_t)0xF0U) >> (uint8_t)0x4U) * 10U;
 150              		.loc 1 1373 3 view .LVU39
ARM GAS  /var/folders/vr/85797ndx6jd_r3n_lsprlrj40000gn/T//ccWMqnSu.s 			page 28


1374:Drivers/STM32F0xx_HAL_Driver/Src/stm32f0xx_hal_rtc.c ****   return (tmp + (Value & (uint8_t)0x0FU));
 151              		.loc 1 1374 3 view .LVU40
 152              		.loc 1 1374 24 is_stmt 0 view .LVU41
 153 0032 0F26     		movs	r6, #15
1373:Drivers/STM32F0xx_HAL_Driver/Src/stm32f0xx_hal_rtc.c ****   tmp = ((uint8_t)(Value & (uint8_t)0xF0U) >> (uint8_t)0x4U) * 10U;
 154              		.loc 1 1373 44 view .LVU42
 155 0034 0009     		lsrs	r0, r0, #4
1373:Drivers/STM32F0xx_HAL_Driver/Src/stm32f0xx_hal_rtc.c ****   tmp = ((uint8_t)(Value & (uint8_t)0xF0U) >> (uint8_t)0x4U) * 10U;
 156              		.loc 1 1373 7 view .LVU43
 157 0036 8200     		lsls	r2, r0, #2
 158              	.LVL6:
1373:Drivers/STM32F0xx_HAL_Driver/Src/stm32f0xx_hal_rtc.c ****   tmp = ((uint8_t)(Value & (uint8_t)0xF0U) >> (uint8_t)0x4U) * 10U;
 159              		.loc 1 1373 7 view .LVU44
 160 0038 1018     		adds	r0, r2, r0
 161 003a 4000     		lsls	r0, r0, #1
 162              		.loc 1 1374 24 view .LVU45
 163 003c 3540     		ands	r5, r6
 164              		.loc 1 1374 15 view .LVU46
 165 003e 4519     		adds	r5, r0, r5
 166              	.LBE69:
 167              	.LBE68:
 168              	.LBB70:
 169              	.LBB71:
1373:Drivers/STM32F0xx_HAL_Driver/Src/stm32f0xx_hal_rtc.c ****   tmp = ((uint8_t)(Value & (uint8_t)0xF0U) >> (uint8_t)0x4U) * 10U;
 170              		.loc 1 1373 44 view .LVU47
 171 0040 1809     		lsrs	r0, r3, #4
1373:Drivers/STM32F0xx_HAL_Driver/Src/stm32f0xx_hal_rtc.c ****   tmp = ((uint8_t)(Value & (uint8_t)0xF0U) >> (uint8_t)0x4U) * 10U;
 172              		.loc 1 1373 7 view .LVU48
 173 0042 8200     		lsls	r2, r0, #2
 174 0044 1218     		adds	r2, r2, r0
 175 0046 5200     		lsls	r2, r2, #1
 176              		.loc 1 1374 24 view .LVU49
 177 0048 3340     		ands	r3, r6
 178              		.loc 1 1374 15 view .LVU50
 179 004a D318     		adds	r3, r2, r3
 180              	.LBE71:
 181              	.LBE70:
 182              	.LBB73:
 183              	.LBB74:
1373:Drivers/STM32F0xx_HAL_Driver/Src/stm32f0xx_hal_rtc.c ****   tmp = ((uint8_t)(Value & (uint8_t)0xF0U) >> (uint8_t)0x4U) * 10U;
 184              		.loc 1 1373 44 view .LVU51
 185 004c 2209     		lsrs	r2, r4, #4
 186              	.LBE74:
 187              	.LBE73:
 572:Drivers/STM32F0xx_HAL_Driver/Src/stm32f0xx_hal_rtc.c ****     sTime->Seconds = (uint8_t)RTC_Bcd2ToByte(sTime->Seconds);  
 188              		.loc 1 572 20 view .LVU52
 189 004e 4B70     		strb	r3, [r1, #1]
 190              	.LBB77:
 191              	.LBB75:
1373:Drivers/STM32F0xx_HAL_Driver/Src/stm32f0xx_hal_rtc.c ****   tmp = ((uint8_t)(Value & (uint8_t)0xF0U) >> (uint8_t)0x4U) * 10U;
 192              		.loc 1 1373 7 view .LVU53
 193 0050 9300     		lsls	r3, r2, #2
 194 0052 9B18     		adds	r3, r3, r2
 195 0054 5B00     		lsls	r3, r3, #1
 196              		.loc 1 1374 24 view .LVU54
 197 0056 3440     		ands	r4, r6
 198              		.loc 1 1374 15 view .LVU55
ARM GAS  /var/folders/vr/85797ndx6jd_r3n_lsprlrj40000gn/T//ccWMqnSu.s 			page 29


 199 0058 1C19     		adds	r4, r3, r4
 200              	.LBE75:
 201              	.LBE77:
 571:Drivers/STM32F0xx_HAL_Driver/Src/stm32f0xx_hal_rtc.c ****     sTime->Minutes = (uint8_t)RTC_Bcd2ToByte(sTime->Minutes);
 202              		.loc 1 571 18 view .LVU56
 203 005a 0D70     		strb	r5, [r1]
 572:Drivers/STM32F0xx_HAL_Driver/Src/stm32f0xx_hal_rtc.c ****     sTime->Seconds = (uint8_t)RTC_Bcd2ToByte(sTime->Seconds);  
 204              		.loc 1 572 5 is_stmt 1 view .LVU57
 205              	.LBB78:
 206              	.LBI70:
1370:Drivers/STM32F0xx_HAL_Driver/Src/stm32f0xx_hal_rtc.c **** {
 207              		.loc 1 1370 9 view .LVU58
 208              	.LBB72:
1372:Drivers/STM32F0xx_HAL_Driver/Src/stm32f0xx_hal_rtc.c ****   tmp = ((uint8_t)(Value & (uint8_t)0xF0U) >> (uint8_t)0x4U) * 10U;
 209              		.loc 1 1372 3 view .LVU59
 210              	.LVL7:
1373:Drivers/STM32F0xx_HAL_Driver/Src/stm32f0xx_hal_rtc.c ****   return (tmp + (Value & (uint8_t)0x0FU));
 211              		.loc 1 1373 3 view .LVU60
 212              		.loc 1 1374 3 view .LVU61
 213              	.LBE72:
 214              	.LBE78:
 573:Drivers/STM32F0xx_HAL_Driver/Src/stm32f0xx_hal_rtc.c ****   }
 215              		.loc 1 573 5 view .LVU62
 216              	.LBB79:
 217              	.LBI73:
1370:Drivers/STM32F0xx_HAL_Driver/Src/stm32f0xx_hal_rtc.c **** {
 218              		.loc 1 1370 9 view .LVU63
 219              	.LBB76:
1372:Drivers/STM32F0xx_HAL_Driver/Src/stm32f0xx_hal_rtc.c ****   tmp = ((uint8_t)(Value & (uint8_t)0xF0U) >> (uint8_t)0x4U) * 10U;
 220              		.loc 1 1372 3 view .LVU64
1373:Drivers/STM32F0xx_HAL_Driver/Src/stm32f0xx_hal_rtc.c ****   return (tmp + (Value & (uint8_t)0x0FU));
 221              		.loc 1 1373 3 view .LVU65
 222              		.loc 1 1374 3 view .LVU66
 223              	.LBE76:
 224              	.LBE79:
 573:Drivers/STM32F0xx_HAL_Driver/Src/stm32f0xx_hal_rtc.c ****   }
 225              		.loc 1 573 20 is_stmt 0 view .LVU67
 226 005c 8C70     		strb	r4, [r1, #2]
 227              	.L5:
 576:Drivers/STM32F0xx_HAL_Driver/Src/stm32f0xx_hal_rtc.c **** }
 228              		.loc 1 576 3 is_stmt 1 view .LVU68
 577:Drivers/STM32F0xx_HAL_Driver/Src/stm32f0xx_hal_rtc.c **** 
 229              		.loc 1 577 1 is_stmt 0 view .LVU69
 230 005e 0020     		movs	r0, #0
 231              		@ sp needed
 232 0060 70BD     		pop	{r4, r5, r6, pc}
 233              	.L7:
 234 0062 C046     		.align	2
 235              	.L6:
 236 0064 7F7F7F00 		.word	8355711
 237              		.cfi_endproc
 238              	.LFE42:
 240              		.section	.text.HAL_RTC_GetDate,"ax",%progbits
 241              		.align	1
 242              		.p2align 2,,3
 243              		.global	HAL_RTC_GetDate
 244              		.syntax unified
ARM GAS  /var/folders/vr/85797ndx6jd_r3n_lsprlrj40000gn/T//ccWMqnSu.s 			page 30


 245              		.code	16
 246              		.thumb_func
 247              		.fpu softvfp
 249              	HAL_RTC_GetDate:
 250              	.LVL8:
 251              	.LFB44:
 701:Drivers/STM32F0xx_HAL_Driver/Src/stm32f0xx_hal_rtc.c ****   uint32_t datetmpreg = 0;
 252              		.loc 1 701 1 is_stmt 1 view -0
 253              		.cfi_startproc
 254              		@ args = 0, pretend = 0, frame = 0
 255              		@ frame_needed = 0, uses_anonymous_args = 0
 702:Drivers/STM32F0xx_HAL_Driver/Src/stm32f0xx_hal_rtc.c **** 
 256              		.loc 1 702 3 view .LVU71
 705:Drivers/STM32F0xx_HAL_Driver/Src/stm32f0xx_hal_rtc.c ****           
 257              		.loc 1 705 3 view .LVU72
 708:Drivers/STM32F0xx_HAL_Driver/Src/stm32f0xx_hal_rtc.c **** 
 258              		.loc 1 708 3 view .LVU73
 708:Drivers/STM32F0xx_HAL_Driver/Src/stm32f0xx_hal_rtc.c **** 
 259              		.loc 1 708 31 is_stmt 0 view .LVU74
 260 0000 0368     		ldr	r3, [r0]
 708:Drivers/STM32F0xx_HAL_Driver/Src/stm32f0xx_hal_rtc.c **** 
 261              		.loc 1 708 14 view .LVU75
 262 0002 1548     		ldr	r0, .L10
 263              	.LVL9:
 708:Drivers/STM32F0xx_HAL_Driver/Src/stm32f0xx_hal_rtc.c **** 
 264              		.loc 1 708 41 view .LVU76
 265 0004 5B68     		ldr	r3, [r3, #4]
 701:Drivers/STM32F0xx_HAL_Driver/Src/stm32f0xx_hal_rtc.c ****   uint32_t datetmpreg = 0;
 266              		.loc 1 701 1 view .LVU77
 267 0006 F0B5     		push	{r4, r5, r6, r7, lr}
 268              	.LCFI1:
 269              		.cfi_def_cfa_offset 20
 270              		.cfi_offset 4, -20
 271              		.cfi_offset 5, -16
 272              		.cfi_offset 6, -12
 273              		.cfi_offset 7, -8
 274              		.cfi_offset 14, -4
 708:Drivers/STM32F0xx_HAL_Driver/Src/stm32f0xx_hal_rtc.c **** 
 275              		.loc 1 708 14 view .LVU78
 276 0008 0340     		ands	r3, r0
 277              	.LVL10:
 711:Drivers/STM32F0xx_HAL_Driver/Src/stm32f0xx_hal_rtc.c ****   sDate->Month = (uint8_t)((datetmpreg & (RTC_DR_MT | RTC_DR_MU)) >> 8U);
 278              		.loc 1 711 3 is_stmt 1 view .LVU79
 712:Drivers/STM32F0xx_HAL_Driver/Src/stm32f0xx_hal_rtc.c ****   sDate->Date = (uint8_t)(datetmpreg & (RTC_DR_DT | RTC_DR_DU));
 279              		.loc 1 712 18 is_stmt 0 view .LVU80
 280 000a 1F20     		movs	r0, #31
 712:Drivers/STM32F0xx_HAL_Driver/Src/stm32f0xx_hal_rtc.c ****   sDate->Date = (uint8_t)(datetmpreg & (RTC_DR_DT | RTC_DR_DU));
 281              		.loc 1 712 67 view .LVU81
 282 000c 1D0A     		lsrs	r5, r3, #8
 711:Drivers/STM32F0xx_HAL_Driver/Src/stm32f0xx_hal_rtc.c ****   sDate->Month = (uint8_t)((datetmpreg & (RTC_DR_MT | RTC_DR_MU)) >> 8U);
 283              		.loc 1 711 17 view .LVU82
 284 000e 1F0C     		lsrs	r7, r3, #16
 713:Drivers/STM32F0xx_HAL_Driver/Src/stm32f0xx_hal_rtc.c ****   sDate->WeekDay = (uint8_t)((datetmpreg & (RTC_DR_WDU)) >> 13U); 
 285              		.loc 1 713 17 view .LVU83
 286 0010 DCB2     		uxtb	r4, r3
 712:Drivers/STM32F0xx_HAL_Driver/Src/stm32f0xx_hal_rtc.c ****   sDate->Date = (uint8_t)(datetmpreg & (RTC_DR_DT | RTC_DR_DU));
 287              		.loc 1 712 18 view .LVU84
ARM GAS  /var/folders/vr/85797ndx6jd_r3n_lsprlrj40000gn/T//ccWMqnSu.s 			page 31


 288 0012 EDB2     		uxtb	r5, r5
 714:Drivers/STM32F0xx_HAL_Driver/Src/stm32f0xx_hal_rtc.c **** 
 289              		.loc 1 714 20 view .LVU85
 290 0014 1B04     		lsls	r3, r3, #16
 291              	.LVL11:
 712:Drivers/STM32F0xx_HAL_Driver/Src/stm32f0xx_hal_rtc.c ****   sDate->Date = (uint8_t)(datetmpreg & (RTC_DR_DT | RTC_DR_DU));
 292              		.loc 1 712 18 view .LVU86
 293 0016 2840     		ands	r0, r5
 714:Drivers/STM32F0xx_HAL_Driver/Src/stm32f0xx_hal_rtc.c **** 
 294              		.loc 1 714 20 view .LVU87
 295 0018 5B0F     		lsrs	r3, r3, #29
 711:Drivers/STM32F0xx_HAL_Driver/Src/stm32f0xx_hal_rtc.c ****   sDate->Month = (uint8_t)((datetmpreg & (RTC_DR_MT | RTC_DR_MU)) >> 8U);
 296              		.loc 1 711 15 view .LVU88
 297 001a CF70     		strb	r7, [r1, #3]
 712:Drivers/STM32F0xx_HAL_Driver/Src/stm32f0xx_hal_rtc.c ****   sDate->Date = (uint8_t)(datetmpreg & (RTC_DR_DT | RTC_DR_DU));
 298              		.loc 1 712 3 is_stmt 1 view .LVU89
 712:Drivers/STM32F0xx_HAL_Driver/Src/stm32f0xx_hal_rtc.c ****   sDate->Date = (uint8_t)(datetmpreg & (RTC_DR_DT | RTC_DR_DU));
 299              		.loc 1 712 16 is_stmt 0 view .LVU90
 300 001c 4870     		strb	r0, [r1, #1]
 713:Drivers/STM32F0xx_HAL_Driver/Src/stm32f0xx_hal_rtc.c ****   sDate->WeekDay = (uint8_t)((datetmpreg & (RTC_DR_WDU)) >> 13U); 
 301              		.loc 1 713 3 is_stmt 1 view .LVU91
 713:Drivers/STM32F0xx_HAL_Driver/Src/stm32f0xx_hal_rtc.c ****   sDate->WeekDay = (uint8_t)((datetmpreg & (RTC_DR_WDU)) >> 13U); 
 302              		.loc 1 713 15 is_stmt 0 view .LVU92
 303 001e 8C70     		strb	r4, [r1, #2]
 714:Drivers/STM32F0xx_HAL_Driver/Src/stm32f0xx_hal_rtc.c **** 
 304              		.loc 1 714 3 is_stmt 1 view .LVU93
 714:Drivers/STM32F0xx_HAL_Driver/Src/stm32f0xx_hal_rtc.c **** 
 305              		.loc 1 714 18 is_stmt 0 view .LVU94
 306 0020 0B70     		strb	r3, [r1]
 717:Drivers/STM32F0xx_HAL_Driver/Src/stm32f0xx_hal_rtc.c ****   {    
 307              		.loc 1 717 3 is_stmt 1 view .LVU95
 717:Drivers/STM32F0xx_HAL_Driver/Src/stm32f0xx_hal_rtc.c ****   {    
 308              		.loc 1 717 5 is_stmt 0 view .LVU96
 309 0022 002A     		cmp	r2, #0
 310 0024 15D1     		bne	.L9
 720:Drivers/STM32F0xx_HAL_Driver/Src/stm32f0xx_hal_rtc.c ****     sDate->Month = (uint8_t)RTC_Bcd2ToByte(sDate->Month);
 311              		.loc 1 720 5 is_stmt 1 view .LVU97
 312              	.LVL12:
 313              	.LBB80:
 314              	.LBI80:
1370:Drivers/STM32F0xx_HAL_Driver/Src/stm32f0xx_hal_rtc.c **** {
 315              		.loc 1 1370 9 view .LVU98
 316              	.LBB81:
1372:Drivers/STM32F0xx_HAL_Driver/Src/stm32f0xx_hal_rtc.c ****   tmp = ((uint8_t)(Value & (uint8_t)0xF0U) >> (uint8_t)0x4U) * 10U;
 317              		.loc 1 1372 3 view .LVU99
1373:Drivers/STM32F0xx_HAL_Driver/Src/stm32f0xx_hal_rtc.c ****   return (tmp + (Value & (uint8_t)0x0FU));
 318              		.loc 1 1373 3 view .LVU100
 319              		.loc 1 1374 3 view .LVU101
 320              		.loc 1 1374 24 is_stmt 0 view .LVU102
 321 0026 0F26     		movs	r6, #15
1373:Drivers/STM32F0xx_HAL_Driver/Src/stm32f0xx_hal_rtc.c ****   return (tmp + (Value & (uint8_t)0x0FU));
 322              		.loc 1 1373 44 view .LVU103
 323 0028 3A09     		lsrs	r2, r7, #4
 324              	.LVL13:
1373:Drivers/STM32F0xx_HAL_Driver/Src/stm32f0xx_hal_rtc.c ****   return (tmp + (Value & (uint8_t)0x0FU));
 325              		.loc 1 1373 7 view .LVU104
 326 002a 9300     		lsls	r3, r2, #2
ARM GAS  /var/folders/vr/85797ndx6jd_r3n_lsprlrj40000gn/T//ccWMqnSu.s 			page 32


 327 002c 9B18     		adds	r3, r3, r2
 328              	.LBE81:
 329              	.LBE80:
 330              	.LBB83:
 331              	.LBB84:
1373:Drivers/STM32F0xx_HAL_Driver/Src/stm32f0xx_hal_rtc.c ****   return (tmp + (Value & (uint8_t)0x0FU));
 332              		.loc 1 1373 44 view .LVU105
 333 002e 0209     		lsrs	r2, r0, #4
1373:Drivers/STM32F0xx_HAL_Driver/Src/stm32f0xx_hal_rtc.c ****   return (tmp + (Value & (uint8_t)0x0FU));
 334              		.loc 1 1373 7 view .LVU106
 335 0030 9000     		lsls	r0, r2, #2
 336              	.LBE84:
 337              	.LBE83:
 338              	.LBB89:
 339              	.LBB82:
 340 0032 5B00     		lsls	r3, r3, #1
 341              		.loc 1 1374 24 view .LVU107
 342 0034 3740     		ands	r7, r6
 343              		.loc 1 1374 15 view .LVU108
 344 0036 DB19     		adds	r3, r3, r7
 345              	.LBE82:
 346              	.LBE89:
 347              	.LBB90:
 348              	.LBB85:
1373:Drivers/STM32F0xx_HAL_Driver/Src/stm32f0xx_hal_rtc.c ****   return (tmp + (Value & (uint8_t)0x0FU));
 349              		.loc 1 1373 7 view .LVU109
 350 0038 8018     		adds	r0, r0, r2
 351              	.LBE85:
 352              	.LBE90:
 353              	.LBB91:
 354              	.LBB92:
1373:Drivers/STM32F0xx_HAL_Driver/Src/stm32f0xx_hal_rtc.c ****   return (tmp + (Value & (uint8_t)0x0FU));
 355              		.loc 1 1373 44 view .LVU110
 356 003a 2209     		lsrs	r2, r4, #4
 357              	.LBE92:
 358              	.LBE91:
 720:Drivers/STM32F0xx_HAL_Driver/Src/stm32f0xx_hal_rtc.c ****     sDate->Month = (uint8_t)RTC_Bcd2ToByte(sDate->Month);
 359              		.loc 1 720 17 view .LVU111
 360 003c CB70     		strb	r3, [r1, #3]
 721:Drivers/STM32F0xx_HAL_Driver/Src/stm32f0xx_hal_rtc.c ****     sDate->Date = (uint8_t)RTC_Bcd2ToByte(sDate->Date);  
 361              		.loc 1 721 5 is_stmt 1 view .LVU112
 362              	.LBB97:
 363              	.LBI83:
1370:Drivers/STM32F0xx_HAL_Driver/Src/stm32f0xx_hal_rtc.c **** {
 364              		.loc 1 1370 9 view .LVU113
 365              	.LBB86:
1372:Drivers/STM32F0xx_HAL_Driver/Src/stm32f0xx_hal_rtc.c ****   tmp = ((uint8_t)(Value & (uint8_t)0xF0U) >> (uint8_t)0x4U) * 10U;
 366              		.loc 1 1372 3 view .LVU114
 367              	.LVL14:
1373:Drivers/STM32F0xx_HAL_Driver/Src/stm32f0xx_hal_rtc.c ****   return (tmp + (Value & (uint8_t)0x0FU));
 368              		.loc 1 1373 3 view .LVU115
 369              		.loc 1 1374 3 view .LVU116
 370              	.LBE86:
 371              	.LBE97:
 372              	.LBB98:
 373              	.LBB93:
1373:Drivers/STM32F0xx_HAL_Driver/Src/stm32f0xx_hal_rtc.c ****   return (tmp + (Value & (uint8_t)0x0FU));
ARM GAS  /var/folders/vr/85797ndx6jd_r3n_lsprlrj40000gn/T//ccWMqnSu.s 			page 33


 374              		.loc 1 1373 7 is_stmt 0 view .LVU117
 375 003e 9300     		lsls	r3, r2, #2
 376 0040 9B18     		adds	r3, r3, r2
 377              	.LBE93:
 378              	.LBE98:
 379              	.LBB99:
 380              	.LBB87:
 381 0042 4000     		lsls	r0, r0, #1
 382              		.loc 1 1374 24 view .LVU118
 383 0044 3540     		ands	r5, r6
 384              	.LBE87:
 385              	.LBE99:
 386              	.LBB100:
 387              	.LBB94:
1373:Drivers/STM32F0xx_HAL_Driver/Src/stm32f0xx_hal_rtc.c ****   return (tmp + (Value & (uint8_t)0x0FU));
 388              		.loc 1 1373 7 view .LVU119
 389 0046 5B00     		lsls	r3, r3, #1
 390              		.loc 1 1374 24 view .LVU120
 391 0048 3440     		ands	r4, r6
 392              	.LBE94:
 393              	.LBE100:
 394              	.LBB101:
 395              	.LBB88:
 396              		.loc 1 1374 15 view .LVU121
 397 004a 4019     		adds	r0, r0, r5
 398              	.LBE88:
 399              	.LBE101:
 400              	.LBB102:
 401              	.LBB95:
 402 004c 1B19     		adds	r3, r3, r4
 403              	.LBE95:
 404              	.LBE102:
 721:Drivers/STM32F0xx_HAL_Driver/Src/stm32f0xx_hal_rtc.c ****     sDate->Date = (uint8_t)RTC_Bcd2ToByte(sDate->Date);  
 405              		.loc 1 721 18 view .LVU122
 406 004e 4870     		strb	r0, [r1, #1]
 722:Drivers/STM32F0xx_HAL_Driver/Src/stm32f0xx_hal_rtc.c ****   }
 407              		.loc 1 722 5 is_stmt 1 view .LVU123
 408              	.LBB103:
 409              	.LBI91:
1370:Drivers/STM32F0xx_HAL_Driver/Src/stm32f0xx_hal_rtc.c **** {
 410              		.loc 1 1370 9 view .LVU124
 411              	.LBB96:
1372:Drivers/STM32F0xx_HAL_Driver/Src/stm32f0xx_hal_rtc.c ****   tmp = ((uint8_t)(Value & (uint8_t)0xF0U) >> (uint8_t)0x4U) * 10U;
 412              		.loc 1 1372 3 view .LVU125
 413              	.LVL15:
1373:Drivers/STM32F0xx_HAL_Driver/Src/stm32f0xx_hal_rtc.c ****   return (tmp + (Value & (uint8_t)0x0FU));
 414              		.loc 1 1373 3 view .LVU126
 415              		.loc 1 1374 3 view .LVU127
 416              	.LBE96:
 417              	.LBE103:
 722:Drivers/STM32F0xx_HAL_Driver/Src/stm32f0xx_hal_rtc.c ****   }
 418              		.loc 1 722 17 is_stmt 0 view .LVU128
 419 0050 8B70     		strb	r3, [r1, #2]
 420              	.L9:
 724:Drivers/STM32F0xx_HAL_Driver/Src/stm32f0xx_hal_rtc.c **** }
 421              		.loc 1 724 3 is_stmt 1 view .LVU129
 725:Drivers/STM32F0xx_HAL_Driver/Src/stm32f0xx_hal_rtc.c **** 
ARM GAS  /var/folders/vr/85797ndx6jd_r3n_lsprlrj40000gn/T//ccWMqnSu.s 			page 34


 422              		.loc 1 725 1 is_stmt 0 view .LVU130
 423 0052 0020     		movs	r0, #0
 424              		@ sp needed
 425 0054 F0BD     		pop	{r4, r5, r6, r7, pc}
 426              	.L11:
 427 0056 C046     		.align	2
 428              	.L10:
 429 0058 3FFFFF00 		.word	16777023
 430              		.cfi_endproc
 431              	.LFE44:
 433              		.section	.text.HAL_RTC_SetAlarm,"ax",%progbits
 434              		.align	1
 435              		.p2align 2,,3
 436              		.global	HAL_RTC_SetAlarm
 437              		.syntax unified
 438              		.code	16
 439              		.thumb_func
 440              		.fpu softvfp
 442              	HAL_RTC_SetAlarm:
 443              	.LVL16:
 444              	.LFB45:
 755:Drivers/STM32F0xx_HAL_Driver/Src/stm32f0xx_hal_rtc.c ****   uint32_t tickstart = 0U;
 445              		.loc 1 755 1 is_stmt 1 view -0
 446              		.cfi_startproc
 447              		@ args = 0, pretend = 0, frame = 0
 448              		@ frame_needed = 0, uses_anonymous_args = 0
 756:Drivers/STM32F0xx_HAL_Driver/Src/stm32f0xx_hal_rtc.c ****   uint32_t tmpreg = 0U, subsecondtmpreg = 0U;
 449              		.loc 1 756 3 view .LVU132
 757:Drivers/STM32F0xx_HAL_Driver/Src/stm32f0xx_hal_rtc.c ****   
 450              		.loc 1 757 3 view .LVU133
 760:Drivers/STM32F0xx_HAL_Driver/Src/stm32f0xx_hal_rtc.c ****   assert_param(IS_RTC_ALARM(sAlarm->Alarm));
 451              		.loc 1 760 3 view .LVU134
 761:Drivers/STM32F0xx_HAL_Driver/Src/stm32f0xx_hal_rtc.c ****   assert_param(IS_RTC_ALARM_MASK(sAlarm->AlarmMask));
 452              		.loc 1 761 3 view .LVU135
 762:Drivers/STM32F0xx_HAL_Driver/Src/stm32f0xx_hal_rtc.c ****   assert_param(IS_RTC_ALARM_DATE_WEEKDAY_SEL(sAlarm->AlarmDateWeekDaySel));
 453              		.loc 1 762 3 view .LVU136
 763:Drivers/STM32F0xx_HAL_Driver/Src/stm32f0xx_hal_rtc.c ****   assert_param(IS_RTC_ALARM_SUB_SECOND_VALUE(sAlarm->AlarmTime.SubSeconds));
 454              		.loc 1 763 3 view .LVU137
 764:Drivers/STM32F0xx_HAL_Driver/Src/stm32f0xx_hal_rtc.c ****   assert_param(IS_RTC_ALARM_SUB_SECOND_MASK(sAlarm->AlarmSubSecondMask));
 455              		.loc 1 764 3 view .LVU138
 765:Drivers/STM32F0xx_HAL_Driver/Src/stm32f0xx_hal_rtc.c ****   
 456              		.loc 1 765 3 view .LVU139
 768:Drivers/STM32F0xx_HAL_Driver/Src/stm32f0xx_hal_rtc.c ****   
 457              		.loc 1 768 3 view .LVU140
 768:Drivers/STM32F0xx_HAL_Driver/Src/stm32f0xx_hal_rtc.c ****   
 458              		.loc 1 768 3 view .LVU141
 755:Drivers/STM32F0xx_HAL_Driver/Src/stm32f0xx_hal_rtc.c ****   uint32_t tickstart = 0U;
 459              		.loc 1 755 1 is_stmt 0 view .LVU142
 460 0000 F8B5     		push	{r3, r4, r5, r6, r7, lr}
 461              	.LCFI2:
 462              		.cfi_def_cfa_offset 24
 463              		.cfi_offset 3, -24
 464              		.cfi_offset 4, -20
 465              		.cfi_offset 5, -16
 466              		.cfi_offset 6, -12
 467              		.cfi_offset 7, -8
 468              		.cfi_offset 14, -4
ARM GAS  /var/folders/vr/85797ndx6jd_r3n_lsprlrj40000gn/T//ccWMqnSu.s 			page 35


 469 0002 4546     		mov	r5, r8
 470 0004 DE46     		mov	lr, fp
 471 0006 5746     		mov	r7, r10
 472 0008 4E46     		mov	r6, r9
 473 000a E0B5     		push	{r5, r6, r7, lr}
 474              	.LCFI3:
 475              		.cfi_def_cfa_offset 40
 476              		.cfi_offset 8, -40
 477              		.cfi_offset 9, -36
 478              		.cfi_offset 10, -32
 479              		.cfi_offset 11, -28
 768:Drivers/STM32F0xx_HAL_Driver/Src/stm32f0xx_hal_rtc.c ****   
 480              		.loc 1 768 3 view .LVU143
 481 000c 037F     		ldrb	r3, [r0, #28]
 755:Drivers/STM32F0xx_HAL_Driver/Src/stm32f0xx_hal_rtc.c ****   uint32_t tickstart = 0U;
 482              		.loc 1 755 1 view .LVU144
 483 000e 0500     		movs	r5, r0
 768:Drivers/STM32F0xx_HAL_Driver/Src/stm32f0xx_hal_rtc.c ****   
 484              		.loc 1 768 3 view .LVU145
 485 0010 012B     		cmp	r3, #1
 486 0012 00D1     		bne	.LCB384
 487 0014 A9E0     		b	.L30	@long jump
 488              	.LCB384:
 768:Drivers/STM32F0xx_HAL_Driver/Src/stm32f0xx_hal_rtc.c ****   
 489              		.loc 1 768 3 is_stmt 1 discriminator 2 view .LVU146
 490 0016 0123     		movs	r3, #1
 491 0018 0468     		ldr	r4, [r0]
 492 001a 0377     		strb	r3, [r0, #28]
 770:Drivers/STM32F0xx_HAL_Driver/Src/stm32f0xx_hal_rtc.c ****   
 493              		.loc 1 770 3 discriminator 2 view .LVU147
 770:Drivers/STM32F0xx_HAL_Driver/Src/stm32f0xx_hal_rtc.c ****   
 494              		.loc 1 770 15 is_stmt 0 discriminator 2 view .LVU148
 495 001c 0133     		adds	r3, r3, #1
 496 001e 4377     		strb	r3, [r0, #29]
 772:Drivers/STM32F0xx_HAL_Driver/Src/stm32f0xx_hal_rtc.c ****   {
 497              		.loc 1 772 3 is_stmt 1 discriminator 2 view .LVU149
 774:Drivers/STM32F0xx_HAL_Driver/Src/stm32f0xx_hal_rtc.c ****     {
 498              		.loc 1 774 23 is_stmt 0 discriminator 2 view .LVU150
 499 0020 A368     		ldr	r3, [r4, #8]
 774:Drivers/STM32F0xx_HAL_Driver/Src/stm32f0xx_hal_rtc.c ****     {
 500              		.loc 1 774 28 discriminator 2 view .LVU151
 501 0022 4026     		movs	r6, #64
 772:Drivers/STM32F0xx_HAL_Driver/Src/stm32f0xx_hal_rtc.c ****   {
 502              		.loc 1 772 5 discriminator 2 view .LVU152
 503 0024 002A     		cmp	r2, #0
 504 0026 4DD0     		beq	.L36
 806:Drivers/STM32F0xx_HAL_Driver/Src/stm32f0xx_hal_rtc.c ****     {
 505              		.loc 1 806 5 is_stmt 1 view .LVU153
 806:Drivers/STM32F0xx_HAL_Driver/Src/stm32f0xx_hal_rtc.c ****     {
 506              		.loc 1 806 28 is_stmt 0 view .LVU154
 507 0028 3340     		ands	r3, r6
 806:Drivers/STM32F0xx_HAL_Driver/Src/stm32f0xx_hal_rtc.c ****     {
 508              		.loc 1 806 7 view .LVU155
 509 002a 00D1     		bne	.LCB400
 510 002c 99E0     		b	.L26	@long jump
 511              	.LCB400:
 512 002e CB78     		ldrb	r3, [r1, #3]
ARM GAS  /var/folders/vr/85797ndx6jd_r3n_lsprlrj40000gn/T//ccWMqnSu.s 			page 36


 513 0030 1B04     		lsls	r3, r3, #16
 514              	.L27:
 815:Drivers/STM32F0xx_HAL_Driver/Src/stm32f0xx_hal_rtc.c ****     }
 515              		.loc 1 815 7 is_stmt 1 view .LVU156
 818:Drivers/STM32F0xx_HAL_Driver/Src/stm32f0xx_hal_rtc.c ****     assert_param(IS_RTC_SECONDS(RTC_Bcd2ToByte(sAlarm->AlarmTime.Seconds)));
 516              		.loc 1 818 5 view .LVU157
 819:Drivers/STM32F0xx_HAL_Driver/Src/stm32f0xx_hal_rtc.c ****     
 517              		.loc 1 819 5 view .LVU158
 821:Drivers/STM32F0xx_HAL_Driver/Src/stm32f0xx_hal_rtc.c ****     {
 518              		.loc 1 821 5 view .LVU159
 828:Drivers/STM32F0xx_HAL_Driver/Src/stm32f0xx_hal_rtc.c ****       assert_param(IS_RTC_ALARM_DATE_WEEKDAY_WEEKDAY(tmpreg));      
 519              		.loc 1 828 7 view .LVU160
 520              	.LVL17:
1372:Drivers/STM32F0xx_HAL_Driver/Src/stm32f0xx_hal_rtc.c ****   tmp = ((uint8_t)(Value & (uint8_t)0xF0U) >> (uint8_t)0x4U) * 10U;
 521              		.loc 1 1372 3 view .LVU161
1373:Drivers/STM32F0xx_HAL_Driver/Src/stm32f0xx_hal_rtc.c ****   return (tmp + (Value & (uint8_t)0x0FU));
 522              		.loc 1 1373 3 view .LVU162
 523              		.loc 1 1374 3 view .LVU163
 829:Drivers/STM32F0xx_HAL_Driver/Src/stm32f0xx_hal_rtc.c ****     }  
 524              		.loc 1 829 7 view .LVU164
 832:Drivers/STM32F0xx_HAL_Driver/Src/stm32f0xx_hal_rtc.c ****               ((uint32_t)(sAlarm->AlarmTime.Minutes) << 8U) | \
 525              		.loc 1 832 5 view .LVU165
 832:Drivers/STM32F0xx_HAL_Driver/Src/stm32f0xx_hal_rtc.c ****               ((uint32_t)(sAlarm->AlarmTime.Minutes) << 8U) | \
 526              		.loc 1 832 12 is_stmt 0 view .LVU166
 527 0032 4A69     		ldr	r2, [r1, #20]
 528              	.LVL18:
 832:Drivers/STM32F0xx_HAL_Driver/Src/stm32f0xx_hal_rtc.c ****               ((uint32_t)(sAlarm->AlarmTime.Minutes) << 8U) | \
 529              		.loc 1 832 12 view .LVU167
 530 0034 CE69     		ldr	r6, [r1, #28]
 531 0036 1643     		orrs	r6, r2
 834:Drivers/STM32F0xx_HAL_Driver/Src/stm32f0xx_hal_rtc.c ****               ((uint32_t)(sAlarm->AlarmTime.TimeFormat) << 16U) | \
 532              		.loc 1 834 16 view .LVU168
 533 0038 8A78     		ldrb	r2, [r1, #2]
 832:Drivers/STM32F0xx_HAL_Driver/Src/stm32f0xx_hal_rtc.c ****               ((uint32_t)(sAlarm->AlarmTime.Minutes) << 8U) | \
 534              		.loc 1 832 12 view .LVU169
 535 003a 1643     		orrs	r6, r2
 832:Drivers/STM32F0xx_HAL_Driver/Src/stm32f0xx_hal_rtc.c ****               ((uint32_t)(sAlarm->AlarmTime.Minutes) << 8U) | \
 536              		.loc 1 832 16 view .LVU170
 537 003c 0A78     		ldrb	r2, [r1]
 832:Drivers/STM32F0xx_HAL_Driver/Src/stm32f0xx_hal_rtc.c ****               ((uint32_t)(sAlarm->AlarmTime.Minutes) << 8U) | \
 538              		.loc 1 832 52 view .LVU171
 539 003e 1204     		lsls	r2, r2, #16
 832:Drivers/STM32F0xx_HAL_Driver/Src/stm32f0xx_hal_rtc.c ****               ((uint32_t)(sAlarm->AlarmTime.Minutes) << 8U) | \
 540              		.loc 1 832 12 view .LVU172
 541 0040 1643     		orrs	r6, r2
 833:Drivers/STM32F0xx_HAL_Driver/Src/stm32f0xx_hal_rtc.c ****               ((uint32_t) sAlarm->AlarmTime.Seconds) | \
 542              		.loc 1 833 16 view .LVU173
 543 0042 4A78     		ldrb	r2, [r1, #1]
 833:Drivers/STM32F0xx_HAL_Driver/Src/stm32f0xx_hal_rtc.c ****               ((uint32_t) sAlarm->AlarmTime.Seconds) | \
 544              		.loc 1 833 54 view .LVU174
 545 0044 1202     		lsls	r2, r2, #8
 832:Drivers/STM32F0xx_HAL_Driver/Src/stm32f0xx_hal_rtc.c ****               ((uint32_t)(sAlarm->AlarmTime.Minutes) << 8U) | \
 546              		.loc 1 832 12 view .LVU175
 547 0046 1643     		orrs	r6, r2
 836:Drivers/STM32F0xx_HAL_Driver/Src/stm32f0xx_hal_rtc.c ****               ((uint32_t)sAlarm->AlarmDateWeekDaySel) | \
 548              		.loc 1 836 33 view .LVU176
 549 0048 2022     		movs	r2, #32
ARM GAS  /var/folders/vr/85797ndx6jd_r3n_lsprlrj40000gn/T//ccWMqnSu.s 			page 37


 836:Drivers/STM32F0xx_HAL_Driver/Src/stm32f0xx_hal_rtc.c ****               ((uint32_t)sAlarm->AlarmDateWeekDaySel) | \
 550              		.loc 1 836 16 view .LVU177
 551 004a 8A5C     		ldrb	r2, [r1, r2]
 836:Drivers/STM32F0xx_HAL_Driver/Src/stm32f0xx_hal_rtc.c ****               ((uint32_t)sAlarm->AlarmDateWeekDaySel) | \
 552              		.loc 1 836 53 view .LVU178
 553 004c 1206     		lsls	r2, r2, #24
 832:Drivers/STM32F0xx_HAL_Driver/Src/stm32f0xx_hal_rtc.c ****               ((uint32_t)(sAlarm->AlarmTime.Minutes) << 8U) | \
 554              		.loc 1 832 12 view .LVU179
 555 004e 1643     		orrs	r6, r2
 556 0050 1E43     		orrs	r6, r3
 557 0052 B046     		mov	r8, r6
 558              	.LVL19:
 559              	.L25:
 842:Drivers/STM32F0xx_HAL_Driver/Src/stm32f0xx_hal_rtc.c ****   
 560              		.loc 1 842 3 is_stmt 1 view .LVU180
 842:Drivers/STM32F0xx_HAL_Driver/Src/stm32f0xx_hal_rtc.c ****   
 561              		.loc 1 842 60 is_stmt 0 view .LVU181
 562 0054 4B68     		ldr	r3, [r1, #4]
 848:Drivers/STM32F0xx_HAL_Driver/Src/stm32f0xx_hal_rtc.c **** 
 563              		.loc 1 848 3 view .LVU182
 564 0056 464A     		ldr	r2, .L38
 842:Drivers/STM32F0xx_HAL_Driver/Src/stm32f0xx_hal_rtc.c ****   
 565              		.loc 1 842 60 view .LVU183
 566 0058 9A46     		mov	r10, r3
 842:Drivers/STM32F0xx_HAL_Driver/Src/stm32f0xx_hal_rtc.c ****   
 567              		.loc 1 842 92 view .LVU184
 568 005a 8B69     		ldr	r3, [r1, #24]
 857:Drivers/STM32F0xx_HAL_Driver/Src/stm32f0xx_hal_rtc.c ****     {
 569              		.loc 1 857 7 view .LVU185
 570 005c FA26     		movs	r6, #250
 842:Drivers/STM32F0xx_HAL_Driver/Src/stm32f0xx_hal_rtc.c ****   
 571              		.loc 1 842 92 view .LVU186
 572 005e 9B46     		mov	fp, r3
 573              	.LVL20:
 845:Drivers/STM32F0xx_HAL_Driver/Src/stm32f0xx_hal_rtc.c **** 
 574              		.loc 1 845 3 is_stmt 1 view .LVU187
 845:Drivers/STM32F0xx_HAL_Driver/Src/stm32f0xx_hal_rtc.c **** 
 575              		.loc 1 845 3 view .LVU188
 576 0060 CA23     		movs	r3, #202
 577              	.LVL21:
 845:Drivers/STM32F0xx_HAL_Driver/Src/stm32f0xx_hal_rtc.c **** 
 578              		.loc 1 845 3 is_stmt 0 view .LVU189
 579 0062 6362     		str	r3, [r4, #36]
 845:Drivers/STM32F0xx_HAL_Driver/Src/stm32f0xx_hal_rtc.c **** 
 580              		.loc 1 845 3 is_stmt 1 view .LVU190
 581 0064 773B     		subs	r3, r3, #119
 582 0066 6362     		str	r3, [r4, #36]
 848:Drivers/STM32F0xx_HAL_Driver/Src/stm32f0xx_hal_rtc.c **** 
 583              		.loc 1 848 3 view .LVU191
 584 0068 A368     		ldr	r3, [r4, #8]
 855:Drivers/STM32F0xx_HAL_Driver/Src/stm32f0xx_hal_rtc.c ****   {
 585              		.loc 1 855 9 is_stmt 0 view .LVU192
 586 006a 0127     		movs	r7, #1
 848:Drivers/STM32F0xx_HAL_Driver/Src/stm32f0xx_hal_rtc.c **** 
 587              		.loc 1 848 3 view .LVU193
 588 006c 1340     		ands	r3, r2
 589 006e A360     		str	r3, [r4, #8]
ARM GAS  /var/folders/vr/85797ndx6jd_r3n_lsprlrj40000gn/T//ccWMqnSu.s 			page 38


 851:Drivers/STM32F0xx_HAL_Driver/Src/stm32f0xx_hal_rtc.c ****          
 590              		.loc 1 851 3 is_stmt 1 view .LVU194
 591 0070 A368     		ldr	r3, [r4, #8]
 592 0072 404A     		ldr	r2, .L38+4
 857:Drivers/STM32F0xx_HAL_Driver/Src/stm32f0xx_hal_rtc.c ****     {
 593              		.loc 1 857 7 is_stmt 0 view .LVU195
 594 0074 B600     		lsls	r6, r6, #2
 851:Drivers/STM32F0xx_HAL_Driver/Src/stm32f0xx_hal_rtc.c ****          
 595              		.loc 1 851 3 view .LVU196
 596 0076 1340     		ands	r3, r2
 597 0078 A360     		str	r3, [r4, #8]
 853:Drivers/STM32F0xx_HAL_Driver/Src/stm32f0xx_hal_rtc.c ****   /* Wait till RTC ALRAWF flag is set and if Time out is reached exit */
 598              		.loc 1 853 3 is_stmt 1 view .LVU197
 853:Drivers/STM32F0xx_HAL_Driver/Src/stm32f0xx_hal_rtc.c ****   /* Wait till RTC ALRAWF flag is set and if Time out is reached exit */
 599              		.loc 1 853 15 is_stmt 0 view .LVU198
 600 007a FFF7FEFF 		bl	HAL_GetTick
 601              	.LVL22:
 853:Drivers/STM32F0xx_HAL_Driver/Src/stm32f0xx_hal_rtc.c ****   /* Wait till RTC ALRAWF flag is set and if Time out is reached exit */
 602              		.loc 1 853 15 view .LVU199
 603 007e 8146     		mov	r9, r0
 604              	.LVL23:
 855:Drivers/STM32F0xx_HAL_Driver/Src/stm32f0xx_hal_rtc.c ****   {
 605              		.loc 1 855 3 is_stmt 1 view .LVU200
 855:Drivers/STM32F0xx_HAL_Driver/Src/stm32f0xx_hal_rtc.c ****   {
 606              		.loc 1 855 8 is_stmt 0 view .LVU201
 607 0080 05E0     		b	.L28
 608              	.LVL24:
 609              	.L29:
 857:Drivers/STM32F0xx_HAL_Driver/Src/stm32f0xx_hal_rtc.c ****     {
 610              		.loc 1 857 5 is_stmt 1 view .LVU202
 857:Drivers/STM32F0xx_HAL_Driver/Src/stm32f0xx_hal_rtc.c ****     {
 611              		.loc 1 857 9 is_stmt 0 view .LVU203
 612 0082 FFF7FEFF 		bl	HAL_GetTick
 613              	.LVL25:
 857:Drivers/STM32F0xx_HAL_Driver/Src/stm32f0xx_hal_rtc.c ****     {
 614              		.loc 1 857 22 view .LVU204
 615 0086 4B46     		mov	r3, r9
 616 0088 C01A     		subs	r0, r0, r3
 857:Drivers/STM32F0xx_HAL_Driver/Src/stm32f0xx_hal_rtc.c ****     {
 617              		.loc 1 857 7 view .LVU205
 618 008a B042     		cmp	r0, r6
 619 008c 61D8     		bhi	.L37
 620              	.L28:
 855:Drivers/STM32F0xx_HAL_Driver/Src/stm32f0xx_hal_rtc.c ****   {
 621              		.loc 1 855 9 view .LVU206
 622 008e 2B68     		ldr	r3, [r5]
 623 0090 DC68     		ldr	r4, [r3, #12]
 624 0092 3C40     		ands	r4, r7
 855:Drivers/STM32F0xx_HAL_Driver/Src/stm32f0xx_hal_rtc.c ****   {
 625              		.loc 1 855 8 view .LVU207
 626 0094 F5D0     		beq	.L29
 871:Drivers/STM32F0xx_HAL_Driver/Src/stm32f0xx_hal_rtc.c ****   /* Configure the Alarm A Sub Second register */
 627              		.loc 1 871 3 is_stmt 1 view .LVU208
 871:Drivers/STM32F0xx_HAL_Driver/Src/stm32f0xx_hal_rtc.c ****   /* Configure the Alarm A Sub Second register */
 628              		.loc 1 871 26 is_stmt 0 view .LVU209
 629 0096 4246     		mov	r2, r8
 842:Drivers/STM32F0xx_HAL_Driver/Src/stm32f0xx_hal_rtc.c ****   
ARM GAS  /var/folders/vr/85797ndx6jd_r3n_lsprlrj40000gn/T//ccWMqnSu.s 			page 39


 630              		.loc 1 842 19 view .LVU210
 631 0098 5946     		mov	r1, fp
 871:Drivers/STM32F0xx_HAL_Driver/Src/stm32f0xx_hal_rtc.c ****   /* Configure the Alarm A Sub Second register */
 632              		.loc 1 871 26 view .LVU211
 633 009a DA61     		str	r2, [r3, #28]
 873:Drivers/STM32F0xx_HAL_Driver/Src/stm32f0xx_hal_rtc.c ****   /* Configure the Alarm state: Enable Alarm */
 634              		.loc 1 873 3 is_stmt 1 view .LVU212
 842:Drivers/STM32F0xx_HAL_Driver/Src/stm32f0xx_hal_rtc.c ****   
 635              		.loc 1 842 19 is_stmt 0 view .LVU213
 636 009c 5246     		mov	r2, r10
 637 009e 0A43     		orrs	r2, r1
 873:Drivers/STM32F0xx_HAL_Driver/Src/stm32f0xx_hal_rtc.c ****   /* Configure the Alarm state: Enable Alarm */
 638              		.loc 1 873 28 view .LVU214
 639 00a0 5A64     		str	r2, [r3, #68]
 875:Drivers/STM32F0xx_HAL_Driver/Src/stm32f0xx_hal_rtc.c ****   
 640              		.loc 1 875 3 is_stmt 1 view .LVU215
 641 00a2 8022     		movs	r2, #128
 642 00a4 9968     		ldr	r1, [r3, #8]
 643 00a6 5200     		lsls	r2, r2, #1
 644 00a8 0A43     		orrs	r2, r1
 645 00aa 9A60     		str	r2, [r3, #8]
 878:Drivers/STM32F0xx_HAL_Driver/Src/stm32f0xx_hal_rtc.c ****   
 646              		.loc 1 878 3 view .LVU216
 878:Drivers/STM32F0xx_HAL_Driver/Src/stm32f0xx_hal_rtc.c ****   
 647              		.loc 1 878 3 view .LVU217
 648 00ac FF22     		movs	r2, #255
 649 00ae 5A62     		str	r2, [r3, #36]
 881:Drivers/STM32F0xx_HAL_Driver/Src/stm32f0xx_hal_rtc.c ****   
 650              		.loc 1 881 3 view .LVU218
 884:Drivers/STM32F0xx_HAL_Driver/Src/stm32f0xx_hal_rtc.c ****   
 651              		.loc 1 884 3 is_stmt 0 view .LVU219
 652 00b0 0023     		movs	r3, #0
 886:Drivers/STM32F0xx_HAL_Driver/Src/stm32f0xx_hal_rtc.c **** }
 653              		.loc 1 886 10 view .LVU220
 654 00b2 0020     		movs	r0, #0
 881:Drivers/STM32F0xx_HAL_Driver/Src/stm32f0xx_hal_rtc.c ****   
 655              		.loc 1 881 15 view .LVU221
 656 00b4 6F77     		strb	r7, [r5, #29]
 884:Drivers/STM32F0xx_HAL_Driver/Src/stm32f0xx_hal_rtc.c ****   
 657              		.loc 1 884 3 is_stmt 1 view .LVU222
 884:Drivers/STM32F0xx_HAL_Driver/Src/stm32f0xx_hal_rtc.c ****   
 658              		.loc 1 884 3 view .LVU223
 659 00b6 2B77     		strb	r3, [r5, #28]
 886:Drivers/STM32F0xx_HAL_Driver/Src/stm32f0xx_hal_rtc.c **** }
 660              		.loc 1 886 3 view .LVU224
 661              	.LVL26:
 662              	.L13:
 887:Drivers/STM32F0xx_HAL_Driver/Src/stm32f0xx_hal_rtc.c **** 
 663              		.loc 1 887 1 is_stmt 0 view .LVU225
 664              		@ sp needed
 665              	.LVL27:
 887:Drivers/STM32F0xx_HAL_Driver/Src/stm32f0xx_hal_rtc.c **** 
 666              		.loc 1 887 1 view .LVU226
 667 00b8 3CBC     		pop	{r2, r3, r4, r5}
 668 00ba 9046     		mov	r8, r2
 669 00bc 9946     		mov	r9, r3
 670 00be A246     		mov	r10, r4
ARM GAS  /var/folders/vr/85797ndx6jd_r3n_lsprlrj40000gn/T//ccWMqnSu.s 			page 40


 671 00c0 AB46     		mov	fp, r5
 672 00c2 F8BD     		pop	{r3, r4, r5, r6, r7, pc}
 673              	.LVL28:
 674              	.L36:
 774:Drivers/STM32F0xx_HAL_Driver/Src/stm32f0xx_hal_rtc.c ****     {
 675              		.loc 1 774 5 is_stmt 1 view .LVU227
 774:Drivers/STM32F0xx_HAL_Driver/Src/stm32f0xx_hal_rtc.c ****     {
 676              		.loc 1 774 28 is_stmt 0 view .LVU228
 677 00c4 1E40     		ands	r6, r3
 774:Drivers/STM32F0xx_HAL_Driver/Src/stm32f0xx_hal_rtc.c ****     {
 678              		.loc 1 774 7 view .LVU229
 679 00c6 4ED0     		beq	.L15
 680 00c8 CE78     		ldrb	r6, [r1, #3]
 681 00ca 3604     		lsls	r6, r6, #16
 682              	.L16:
 782:Drivers/STM32F0xx_HAL_Driver/Src/stm32f0xx_hal_rtc.c ****     }
 683              		.loc 1 782 7 is_stmt 1 view .LVU230
 784:Drivers/STM32F0xx_HAL_Driver/Src/stm32f0xx_hal_rtc.c ****     assert_param(IS_RTC_SECONDS(sAlarm->AlarmTime.Seconds));
 684              		.loc 1 784 5 view .LVU231
 785:Drivers/STM32F0xx_HAL_Driver/Src/stm32f0xx_hal_rtc.c ****     
 685              		.loc 1 785 5 view .LVU232
 787:Drivers/STM32F0xx_HAL_Driver/Src/stm32f0xx_hal_rtc.c ****     {
 686              		.loc 1 787 5 view .LVU233
 787:Drivers/STM32F0xx_HAL_Driver/Src/stm32f0xx_hal_rtc.c ****     {
 687              		.loc 1 787 14 is_stmt 0 view .LVU234
 688 00cc CB69     		ldr	r3, [r1, #28]
 796:Drivers/STM32F0xx_HAL_Driver/Src/stm32f0xx_hal_rtc.c ****               ((uint32_t)RTC_ByteToBcd2(sAlarm->AlarmTime.Minutes) << 8U) | \
 689              		.loc 1 796 26 view .LVU235
 690 00ce 0878     		ldrb	r0, [r1]
 691              	.LVL29:
 787:Drivers/STM32F0xx_HAL_Driver/Src/stm32f0xx_hal_rtc.c ****     {
 692              		.loc 1 787 14 view .LVU236
 693 00d0 9846     		mov	r8, r3
 793:Drivers/STM32F0xx_HAL_Driver/Src/stm32f0xx_hal_rtc.c ****     }
 694              		.loc 1 793 7 is_stmt 1 view .LVU237
 796:Drivers/STM32F0xx_HAL_Driver/Src/stm32f0xx_hal_rtc.c ****               ((uint32_t)RTC_ByteToBcd2(sAlarm->AlarmTime.Minutes) << 8U) | \
 695              		.loc 1 796 5 view .LVU238
 696              	.LVL30:
 697              	.LBB104:
 698              	.LBI104:
1352:Drivers/STM32F0xx_HAL_Driver/Src/stm32f0xx_hal_rtc.c **** {
 699              		.loc 1 1352 9 view .LVU239
 700              	.LBB105:
1354:Drivers/STM32F0xx_HAL_Driver/Src/stm32f0xx_hal_rtc.c ****   
 701              		.loc 1 1354 3 view .LVU240
1356:Drivers/STM32F0xx_HAL_Driver/Src/stm32f0xx_hal_rtc.c ****   {
 702              		.loc 1 1356 3 view .LVU241
1356:Drivers/STM32F0xx_HAL_Driver/Src/stm32f0xx_hal_rtc.c ****   {
 703              		.loc 1 1356 8 is_stmt 0 view .LVU242
 704 00d2 0928     		cmp	r0, #9
 705 00d4 08D9     		bls	.L17
1354:Drivers/STM32F0xx_HAL_Driver/Src/stm32f0xx_hal_rtc.c ****   
 706              		.loc 1 1354 12 view .LVU243
 707 00d6 0023     		movs	r3, #0
 708              	.LVL31:
 709              	.L18:
1358:Drivers/STM32F0xx_HAL_Driver/Src/stm32f0xx_hal_rtc.c ****     Value -= 10U;
ARM GAS  /var/folders/vr/85797ndx6jd_r3n_lsprlrj40000gn/T//ccWMqnSu.s 			page 41


 710              		.loc 1 1358 5 is_stmt 1 view .LVU244
1359:Drivers/STM32F0xx_HAL_Driver/Src/stm32f0xx_hal_rtc.c ****   }
 711              		.loc 1 1359 11 is_stmt 0 view .LVU245
 712 00d8 0A38     		subs	r0, r0, #10
 713              	.LVL32:
1359:Drivers/STM32F0xx_HAL_Driver/Src/stm32f0xx_hal_rtc.c ****   }
 714              		.loc 1 1359 11 view .LVU246
 715 00da C0B2     		uxtb	r0, r0
1358:Drivers/STM32F0xx_HAL_Driver/Src/stm32f0xx_hal_rtc.c ****     Value -= 10U;
 716              		.loc 1 1358 12 view .LVU247
 717 00dc 0133     		adds	r3, r3, #1
 718              	.LVL33:
1359:Drivers/STM32F0xx_HAL_Driver/Src/stm32f0xx_hal_rtc.c ****   }
 719              		.loc 1 1359 5 is_stmt 1 view .LVU248
1356:Drivers/STM32F0xx_HAL_Driver/Src/stm32f0xx_hal_rtc.c ****   {
 720              		.loc 1 1356 8 is_stmt 0 view .LVU249
 721 00de 0928     		cmp	r0, #9
 722 00e0 FAD8     		bhi	.L18
 723 00e2 1B01     		lsls	r3, r3, #4
 724              	.LVL34:
1356:Drivers/STM32F0xx_HAL_Driver/Src/stm32f0xx_hal_rtc.c ****   {
 725              		.loc 1 1356 8 view .LVU250
 726 00e4 1843     		orrs	r0, r3
 727              	.LVL35:
1356:Drivers/STM32F0xx_HAL_Driver/Src/stm32f0xx_hal_rtc.c ****   {
 728              		.loc 1 1356 8 view .LVU251
 729 00e6 C0B2     		uxtb	r0, r0
 730              	.L17:
1362:Drivers/STM32F0xx_HAL_Driver/Src/stm32f0xx_hal_rtc.c **** }
 731              		.loc 1 1362 3 is_stmt 1 view .LVU252
 732              	.LBE105:
 733              	.LBE104:
 796:Drivers/STM32F0xx_HAL_Driver/Src/stm32f0xx_hal_rtc.c ****               ((uint32_t)RTC_ByteToBcd2(sAlarm->AlarmTime.Minutes) << 8U) | \
 734              		.loc 1 796 66 is_stmt 0 view .LVU253
 735 00e8 0304     		lsls	r3, r0, #16
 797:Drivers/STM32F0xx_HAL_Driver/Src/stm32f0xx_hal_rtc.c ****               ((uint32_t)RTC_ByteToBcd2(sAlarm->AlarmTime.Seconds)) | \
 736              		.loc 1 797 26 view .LVU254
 737 00ea 4878     		ldrb	r0, [r1, #1]
 738              	.LVL36:
 739              	.LBB106:
 740              	.LBI106:
1352:Drivers/STM32F0xx_HAL_Driver/Src/stm32f0xx_hal_rtc.c **** {
 741              		.loc 1 1352 9 is_stmt 1 view .LVU255
1352:Drivers/STM32F0xx_HAL_Driver/Src/stm32f0xx_hal_rtc.c **** {
 742              		.loc 1 1352 9 is_stmt 0 view .LVU256
 743              	.LBE106:
 796:Drivers/STM32F0xx_HAL_Driver/Src/stm32f0xx_hal_rtc.c ****               ((uint32_t)RTC_ByteToBcd2(sAlarm->AlarmTime.Minutes) << 8U) | \
 744              		.loc 1 796 66 view .LVU257
 745 00ec 9C46     		mov	ip, r3
 746              	.LBB108:
 747              	.LBB107:
1356:Drivers/STM32F0xx_HAL_Driver/Src/stm32f0xx_hal_rtc.c ****   {
 748              		.loc 1 1356 8 view .LVU258
 749 00ee 0928     		cmp	r0, #9
 750 00f0 08D9     		bls	.L19
1354:Drivers/STM32F0xx_HAL_Driver/Src/stm32f0xx_hal_rtc.c ****   
 751              		.loc 1 1354 12 view .LVU259
ARM GAS  /var/folders/vr/85797ndx6jd_r3n_lsprlrj40000gn/T//ccWMqnSu.s 			page 42


 752 00f2 0023     		movs	r3, #0
 753              	.LVL37:
 754              	.L20:
1358:Drivers/STM32F0xx_HAL_Driver/Src/stm32f0xx_hal_rtc.c ****     Value -= 10U;
 755              		.loc 1 1358 5 is_stmt 1 view .LVU260
1359:Drivers/STM32F0xx_HAL_Driver/Src/stm32f0xx_hal_rtc.c ****   }
 756              		.loc 1 1359 11 is_stmt 0 view .LVU261
 757 00f4 0A38     		subs	r0, r0, #10
 758              	.LVL38:
1359:Drivers/STM32F0xx_HAL_Driver/Src/stm32f0xx_hal_rtc.c ****   }
 759              		.loc 1 1359 11 view .LVU262
 760 00f6 C0B2     		uxtb	r0, r0
1358:Drivers/STM32F0xx_HAL_Driver/Src/stm32f0xx_hal_rtc.c ****     Value -= 10U;
 761              		.loc 1 1358 12 view .LVU263
 762 00f8 0133     		adds	r3, r3, #1
 763              	.LVL39:
1359:Drivers/STM32F0xx_HAL_Driver/Src/stm32f0xx_hal_rtc.c ****   }
 764              		.loc 1 1359 5 is_stmt 1 view .LVU264
1356:Drivers/STM32F0xx_HAL_Driver/Src/stm32f0xx_hal_rtc.c ****   {
 765              		.loc 1 1356 8 is_stmt 0 view .LVU265
 766 00fa 0928     		cmp	r0, #9
 767 00fc FAD8     		bhi	.L20
 768 00fe 1B01     		lsls	r3, r3, #4
 769              	.LVL40:
1356:Drivers/STM32F0xx_HAL_Driver/Src/stm32f0xx_hal_rtc.c ****   {
 770              		.loc 1 1356 8 view .LVU266
 771 0100 1843     		orrs	r0, r3
 772              	.LVL41:
1356:Drivers/STM32F0xx_HAL_Driver/Src/stm32f0xx_hal_rtc.c ****   {
 773              		.loc 1 1356 8 view .LVU267
 774 0102 C0B2     		uxtb	r0, r0
 775              	.L19:
1362:Drivers/STM32F0xx_HAL_Driver/Src/stm32f0xx_hal_rtc.c **** }
 776              		.loc 1 1362 3 is_stmt 1 view .LVU268
 777              	.LBE107:
 778              	.LBE108:
 798:Drivers/STM32F0xx_HAL_Driver/Src/stm32f0xx_hal_rtc.c ****               ((uint32_t)(sAlarm->AlarmTime.TimeFormat) << 16U) | \
 779              		.loc 1 798 26 is_stmt 0 view .LVU269
 780 0104 8F78     		ldrb	r7, [r1, #2]
 781              	.LVL42:
 782              	.LBB109:
 783              	.LBI109:
1352:Drivers/STM32F0xx_HAL_Driver/Src/stm32f0xx_hal_rtc.c **** {
 784              		.loc 1 1352 9 is_stmt 1 view .LVU270
1352:Drivers/STM32F0xx_HAL_Driver/Src/stm32f0xx_hal_rtc.c **** {
 785              		.loc 1 1352 9 is_stmt 0 view .LVU271
 786              	.LBE109:
 797:Drivers/STM32F0xx_HAL_Driver/Src/stm32f0xx_hal_rtc.c ****               ((uint32_t)RTC_ByteToBcd2(sAlarm->AlarmTime.Seconds)) | \
 787              		.loc 1 797 68 view .LVU272
 788 0106 0302     		lsls	r3, r0, #8
 789 0108 9946     		mov	r9, r3
 790              	.LBB111:
 791              	.LBB110:
1356:Drivers/STM32F0xx_HAL_Driver/Src/stm32f0xx_hal_rtc.c ****   {
 792              		.loc 1 1356 8 view .LVU273
 793 010a 092F     		cmp	r7, #9
 794 010c 08D9     		bls	.L21
ARM GAS  /var/folders/vr/85797ndx6jd_r3n_lsprlrj40000gn/T//ccWMqnSu.s 			page 43


1354:Drivers/STM32F0xx_HAL_Driver/Src/stm32f0xx_hal_rtc.c ****   
 795              		.loc 1 1354 12 view .LVU274
 796 010e 0023     		movs	r3, #0
 797              	.LVL43:
 798              	.L22:
1358:Drivers/STM32F0xx_HAL_Driver/Src/stm32f0xx_hal_rtc.c ****     Value -= 10U;
 799              		.loc 1 1358 5 is_stmt 1 view .LVU275
1359:Drivers/STM32F0xx_HAL_Driver/Src/stm32f0xx_hal_rtc.c ****   }
 800              		.loc 1 1359 11 is_stmt 0 view .LVU276
 801 0110 0A3F     		subs	r7, r7, #10
 802              	.LVL44:
1359:Drivers/STM32F0xx_HAL_Driver/Src/stm32f0xx_hal_rtc.c ****   }
 803              		.loc 1 1359 11 view .LVU277
 804 0112 FFB2     		uxtb	r7, r7
1358:Drivers/STM32F0xx_HAL_Driver/Src/stm32f0xx_hal_rtc.c ****     Value -= 10U;
 805              		.loc 1 1358 12 view .LVU278
 806 0114 0133     		adds	r3, r3, #1
 807              	.LVL45:
1359:Drivers/STM32F0xx_HAL_Driver/Src/stm32f0xx_hal_rtc.c ****   }
 808              		.loc 1 1359 5 is_stmt 1 view .LVU279
1356:Drivers/STM32F0xx_HAL_Driver/Src/stm32f0xx_hal_rtc.c ****   {
 809              		.loc 1 1356 8 is_stmt 0 view .LVU280
 810 0116 092F     		cmp	r7, #9
 811 0118 FAD8     		bhi	.L22
 812 011a 1B01     		lsls	r3, r3, #4
 813              	.LVL46:
1356:Drivers/STM32F0xx_HAL_Driver/Src/stm32f0xx_hal_rtc.c ****   {
 814              		.loc 1 1356 8 view .LVU281
 815 011c 1F43     		orrs	r7, r3
 816              	.LVL47:
1356:Drivers/STM32F0xx_HAL_Driver/Src/stm32f0xx_hal_rtc.c ****   {
 817              		.loc 1 1356 8 view .LVU282
 818 011e FFB2     		uxtb	r7, r7
 819              	.L21:
1362:Drivers/STM32F0xx_HAL_Driver/Src/stm32f0xx_hal_rtc.c **** }
 820              		.loc 1 1362 3 is_stmt 1 view .LVU283
 821              	.LBE110:
 822              	.LBE111:
 800:Drivers/STM32F0xx_HAL_Driver/Src/stm32f0xx_hal_rtc.c ****               ((uint32_t)sAlarm->AlarmDateWeekDaySel) | \
 823              		.loc 1 800 26 is_stmt 0 view .LVU284
 824 0120 2023     		movs	r3, #32
 825 0122 CB5C     		ldrb	r3, [r1, r3]
 826              	.LVL48:
 827              	.LBB112:
 828              	.LBI112:
1352:Drivers/STM32F0xx_HAL_Driver/Src/stm32f0xx_hal_rtc.c **** {
 829              		.loc 1 1352 9 is_stmt 1 view .LVU285
 830              	.LBB113:
1356:Drivers/STM32F0xx_HAL_Driver/Src/stm32f0xx_hal_rtc.c ****   {
 831              		.loc 1 1356 8 is_stmt 0 view .LVU286
 832 0124 092B     		cmp	r3, #9
 833 0126 07D9     		bls	.L23
 834              	.LVL49:
 835              	.L24:
1358:Drivers/STM32F0xx_HAL_Driver/Src/stm32f0xx_hal_rtc.c ****     Value -= 10U;
 836              		.loc 1 1358 5 is_stmt 1 view .LVU287
1359:Drivers/STM32F0xx_HAL_Driver/Src/stm32f0xx_hal_rtc.c ****   }
ARM GAS  /var/folders/vr/85797ndx6jd_r3n_lsprlrj40000gn/T//ccWMqnSu.s 			page 44


 837              		.loc 1 1359 11 is_stmt 0 view .LVU288
 838 0128 0A3B     		subs	r3, r3, #10
 839              	.LVL50:
1359:Drivers/STM32F0xx_HAL_Driver/Src/stm32f0xx_hal_rtc.c ****   }
 840              		.loc 1 1359 11 view .LVU289
 841 012a DBB2     		uxtb	r3, r3
1358:Drivers/STM32F0xx_HAL_Driver/Src/stm32f0xx_hal_rtc.c ****     Value -= 10U;
 842              		.loc 1 1358 12 view .LVU290
 843 012c 0132     		adds	r2, r2, #1
 844              	.LVL51:
1359:Drivers/STM32F0xx_HAL_Driver/Src/stm32f0xx_hal_rtc.c ****   }
 845              		.loc 1 1359 5 is_stmt 1 view .LVU291
1356:Drivers/STM32F0xx_HAL_Driver/Src/stm32f0xx_hal_rtc.c ****   {
 846              		.loc 1 1356 8 is_stmt 0 view .LVU292
 847 012e 092B     		cmp	r3, #9
 848 0130 FAD8     		bhi	.L24
 849 0132 1201     		lsls	r2, r2, #4
 850              	.LVL52:
1356:Drivers/STM32F0xx_HAL_Driver/Src/stm32f0xx_hal_rtc.c ****   {
 851              		.loc 1 1356 8 view .LVU293
 852 0134 1343     		orrs	r3, r2
 853              	.LVL53:
1356:Drivers/STM32F0xx_HAL_Driver/Src/stm32f0xx_hal_rtc.c ****   {
 854              		.loc 1 1356 8 view .LVU294
 855 0136 DBB2     		uxtb	r3, r3
 856              	.L23:
1362:Drivers/STM32F0xx_HAL_Driver/Src/stm32f0xx_hal_rtc.c **** }
 857              		.loc 1 1362 3 is_stmt 1 view .LVU295
 858              	.LBE113:
 859              	.LBE112:
 796:Drivers/STM32F0xx_HAL_Driver/Src/stm32f0xx_hal_rtc.c ****               ((uint32_t)RTC_ByteToBcd2(sAlarm->AlarmTime.Minutes) << 8U) | \
 860              		.loc 1 796 12 is_stmt 0 view .LVU296
 861 0138 4246     		mov	r2, r8
 862 013a 4869     		ldr	r0, [r1, #20]
 800:Drivers/STM32F0xx_HAL_Driver/Src/stm32f0xx_hal_rtc.c ****               ((uint32_t)sAlarm->AlarmDateWeekDaySel) | \
 863              		.loc 1 800 67 view .LVU297
 864 013c 1B06     		lsls	r3, r3, #24
 796:Drivers/STM32F0xx_HAL_Driver/Src/stm32f0xx_hal_rtc.c ****               ((uint32_t)RTC_ByteToBcd2(sAlarm->AlarmTime.Minutes) << 8U) | \
 865              		.loc 1 796 12 view .LVU298
 866 013e 0243     		orrs	r2, r0
 867 0140 1643     		orrs	r6, r2
 868 0142 6246     		mov	r2, ip
 869 0144 4846     		mov	r0, r9
 870 0146 1643     		orrs	r6, r2
 871 0148 3043     		orrs	r0, r6
 872 014a 3843     		orrs	r0, r7
 873 014c 1843     		orrs	r0, r3
 874 014e 8046     		mov	r8, r0
 875              	.LVL54:
 796:Drivers/STM32F0xx_HAL_Driver/Src/stm32f0xx_hal_rtc.c ****               ((uint32_t)RTC_ByteToBcd2(sAlarm->AlarmTime.Minutes) << 8U) | \
 876              		.loc 1 796 12 view .LVU299
 877 0150 80E7     		b	.L25
 878              	.LVL55:
 879              	.L37:
 860:Drivers/STM32F0xx_HAL_Driver/Src/stm32f0xx_hal_rtc.c **** 
 880              		.loc 1 860 7 is_stmt 1 view .LVU300
 860:Drivers/STM32F0xx_HAL_Driver/Src/stm32f0xx_hal_rtc.c **** 
ARM GAS  /var/folders/vr/85797ndx6jd_r3n_lsprlrj40000gn/T//ccWMqnSu.s 			page 45


 881              		.loc 1 860 7 view .LVU301
 882 0152 FF22     		movs	r2, #255
 883 0154 2B68     		ldr	r3, [r5]
 884              	.LVL56:
 867:Drivers/STM32F0xx_HAL_Driver/Src/stm32f0xx_hal_rtc.c ****     }
 885              		.loc 1 867 14 is_stmt 0 view .LVU302
 886 0156 0320     		movs	r0, #3
 860:Drivers/STM32F0xx_HAL_Driver/Src/stm32f0xx_hal_rtc.c **** 
 887              		.loc 1 860 7 view .LVU303
 888 0158 5A62     		str	r2, [r3, #36]
 862:Drivers/STM32F0xx_HAL_Driver/Src/stm32f0xx_hal_rtc.c **** 
 889              		.loc 1 862 7 is_stmt 1 view .LVU304
 862:Drivers/STM32F0xx_HAL_Driver/Src/stm32f0xx_hal_rtc.c **** 
 890              		.loc 1 862 19 is_stmt 0 view .LVU305
 891 015a 0323     		movs	r3, #3
 865:Drivers/STM32F0xx_HAL_Driver/Src/stm32f0xx_hal_rtc.c ****         
 892              		.loc 1 865 7 view .LVU306
 893 015c 2C77     		strb	r4, [r5, #28]
 862:Drivers/STM32F0xx_HAL_Driver/Src/stm32f0xx_hal_rtc.c **** 
 894              		.loc 1 862 19 view .LVU307
 895 015e 6B77     		strb	r3, [r5, #29]
 865:Drivers/STM32F0xx_HAL_Driver/Src/stm32f0xx_hal_rtc.c ****         
 896              		.loc 1 865 7 is_stmt 1 view .LVU308
 865:Drivers/STM32F0xx_HAL_Driver/Src/stm32f0xx_hal_rtc.c ****         
 897              		.loc 1 865 7 view .LVU309
 867:Drivers/STM32F0xx_HAL_Driver/Src/stm32f0xx_hal_rtc.c ****     }
 898              		.loc 1 867 7 view .LVU310
 867:Drivers/STM32F0xx_HAL_Driver/Src/stm32f0xx_hal_rtc.c ****     }
 899              		.loc 1 867 14 is_stmt 0 view .LVU311
 900 0160 AAE7     		b	.L13
 901              	.LVL57:
 902              	.L26:
 814:Drivers/STM32F0xx_HAL_Driver/Src/stm32f0xx_hal_rtc.c ****       assert_param(IS_RTC_HOUR24(RTC_Bcd2ToByte(sAlarm->AlarmTime.Hours)));
 903              		.loc 1 814 7 is_stmt 1 view .LVU312
 814:Drivers/STM32F0xx_HAL_Driver/Src/stm32f0xx_hal_rtc.c ****       assert_param(IS_RTC_HOUR24(RTC_Bcd2ToByte(sAlarm->AlarmTime.Hours)));
 904              		.loc 1 814 36 is_stmt 0 view .LVU313
 905 0162 CB70     		strb	r3, [r1, #3]
 906 0164 65E7     		b	.L27
 907              	.L15:
 781:Drivers/STM32F0xx_HAL_Driver/Src/stm32f0xx_hal_rtc.c ****       assert_param(IS_RTC_HOUR24(sAlarm->AlarmTime.Hours));
 908              		.loc 1 781 7 is_stmt 1 view .LVU314
 781:Drivers/STM32F0xx_HAL_Driver/Src/stm32f0xx_hal_rtc.c ****       assert_param(IS_RTC_HOUR24(sAlarm->AlarmTime.Hours));
 909              		.loc 1 781 36 is_stmt 0 view .LVU315
 910 0166 CE70     		strb	r6, [r1, #3]
 911 0168 B0E7     		b	.L16
 912              	.L30:
 768:Drivers/STM32F0xx_HAL_Driver/Src/stm32f0xx_hal_rtc.c ****   
 913              		.loc 1 768 3 view .LVU316
 914 016a 0220     		movs	r0, #2
 915              	.LVL58:
 768:Drivers/STM32F0xx_HAL_Driver/Src/stm32f0xx_hal_rtc.c ****   
 916              		.loc 1 768 3 view .LVU317
 917 016c A4E7     		b	.L13
 918              	.L39:
 919 016e C046     		.align	2
 920              	.L38:
 921 0170 FFFEFFFF 		.word	-257
ARM GAS  /var/folders/vr/85797ndx6jd_r3n_lsprlrj40000gn/T//ccWMqnSu.s 			page 46


 922 0174 FFEFFFFF 		.word	-4097
 923              		.cfi_endproc
 924              	.LFE45:
 926              		.section	.text.HAL_RTC_SetAlarm_IT,"ax",%progbits
 927              		.align	1
 928              		.p2align 2,,3
 929              		.global	HAL_RTC_SetAlarm_IT
 930              		.syntax unified
 931              		.code	16
 932              		.thumb_func
 933              		.fpu softvfp
 935              	HAL_RTC_SetAlarm_IT:
 936              	.LVL59:
 937              	.LFB46:
 903:Drivers/STM32F0xx_HAL_Driver/Src/stm32f0xx_hal_rtc.c ****   uint32_t tickstart = 0U;
 938              		.loc 1 903 1 is_stmt 1 view -0
 939              		.cfi_startproc
 940              		@ args = 0, pretend = 0, frame = 0
 941              		@ frame_needed = 0, uses_anonymous_args = 0
 904:Drivers/STM32F0xx_HAL_Driver/Src/stm32f0xx_hal_rtc.c ****   uint32_t tmpreg = 0U, subsecondtmpreg = 0U;
 942              		.loc 1 904 3 view .LVU319
 905:Drivers/STM32F0xx_HAL_Driver/Src/stm32f0xx_hal_rtc.c ****   
 943              		.loc 1 905 3 view .LVU320
 908:Drivers/STM32F0xx_HAL_Driver/Src/stm32f0xx_hal_rtc.c ****   assert_param(IS_RTC_ALARM(sAlarm->Alarm));
 944              		.loc 1 908 3 view .LVU321
 909:Drivers/STM32F0xx_HAL_Driver/Src/stm32f0xx_hal_rtc.c ****   assert_param(IS_RTC_ALARM_MASK(sAlarm->AlarmMask));
 945              		.loc 1 909 3 view .LVU322
 910:Drivers/STM32F0xx_HAL_Driver/Src/stm32f0xx_hal_rtc.c ****   assert_param(IS_RTC_ALARM_DATE_WEEKDAY_SEL(sAlarm->AlarmDateWeekDaySel));
 946              		.loc 1 910 3 view .LVU323
 911:Drivers/STM32F0xx_HAL_Driver/Src/stm32f0xx_hal_rtc.c ****   assert_param(IS_RTC_ALARM_SUB_SECOND_VALUE(sAlarm->AlarmTime.SubSeconds));
 947              		.loc 1 911 3 view .LVU324
 912:Drivers/STM32F0xx_HAL_Driver/Src/stm32f0xx_hal_rtc.c ****   assert_param(IS_RTC_ALARM_SUB_SECOND_MASK(sAlarm->AlarmSubSecondMask));
 948              		.loc 1 912 3 view .LVU325
 913:Drivers/STM32F0xx_HAL_Driver/Src/stm32f0xx_hal_rtc.c ****       
 949              		.loc 1 913 3 view .LVU326
 916:Drivers/STM32F0xx_HAL_Driver/Src/stm32f0xx_hal_rtc.c ****   
 950              		.loc 1 916 3 view .LVU327
 916:Drivers/STM32F0xx_HAL_Driver/Src/stm32f0xx_hal_rtc.c ****   
 951              		.loc 1 916 3 view .LVU328
 903:Drivers/STM32F0xx_HAL_Driver/Src/stm32f0xx_hal_rtc.c ****   uint32_t tickstart = 0U;
 952              		.loc 1 903 1 is_stmt 0 view .LVU329
 953 0000 F8B5     		push	{r3, r4, r5, r6, r7, lr}
 954              	.LCFI4:
 955              		.cfi_def_cfa_offset 24
 956              		.cfi_offset 3, -24
 957              		.cfi_offset 4, -20
 958              		.cfi_offset 5, -16
 959              		.cfi_offset 6, -12
 960              		.cfi_offset 7, -8
 961              		.cfi_offset 14, -4
 962 0002 4546     		mov	r5, r8
 963 0004 DE46     		mov	lr, fp
 964 0006 5746     		mov	r7, r10
 965 0008 4E46     		mov	r6, r9
 966 000a E0B5     		push	{r5, r6, r7, lr}
 967              	.LCFI5:
 968              		.cfi_def_cfa_offset 40
ARM GAS  /var/folders/vr/85797ndx6jd_r3n_lsprlrj40000gn/T//ccWMqnSu.s 			page 47


 969              		.cfi_offset 8, -40
 970              		.cfi_offset 9, -36
 971              		.cfi_offset 10, -32
 972              		.cfi_offset 11, -28
 916:Drivers/STM32F0xx_HAL_Driver/Src/stm32f0xx_hal_rtc.c ****   
 973              		.loc 1 916 3 view .LVU330
 974 000c 037F     		ldrb	r3, [r0, #28]
 903:Drivers/STM32F0xx_HAL_Driver/Src/stm32f0xx_hal_rtc.c ****   uint32_t tickstart = 0U;
 975              		.loc 1 903 1 view .LVU331
 976 000e 0500     		movs	r5, r0
 916:Drivers/STM32F0xx_HAL_Driver/Src/stm32f0xx_hal_rtc.c ****   
 977              		.loc 1 916 3 view .LVU332
 978 0010 012B     		cmp	r3, #1
 979 0012 00D1     		bne	.LCB862
 980 0014 BAE0     		b	.L58	@long jump
 981              	.LCB862:
 916:Drivers/STM32F0xx_HAL_Driver/Src/stm32f0xx_hal_rtc.c ****   
 982              		.loc 1 916 3 is_stmt 1 discriminator 2 view .LVU333
 983 0016 0123     		movs	r3, #1
 984 0018 0468     		ldr	r4, [r0]
 985 001a 0377     		strb	r3, [r0, #28]
 918:Drivers/STM32F0xx_HAL_Driver/Src/stm32f0xx_hal_rtc.c ****   
 986              		.loc 1 918 3 discriminator 2 view .LVU334
 918:Drivers/STM32F0xx_HAL_Driver/Src/stm32f0xx_hal_rtc.c ****   
 987              		.loc 1 918 15 is_stmt 0 discriminator 2 view .LVU335
 988 001c 0133     		adds	r3, r3, #1
 989 001e 4377     		strb	r3, [r0, #29]
 920:Drivers/STM32F0xx_HAL_Driver/Src/stm32f0xx_hal_rtc.c ****   {
 990              		.loc 1 920 3 is_stmt 1 discriminator 2 view .LVU336
 922:Drivers/STM32F0xx_HAL_Driver/Src/stm32f0xx_hal_rtc.c ****     {
 991              		.loc 1 922 23 is_stmt 0 discriminator 2 view .LVU337
 992 0020 A368     		ldr	r3, [r4, #8]
 922:Drivers/STM32F0xx_HAL_Driver/Src/stm32f0xx_hal_rtc.c ****     {
 993              		.loc 1 922 28 discriminator 2 view .LVU338
 994 0022 4026     		movs	r6, #64
 920:Drivers/STM32F0xx_HAL_Driver/Src/stm32f0xx_hal_rtc.c ****   {
 995              		.loc 1 920 5 discriminator 2 view .LVU339
 996 0024 002A     		cmp	r2, #0
 997 0026 5ED0     		beq	.L64
 953:Drivers/STM32F0xx_HAL_Driver/Src/stm32f0xx_hal_rtc.c ****     {
 998              		.loc 1 953 5 is_stmt 1 view .LVU340
 953:Drivers/STM32F0xx_HAL_Driver/Src/stm32f0xx_hal_rtc.c ****     {
 999              		.loc 1 953 28 is_stmt 0 view .LVU341
 1000 0028 3340     		ands	r3, r6
 953:Drivers/STM32F0xx_HAL_Driver/Src/stm32f0xx_hal_rtc.c ****     {
 1001              		.loc 1 953 7 view .LVU342
 1002 002a 00D1     		bne	.LCB878
 1003 002c AAE0     		b	.L54	@long jump
 1004              	.LCB878:
 1005 002e CB78     		ldrb	r3, [r1, #3]
 1006 0030 1B04     		lsls	r3, r3, #16
 1007              	.L55:
 962:Drivers/STM32F0xx_HAL_Driver/Src/stm32f0xx_hal_rtc.c ****     }
 1008              		.loc 1 962 7 is_stmt 1 view .LVU343
 965:Drivers/STM32F0xx_HAL_Driver/Src/stm32f0xx_hal_rtc.c ****     assert_param(IS_RTC_SECONDS(RTC_Bcd2ToByte(sAlarm->AlarmTime.Seconds)));
 1009              		.loc 1 965 5 view .LVU344
 966:Drivers/STM32F0xx_HAL_Driver/Src/stm32f0xx_hal_rtc.c ****     
ARM GAS  /var/folders/vr/85797ndx6jd_r3n_lsprlrj40000gn/T//ccWMqnSu.s 			page 48


 1010              		.loc 1 966 5 view .LVU345
 968:Drivers/STM32F0xx_HAL_Driver/Src/stm32f0xx_hal_rtc.c ****     {
 1011              		.loc 1 968 5 view .LVU346
 975:Drivers/STM32F0xx_HAL_Driver/Src/stm32f0xx_hal_rtc.c ****       assert_param(IS_RTC_ALARM_DATE_WEEKDAY_WEEKDAY(tmpreg));      
 1012              		.loc 1 975 7 view .LVU347
 1013              	.LVL60:
1372:Drivers/STM32F0xx_HAL_Driver/Src/stm32f0xx_hal_rtc.c ****   tmp = ((uint8_t)(Value & (uint8_t)0xF0U) >> (uint8_t)0x4U) * 10U;
 1014              		.loc 1 1372 3 view .LVU348
1373:Drivers/STM32F0xx_HAL_Driver/Src/stm32f0xx_hal_rtc.c ****   return (tmp + (Value & (uint8_t)0x0FU));
 1015              		.loc 1 1373 3 view .LVU349
 1016              		.loc 1 1374 3 view .LVU350
 976:Drivers/STM32F0xx_HAL_Driver/Src/stm32f0xx_hal_rtc.c ****     }
 1017              		.loc 1 976 7 view .LVU351
 978:Drivers/STM32F0xx_HAL_Driver/Src/stm32f0xx_hal_rtc.c ****               ((uint32_t)(sAlarm->AlarmTime.Minutes) << 8U) | \
 1018              		.loc 1 978 5 view .LVU352
 978:Drivers/STM32F0xx_HAL_Driver/Src/stm32f0xx_hal_rtc.c ****               ((uint32_t)(sAlarm->AlarmTime.Minutes) << 8U) | \
 1019              		.loc 1 978 12 is_stmt 0 view .LVU353
 1020 0032 4A69     		ldr	r2, [r1, #20]
 1021              	.LVL61:
 978:Drivers/STM32F0xx_HAL_Driver/Src/stm32f0xx_hal_rtc.c ****               ((uint32_t)(sAlarm->AlarmTime.Minutes) << 8U) | \
 1022              		.loc 1 978 12 view .LVU354
 1023 0034 CE69     		ldr	r6, [r1, #28]
 1024 0036 1643     		orrs	r6, r2
 980:Drivers/STM32F0xx_HAL_Driver/Src/stm32f0xx_hal_rtc.c ****               ((uint32_t)(sAlarm->AlarmTime.TimeFormat) << 16U) | \
 1025              		.loc 1 980 16 view .LVU355
 1026 0038 8A78     		ldrb	r2, [r1, #2]
 978:Drivers/STM32F0xx_HAL_Driver/Src/stm32f0xx_hal_rtc.c ****               ((uint32_t)(sAlarm->AlarmTime.Minutes) << 8U) | \
 1027              		.loc 1 978 12 view .LVU356
 1028 003a 1643     		orrs	r6, r2
 978:Drivers/STM32F0xx_HAL_Driver/Src/stm32f0xx_hal_rtc.c ****               ((uint32_t)(sAlarm->AlarmTime.Minutes) << 8U) | \
 1029              		.loc 1 978 16 view .LVU357
 1030 003c 0A78     		ldrb	r2, [r1]
 978:Drivers/STM32F0xx_HAL_Driver/Src/stm32f0xx_hal_rtc.c ****               ((uint32_t)(sAlarm->AlarmTime.Minutes) << 8U) | \
 1031              		.loc 1 978 52 view .LVU358
 1032 003e 1204     		lsls	r2, r2, #16
 978:Drivers/STM32F0xx_HAL_Driver/Src/stm32f0xx_hal_rtc.c ****               ((uint32_t)(sAlarm->AlarmTime.Minutes) << 8U) | \
 1033              		.loc 1 978 12 view .LVU359
 1034 0040 1643     		orrs	r6, r2
 979:Drivers/STM32F0xx_HAL_Driver/Src/stm32f0xx_hal_rtc.c ****               ((uint32_t) sAlarm->AlarmTime.Seconds) | \
 1035              		.loc 1 979 16 view .LVU360
 1036 0042 4A78     		ldrb	r2, [r1, #1]
 979:Drivers/STM32F0xx_HAL_Driver/Src/stm32f0xx_hal_rtc.c ****               ((uint32_t) sAlarm->AlarmTime.Seconds) | \
 1037              		.loc 1 979 54 view .LVU361
 1038 0044 1202     		lsls	r2, r2, #8
 978:Drivers/STM32F0xx_HAL_Driver/Src/stm32f0xx_hal_rtc.c ****               ((uint32_t)(sAlarm->AlarmTime.Minutes) << 8U) | \
 1039              		.loc 1 978 12 view .LVU362
 1040 0046 1643     		orrs	r6, r2
 982:Drivers/STM32F0xx_HAL_Driver/Src/stm32f0xx_hal_rtc.c ****               ((uint32_t)sAlarm->AlarmDateWeekDaySel) | \
 1041              		.loc 1 982 33 view .LVU363
 1042 0048 2022     		movs	r2, #32
 982:Drivers/STM32F0xx_HAL_Driver/Src/stm32f0xx_hal_rtc.c ****               ((uint32_t)sAlarm->AlarmDateWeekDaySel) | \
 1043              		.loc 1 982 16 view .LVU364
 1044 004a 8A5C     		ldrb	r2, [r1, r2]
 982:Drivers/STM32F0xx_HAL_Driver/Src/stm32f0xx_hal_rtc.c ****               ((uint32_t)sAlarm->AlarmDateWeekDaySel) | \
 1045              		.loc 1 982 53 view .LVU365
 1046 004c 1206     		lsls	r2, r2, #24
 978:Drivers/STM32F0xx_HAL_Driver/Src/stm32f0xx_hal_rtc.c ****               ((uint32_t)(sAlarm->AlarmTime.Minutes) << 8U) | \
ARM GAS  /var/folders/vr/85797ndx6jd_r3n_lsprlrj40000gn/T//ccWMqnSu.s 			page 49


 1047              		.loc 1 978 12 view .LVU366
 1048 004e 1643     		orrs	r6, r2
 1049 0050 1E43     		orrs	r6, r3
 1050 0052 B046     		mov	r8, r6
 1051              	.LVL62:
 1052              	.L53:
 987:Drivers/STM32F0xx_HAL_Driver/Src/stm32f0xx_hal_rtc.c ****   
 1053              		.loc 1 987 3 is_stmt 1 view .LVU367
 987:Drivers/STM32F0xx_HAL_Driver/Src/stm32f0xx_hal_rtc.c ****   
 1054              		.loc 1 987 60 is_stmt 0 view .LVU368
 1055 0054 4B68     		ldr	r3, [r1, #4]
 993:Drivers/STM32F0xx_HAL_Driver/Src/stm32f0xx_hal_rtc.c **** 
 1056              		.loc 1 993 3 view .LVU369
 1057 0056 4E4A     		ldr	r2, .L66
 987:Drivers/STM32F0xx_HAL_Driver/Src/stm32f0xx_hal_rtc.c ****   
 1058              		.loc 1 987 60 view .LVU370
 1059 0058 9A46     		mov	r10, r3
 987:Drivers/STM32F0xx_HAL_Driver/Src/stm32f0xx_hal_rtc.c ****   
 1060              		.loc 1 987 92 view .LVU371
 1061 005a 8B69     		ldr	r3, [r1, #24]
1003:Drivers/STM32F0xx_HAL_Driver/Src/stm32f0xx_hal_rtc.c ****     {
 1062              		.loc 1 1003 7 view .LVU372
 1063 005c FA26     		movs	r6, #250
 987:Drivers/STM32F0xx_HAL_Driver/Src/stm32f0xx_hal_rtc.c ****   
 1064              		.loc 1 987 92 view .LVU373
 1065 005e 9B46     		mov	fp, r3
 1066              	.LVL63:
 990:Drivers/STM32F0xx_HAL_Driver/Src/stm32f0xx_hal_rtc.c ****   
 1067              		.loc 1 990 3 is_stmt 1 view .LVU374
 990:Drivers/STM32F0xx_HAL_Driver/Src/stm32f0xx_hal_rtc.c ****   
 1068              		.loc 1 990 3 view .LVU375
 1069 0060 CA23     		movs	r3, #202
 1070              	.LVL64:
 990:Drivers/STM32F0xx_HAL_Driver/Src/stm32f0xx_hal_rtc.c ****   
 1071              		.loc 1 990 3 is_stmt 0 view .LVU376
 1072 0062 6362     		str	r3, [r4, #36]
 990:Drivers/STM32F0xx_HAL_Driver/Src/stm32f0xx_hal_rtc.c ****   
 1073              		.loc 1 990 3 is_stmt 1 view .LVU377
 1074 0064 773B     		subs	r3, r3, #119
 1075 0066 6362     		str	r3, [r4, #36]
 993:Drivers/STM32F0xx_HAL_Driver/Src/stm32f0xx_hal_rtc.c **** 
 1076              		.loc 1 993 3 view .LVU378
 1077 0068 A368     		ldr	r3, [r4, #8]
1001:Drivers/STM32F0xx_HAL_Driver/Src/stm32f0xx_hal_rtc.c ****   {
 1078              		.loc 1 1001 9 is_stmt 0 view .LVU379
 1079 006a 0127     		movs	r7, #1
 993:Drivers/STM32F0xx_HAL_Driver/Src/stm32f0xx_hal_rtc.c **** 
 1080              		.loc 1 993 3 view .LVU380
 1081 006c 1340     		ands	r3, r2
 1082 006e A360     		str	r3, [r4, #8]
 996:Drivers/STM32F0xx_HAL_Driver/Src/stm32f0xx_hal_rtc.c **** 
 1083              		.loc 1 996 3 is_stmt 1 view .LVU381
 1084 0070 FF23     		movs	r3, #255
 1085 0072 E268     		ldr	r2, [r4, #12]
1003:Drivers/STM32F0xx_HAL_Driver/Src/stm32f0xx_hal_rtc.c ****     {
 1086              		.loc 1 1003 7 is_stmt 0 view .LVU382
 1087 0074 B600     		lsls	r6, r6, #2
ARM GAS  /var/folders/vr/85797ndx6jd_r3n_lsprlrj40000gn/T//ccWMqnSu.s 			page 50


 996:Drivers/STM32F0xx_HAL_Driver/Src/stm32f0xx_hal_rtc.c **** 
 1088              		.loc 1 996 3 view .LVU383
 1089 0076 1A40     		ands	r2, r3
 1090 0078 464B     		ldr	r3, .L66+4
 1091 007a 1343     		orrs	r3, r2
 1092 007c E360     		str	r3, [r4, #12]
 998:Drivers/STM32F0xx_HAL_Driver/Src/stm32f0xx_hal_rtc.c ****   
 1093              		.loc 1 998 3 is_stmt 1 view .LVU384
 998:Drivers/STM32F0xx_HAL_Driver/Src/stm32f0xx_hal_rtc.c ****   
 1094              		.loc 1 998 15 is_stmt 0 view .LVU385
 1095 007e FFF7FEFF 		bl	HAL_GetTick
 1096              	.LVL65:
 998:Drivers/STM32F0xx_HAL_Driver/Src/stm32f0xx_hal_rtc.c ****   
 1097              		.loc 1 998 15 view .LVU386
 1098 0082 8146     		mov	r9, r0
 1099              	.LVL66:
1001:Drivers/STM32F0xx_HAL_Driver/Src/stm32f0xx_hal_rtc.c ****   {
 1100              		.loc 1 1001 3 is_stmt 1 view .LVU387
1001:Drivers/STM32F0xx_HAL_Driver/Src/stm32f0xx_hal_rtc.c ****   {
 1101              		.loc 1 1001 8 is_stmt 0 view .LVU388
 1102 0084 06E0     		b	.L56
 1103              	.LVL67:
 1104              	.L57:
1003:Drivers/STM32F0xx_HAL_Driver/Src/stm32f0xx_hal_rtc.c ****     {
 1105              		.loc 1 1003 5 is_stmt 1 view .LVU389
1003:Drivers/STM32F0xx_HAL_Driver/Src/stm32f0xx_hal_rtc.c ****     {
 1106              		.loc 1 1003 9 is_stmt 0 view .LVU390
 1107 0086 FFF7FEFF 		bl	HAL_GetTick
 1108              	.LVL68:
1003:Drivers/STM32F0xx_HAL_Driver/Src/stm32f0xx_hal_rtc.c ****     {
 1109              		.loc 1 1003 22 view .LVU391
 1110 008a 4B46     		mov	r3, r9
 1111 008c C01A     		subs	r0, r0, r3
1003:Drivers/STM32F0xx_HAL_Driver/Src/stm32f0xx_hal_rtc.c ****     {
 1112              		.loc 1 1003 7 view .LVU392
 1113 008e B042     		cmp	r0, r6
 1114 0090 00D9     		bls	.LCB973
 1115 0092 6FE0     		b	.L65	@long jump
 1116              	.LCB973:
 1117              	.L56:
1001:Drivers/STM32F0xx_HAL_Driver/Src/stm32f0xx_hal_rtc.c ****   {
 1118              		.loc 1 1001 9 view .LVU393
 1119 0094 2B68     		ldr	r3, [r5]
 1120 0096 DC68     		ldr	r4, [r3, #12]
 1121 0098 3C40     		ands	r4, r7
1001:Drivers/STM32F0xx_HAL_Driver/Src/stm32f0xx_hal_rtc.c ****   {
 1122              		.loc 1 1001 8 view .LVU394
 1123 009a F4D0     		beq	.L57
1017:Drivers/STM32F0xx_HAL_Driver/Src/stm32f0xx_hal_rtc.c ****   /* Configure the Alarm A Sub Second register */
 1124              		.loc 1 1017 3 is_stmt 1 view .LVU395
1017:Drivers/STM32F0xx_HAL_Driver/Src/stm32f0xx_hal_rtc.c ****   /* Configure the Alarm A Sub Second register */
 1125              		.loc 1 1017 26 is_stmt 0 view .LVU396
 1126 009c 4246     		mov	r2, r8
 987:Drivers/STM32F0xx_HAL_Driver/Src/stm32f0xx_hal_rtc.c ****   
 1127              		.loc 1 987 19 view .LVU397
 1128 009e 5946     		mov	r1, fp
1017:Drivers/STM32F0xx_HAL_Driver/Src/stm32f0xx_hal_rtc.c ****   /* Configure the Alarm A Sub Second register */
ARM GAS  /var/folders/vr/85797ndx6jd_r3n_lsprlrj40000gn/T//ccWMqnSu.s 			page 51


 1129              		.loc 1 1017 26 view .LVU398
 1130 00a0 DA61     		str	r2, [r3, #28]
1019:Drivers/STM32F0xx_HAL_Driver/Src/stm32f0xx_hal_rtc.c ****   /* Configure the Alarm state: Enable Alarm */
 1131              		.loc 1 1019 3 is_stmt 1 view .LVU399
 987:Drivers/STM32F0xx_HAL_Driver/Src/stm32f0xx_hal_rtc.c ****   
 1132              		.loc 1 987 19 is_stmt 0 view .LVU400
 1133 00a2 5246     		mov	r2, r10
 1134 00a4 0A43     		orrs	r2, r1
1019:Drivers/STM32F0xx_HAL_Driver/Src/stm32f0xx_hal_rtc.c ****   /* Configure the Alarm state: Enable Alarm */
 1135              		.loc 1 1019 28 view .LVU401
 1136 00a6 5A64     		str	r2, [r3, #68]
1021:Drivers/STM32F0xx_HAL_Driver/Src/stm32f0xx_hal_rtc.c ****   /* Configure the Alarm interrupt */
 1137              		.loc 1 1021 3 is_stmt 1 view .LVU402
 1138 00a8 8022     		movs	r2, #128
 1139 00aa 9968     		ldr	r1, [r3, #8]
 1140 00ac 5200     		lsls	r2, r2, #1
 1141 00ae 0A43     		orrs	r2, r1
 1142 00b0 9A60     		str	r2, [r3, #8]
1023:Drivers/STM32F0xx_HAL_Driver/Src/stm32f0xx_hal_rtc.c **** 
 1143              		.loc 1 1023 3 view .LVU403
 1144 00b2 8022     		movs	r2, #128
 1145 00b4 9968     		ldr	r1, [r3, #8]
 1146 00b6 5201     		lsls	r2, r2, #5
 1147 00b8 0A43     		orrs	r2, r1
1026:Drivers/STM32F0xx_HAL_Driver/Src/stm32f0xx_hal_rtc.c ****   
 1148              		.loc 1 1026 3 is_stmt 0 view .LVU404
 1149 00ba 8021     		movs	r1, #128
1023:Drivers/STM32F0xx_HAL_Driver/Src/stm32f0xx_hal_rtc.c **** 
 1150              		.loc 1 1023 3 view .LVU405
 1151 00bc 9A60     		str	r2, [r3, #8]
1026:Drivers/STM32F0xx_HAL_Driver/Src/stm32f0xx_hal_rtc.c ****   
 1152              		.loc 1 1026 3 is_stmt 1 view .LVU406
 1153 00be 364A     		ldr	r2, .L66+8
 1154 00c0 8902     		lsls	r1, r1, #10
 1155 00c2 1068     		ldr	r0, [r2]
 1156 00c4 0843     		orrs	r0, r1
 1157 00c6 1060     		str	r0, [r2]
1028:Drivers/STM32F0xx_HAL_Driver/Src/stm32f0xx_hal_rtc.c ****   
 1158              		.loc 1 1028 3 view .LVU407
 1159 00c8 9068     		ldr	r0, [r2, #8]
 1160 00ca 0143     		orrs	r1, r0
 1161 00cc 9160     		str	r1, [r2, #8]
1031:Drivers/STM32F0xx_HAL_Driver/Src/stm32f0xx_hal_rtc.c ****   
 1162              		.loc 1 1031 3 view .LVU408
1031:Drivers/STM32F0xx_HAL_Driver/Src/stm32f0xx_hal_rtc.c ****   
 1163              		.loc 1 1031 3 view .LVU409
 1164 00ce FF22     		movs	r2, #255
 1165 00d0 5A62     		str	r2, [r3, #36]
1033:Drivers/STM32F0xx_HAL_Driver/Src/stm32f0xx_hal_rtc.c ****   
 1166              		.loc 1 1033 3 view .LVU410
1036:Drivers/STM32F0xx_HAL_Driver/Src/stm32f0xx_hal_rtc.c ****   
 1167              		.loc 1 1036 3 is_stmt 0 view .LVU411
 1168 00d2 0023     		movs	r3, #0
1038:Drivers/STM32F0xx_HAL_Driver/Src/stm32f0xx_hal_rtc.c **** }
 1169              		.loc 1 1038 10 view .LVU412
 1170 00d4 0020     		movs	r0, #0
1033:Drivers/STM32F0xx_HAL_Driver/Src/stm32f0xx_hal_rtc.c ****   
ARM GAS  /var/folders/vr/85797ndx6jd_r3n_lsprlrj40000gn/T//ccWMqnSu.s 			page 52


 1171              		.loc 1 1033 15 view .LVU413
 1172 00d6 6F77     		strb	r7, [r5, #29]
1036:Drivers/STM32F0xx_HAL_Driver/Src/stm32f0xx_hal_rtc.c ****   
 1173              		.loc 1 1036 3 is_stmt 1 view .LVU414
1036:Drivers/STM32F0xx_HAL_Driver/Src/stm32f0xx_hal_rtc.c ****   
 1174              		.loc 1 1036 3 view .LVU415
 1175 00d8 2B77     		strb	r3, [r5, #28]
1038:Drivers/STM32F0xx_HAL_Driver/Src/stm32f0xx_hal_rtc.c **** }
 1176              		.loc 1 1038 3 view .LVU416
 1177              	.LVL69:
 1178              	.L41:
1039:Drivers/STM32F0xx_HAL_Driver/Src/stm32f0xx_hal_rtc.c **** 
 1179              		.loc 1 1039 1 is_stmt 0 view .LVU417
 1180              		@ sp needed
 1181              	.LVL70:
1039:Drivers/STM32F0xx_HAL_Driver/Src/stm32f0xx_hal_rtc.c **** 
 1182              		.loc 1 1039 1 view .LVU418
 1183 00da 3CBC     		pop	{r2, r3, r4, r5}
 1184 00dc 9046     		mov	r8, r2
 1185 00de 9946     		mov	r9, r3
 1186 00e0 A246     		mov	r10, r4
 1187 00e2 AB46     		mov	fp, r5
 1188 00e4 F8BD     		pop	{r3, r4, r5, r6, r7, pc}
 1189              	.LVL71:
 1190              	.L64:
 922:Drivers/STM32F0xx_HAL_Driver/Src/stm32f0xx_hal_rtc.c ****     {
 1191              		.loc 1 922 5 is_stmt 1 view .LVU419
 922:Drivers/STM32F0xx_HAL_Driver/Src/stm32f0xx_hal_rtc.c ****     {
 1192              		.loc 1 922 28 is_stmt 0 view .LVU420
 1193 00e6 1E40     		ands	r6, r3
 922:Drivers/STM32F0xx_HAL_Driver/Src/stm32f0xx_hal_rtc.c ****     {
 1194              		.loc 1 922 7 view .LVU421
 1195 00e8 4ED0     		beq	.L43
 1196 00ea CE78     		ldrb	r6, [r1, #3]
 1197 00ec 3604     		lsls	r6, r6, #16
 1198              	.L44:
 930:Drivers/STM32F0xx_HAL_Driver/Src/stm32f0xx_hal_rtc.c ****     }
 1199              		.loc 1 930 7 is_stmt 1 view .LVU422
 932:Drivers/STM32F0xx_HAL_Driver/Src/stm32f0xx_hal_rtc.c ****     assert_param(IS_RTC_SECONDS(sAlarm->AlarmTime.Seconds));
 1200              		.loc 1 932 5 view .LVU423
 933:Drivers/STM32F0xx_HAL_Driver/Src/stm32f0xx_hal_rtc.c ****     
 1201              		.loc 1 933 5 view .LVU424
 935:Drivers/STM32F0xx_HAL_Driver/Src/stm32f0xx_hal_rtc.c ****     {
 1202              		.loc 1 935 5 view .LVU425
 935:Drivers/STM32F0xx_HAL_Driver/Src/stm32f0xx_hal_rtc.c ****     {
 1203              		.loc 1 935 14 is_stmt 0 view .LVU426
 1204 00ee CB69     		ldr	r3, [r1, #28]
 943:Drivers/STM32F0xx_HAL_Driver/Src/stm32f0xx_hal_rtc.c ****               ((uint32_t)RTC_ByteToBcd2(sAlarm->AlarmTime.Minutes) << 8U) | \
 1205              		.loc 1 943 26 view .LVU427
 1206 00f0 0878     		ldrb	r0, [r1]
 1207              	.LVL72:
 935:Drivers/STM32F0xx_HAL_Driver/Src/stm32f0xx_hal_rtc.c ****     {
 1208              		.loc 1 935 14 view .LVU428
 1209 00f2 9846     		mov	r8, r3
 941:Drivers/STM32F0xx_HAL_Driver/Src/stm32f0xx_hal_rtc.c ****     }
 1210              		.loc 1 941 7 is_stmt 1 view .LVU429
 943:Drivers/STM32F0xx_HAL_Driver/Src/stm32f0xx_hal_rtc.c ****               ((uint32_t)RTC_ByteToBcd2(sAlarm->AlarmTime.Minutes) << 8U) | \
ARM GAS  /var/folders/vr/85797ndx6jd_r3n_lsprlrj40000gn/T//ccWMqnSu.s 			page 53


 1211              		.loc 1 943 5 view .LVU430
 1212              	.LVL73:
 1213              	.LBB114:
 1214              	.LBI114:
1352:Drivers/STM32F0xx_HAL_Driver/Src/stm32f0xx_hal_rtc.c **** {
 1215              		.loc 1 1352 9 view .LVU431
 1216              	.LBB115:
1354:Drivers/STM32F0xx_HAL_Driver/Src/stm32f0xx_hal_rtc.c ****   
 1217              		.loc 1 1354 3 view .LVU432
1356:Drivers/STM32F0xx_HAL_Driver/Src/stm32f0xx_hal_rtc.c ****   {
 1218              		.loc 1 1356 3 view .LVU433
1356:Drivers/STM32F0xx_HAL_Driver/Src/stm32f0xx_hal_rtc.c ****   {
 1219              		.loc 1 1356 8 is_stmt 0 view .LVU434
 1220 00f4 0928     		cmp	r0, #9
 1221 00f6 08D9     		bls	.L45
1354:Drivers/STM32F0xx_HAL_Driver/Src/stm32f0xx_hal_rtc.c ****   
 1222              		.loc 1 1354 12 view .LVU435
 1223 00f8 0023     		movs	r3, #0
 1224              	.LVL74:
 1225              	.L46:
1358:Drivers/STM32F0xx_HAL_Driver/Src/stm32f0xx_hal_rtc.c ****     Value -= 10U;
 1226              		.loc 1 1358 5 is_stmt 1 view .LVU436
1359:Drivers/STM32F0xx_HAL_Driver/Src/stm32f0xx_hal_rtc.c ****   }
 1227              		.loc 1 1359 11 is_stmt 0 view .LVU437
 1228 00fa 0A38     		subs	r0, r0, #10
 1229              	.LVL75:
1359:Drivers/STM32F0xx_HAL_Driver/Src/stm32f0xx_hal_rtc.c ****   }
 1230              		.loc 1 1359 11 view .LVU438
 1231 00fc C0B2     		uxtb	r0, r0
1358:Drivers/STM32F0xx_HAL_Driver/Src/stm32f0xx_hal_rtc.c ****     Value -= 10U;
 1232              		.loc 1 1358 12 view .LVU439
 1233 00fe 0133     		adds	r3, r3, #1
 1234              	.LVL76:
1359:Drivers/STM32F0xx_HAL_Driver/Src/stm32f0xx_hal_rtc.c ****   }
 1235              		.loc 1 1359 5 is_stmt 1 view .LVU440
1356:Drivers/STM32F0xx_HAL_Driver/Src/stm32f0xx_hal_rtc.c ****   {
 1236              		.loc 1 1356 8 is_stmt 0 view .LVU441
 1237 0100 0928     		cmp	r0, #9
 1238 0102 FAD8     		bhi	.L46
 1239 0104 1B01     		lsls	r3, r3, #4
 1240              	.LVL77:
1356:Drivers/STM32F0xx_HAL_Driver/Src/stm32f0xx_hal_rtc.c ****   {
 1241              		.loc 1 1356 8 view .LVU442
 1242 0106 1843     		orrs	r0, r3
 1243              	.LVL78:
1356:Drivers/STM32F0xx_HAL_Driver/Src/stm32f0xx_hal_rtc.c ****   {
 1244              		.loc 1 1356 8 view .LVU443
 1245 0108 C0B2     		uxtb	r0, r0
 1246              	.L45:
1362:Drivers/STM32F0xx_HAL_Driver/Src/stm32f0xx_hal_rtc.c **** }
 1247              		.loc 1 1362 3 is_stmt 1 view .LVU444
 1248              	.LBE115:
 1249              	.LBE114:
 943:Drivers/STM32F0xx_HAL_Driver/Src/stm32f0xx_hal_rtc.c ****               ((uint32_t)RTC_ByteToBcd2(sAlarm->AlarmTime.Minutes) << 8U) | \
 1250              		.loc 1 943 66 is_stmt 0 view .LVU445
 1251 010a 0304     		lsls	r3, r0, #16
 944:Drivers/STM32F0xx_HAL_Driver/Src/stm32f0xx_hal_rtc.c ****               ((uint32_t)RTC_ByteToBcd2(sAlarm->AlarmTime.Seconds)) | \
ARM GAS  /var/folders/vr/85797ndx6jd_r3n_lsprlrj40000gn/T//ccWMqnSu.s 			page 54


 1252              		.loc 1 944 26 view .LVU446
 1253 010c 4878     		ldrb	r0, [r1, #1]
 1254              	.LVL79:
 1255              	.LBB116:
 1256              	.LBI116:
1352:Drivers/STM32F0xx_HAL_Driver/Src/stm32f0xx_hal_rtc.c **** {
 1257              		.loc 1 1352 9 is_stmt 1 view .LVU447
1352:Drivers/STM32F0xx_HAL_Driver/Src/stm32f0xx_hal_rtc.c **** {
 1258              		.loc 1 1352 9 is_stmt 0 view .LVU448
 1259              	.LBE116:
 943:Drivers/STM32F0xx_HAL_Driver/Src/stm32f0xx_hal_rtc.c ****               ((uint32_t)RTC_ByteToBcd2(sAlarm->AlarmTime.Minutes) << 8U) | \
 1260              		.loc 1 943 66 view .LVU449
 1261 010e 9C46     		mov	ip, r3
 1262              	.LBB118:
 1263              	.LBB117:
1356:Drivers/STM32F0xx_HAL_Driver/Src/stm32f0xx_hal_rtc.c ****   {
 1264              		.loc 1 1356 8 view .LVU450
 1265 0110 0928     		cmp	r0, #9
 1266 0112 08D9     		bls	.L47
1354:Drivers/STM32F0xx_HAL_Driver/Src/stm32f0xx_hal_rtc.c ****   
 1267              		.loc 1 1354 12 view .LVU451
 1268 0114 0023     		movs	r3, #0
 1269              	.LVL80:
 1270              	.L48:
1358:Drivers/STM32F0xx_HAL_Driver/Src/stm32f0xx_hal_rtc.c ****     Value -= 10U;
 1271              		.loc 1 1358 5 is_stmt 1 view .LVU452
1359:Drivers/STM32F0xx_HAL_Driver/Src/stm32f0xx_hal_rtc.c ****   }
 1272              		.loc 1 1359 11 is_stmt 0 view .LVU453
 1273 0116 0A38     		subs	r0, r0, #10
 1274              	.LVL81:
1359:Drivers/STM32F0xx_HAL_Driver/Src/stm32f0xx_hal_rtc.c ****   }
 1275              		.loc 1 1359 11 view .LVU454
 1276 0118 C0B2     		uxtb	r0, r0
1358:Drivers/STM32F0xx_HAL_Driver/Src/stm32f0xx_hal_rtc.c ****     Value -= 10U;
 1277              		.loc 1 1358 12 view .LVU455
 1278 011a 0133     		adds	r3, r3, #1
 1279              	.LVL82:
1359:Drivers/STM32F0xx_HAL_Driver/Src/stm32f0xx_hal_rtc.c ****   }
 1280              		.loc 1 1359 5 is_stmt 1 view .LVU456
1356:Drivers/STM32F0xx_HAL_Driver/Src/stm32f0xx_hal_rtc.c ****   {
 1281              		.loc 1 1356 8 is_stmt 0 view .LVU457
 1282 011c 0928     		cmp	r0, #9
 1283 011e FAD8     		bhi	.L48
 1284 0120 1B01     		lsls	r3, r3, #4
 1285              	.LVL83:
1356:Drivers/STM32F0xx_HAL_Driver/Src/stm32f0xx_hal_rtc.c ****   {
 1286              		.loc 1 1356 8 view .LVU458
 1287 0122 1843     		orrs	r0, r3
 1288              	.LVL84:
1356:Drivers/STM32F0xx_HAL_Driver/Src/stm32f0xx_hal_rtc.c ****   {
 1289              		.loc 1 1356 8 view .LVU459
 1290 0124 C0B2     		uxtb	r0, r0
 1291              	.L47:
1362:Drivers/STM32F0xx_HAL_Driver/Src/stm32f0xx_hal_rtc.c **** }
 1292              		.loc 1 1362 3 is_stmt 1 view .LVU460
 1293              	.LBE117:
 1294              	.LBE118:
ARM GAS  /var/folders/vr/85797ndx6jd_r3n_lsprlrj40000gn/T//ccWMqnSu.s 			page 55


 945:Drivers/STM32F0xx_HAL_Driver/Src/stm32f0xx_hal_rtc.c ****               ((uint32_t)(sAlarm->AlarmTime.TimeFormat) << 16U) | \
 1295              		.loc 1 945 26 is_stmt 0 view .LVU461
 1296 0126 8F78     		ldrb	r7, [r1, #2]
 1297              	.LVL85:
 1298              	.LBB119:
 1299              	.LBI119:
1352:Drivers/STM32F0xx_HAL_Driver/Src/stm32f0xx_hal_rtc.c **** {
 1300              		.loc 1 1352 9 is_stmt 1 view .LVU462
1352:Drivers/STM32F0xx_HAL_Driver/Src/stm32f0xx_hal_rtc.c **** {
 1301              		.loc 1 1352 9 is_stmt 0 view .LVU463
 1302              	.LBE119:
 944:Drivers/STM32F0xx_HAL_Driver/Src/stm32f0xx_hal_rtc.c ****               ((uint32_t)RTC_ByteToBcd2(sAlarm->AlarmTime.Seconds)) | \
 1303              		.loc 1 944 68 view .LVU464
 1304 0128 0302     		lsls	r3, r0, #8
 1305 012a 9946     		mov	r9, r3
 1306              	.LBB121:
 1307              	.LBB120:
1356:Drivers/STM32F0xx_HAL_Driver/Src/stm32f0xx_hal_rtc.c ****   {
 1308              		.loc 1 1356 8 view .LVU465
 1309 012c 092F     		cmp	r7, #9
 1310 012e 08D9     		bls	.L49
1354:Drivers/STM32F0xx_HAL_Driver/Src/stm32f0xx_hal_rtc.c ****   
 1311              		.loc 1 1354 12 view .LVU466
 1312 0130 0023     		movs	r3, #0
 1313              	.LVL86:
 1314              	.L50:
1358:Drivers/STM32F0xx_HAL_Driver/Src/stm32f0xx_hal_rtc.c ****     Value -= 10U;
 1315              		.loc 1 1358 5 is_stmt 1 view .LVU467
1359:Drivers/STM32F0xx_HAL_Driver/Src/stm32f0xx_hal_rtc.c ****   }
 1316              		.loc 1 1359 11 is_stmt 0 view .LVU468
 1317 0132 0A3F     		subs	r7, r7, #10
 1318              	.LVL87:
1359:Drivers/STM32F0xx_HAL_Driver/Src/stm32f0xx_hal_rtc.c ****   }
 1319              		.loc 1 1359 11 view .LVU469
 1320 0134 FFB2     		uxtb	r7, r7
1358:Drivers/STM32F0xx_HAL_Driver/Src/stm32f0xx_hal_rtc.c ****     Value -= 10U;
 1321              		.loc 1 1358 12 view .LVU470
 1322 0136 0133     		adds	r3, r3, #1
 1323              	.LVL88:
1359:Drivers/STM32F0xx_HAL_Driver/Src/stm32f0xx_hal_rtc.c ****   }
 1324              		.loc 1 1359 5 is_stmt 1 view .LVU471
1356:Drivers/STM32F0xx_HAL_Driver/Src/stm32f0xx_hal_rtc.c ****   {
 1325              		.loc 1 1356 8 is_stmt 0 view .LVU472
 1326 0138 092F     		cmp	r7, #9
 1327 013a FAD8     		bhi	.L50
 1328 013c 1B01     		lsls	r3, r3, #4
 1329              	.LVL89:
1356:Drivers/STM32F0xx_HAL_Driver/Src/stm32f0xx_hal_rtc.c ****   {
 1330              		.loc 1 1356 8 view .LVU473
 1331 013e 1F43     		orrs	r7, r3
 1332              	.LVL90:
1356:Drivers/STM32F0xx_HAL_Driver/Src/stm32f0xx_hal_rtc.c ****   {
 1333              		.loc 1 1356 8 view .LVU474
 1334 0140 FFB2     		uxtb	r7, r7
 1335              	.L49:
1362:Drivers/STM32F0xx_HAL_Driver/Src/stm32f0xx_hal_rtc.c **** }
 1336              		.loc 1 1362 3 is_stmt 1 view .LVU475
ARM GAS  /var/folders/vr/85797ndx6jd_r3n_lsprlrj40000gn/T//ccWMqnSu.s 			page 56


 1337              	.LBE120:
 1338              	.LBE121:
 947:Drivers/STM32F0xx_HAL_Driver/Src/stm32f0xx_hal_rtc.c ****               ((uint32_t)sAlarm->AlarmDateWeekDaySel) | \
 1339              		.loc 1 947 26 is_stmt 0 view .LVU476
 1340 0142 2023     		movs	r3, #32
 1341 0144 CB5C     		ldrb	r3, [r1, r3]
 1342              	.LVL91:
 1343              	.LBB122:
 1344              	.LBI122:
1352:Drivers/STM32F0xx_HAL_Driver/Src/stm32f0xx_hal_rtc.c **** {
 1345              		.loc 1 1352 9 is_stmt 1 view .LVU477
 1346              	.LBB123:
1356:Drivers/STM32F0xx_HAL_Driver/Src/stm32f0xx_hal_rtc.c ****   {
 1347              		.loc 1 1356 8 is_stmt 0 view .LVU478
 1348 0146 092B     		cmp	r3, #9
 1349 0148 07D9     		bls	.L51
 1350              	.LVL92:
 1351              	.L52:
1358:Drivers/STM32F0xx_HAL_Driver/Src/stm32f0xx_hal_rtc.c ****     Value -= 10U;
 1352              		.loc 1 1358 5 is_stmt 1 view .LVU479
1359:Drivers/STM32F0xx_HAL_Driver/Src/stm32f0xx_hal_rtc.c ****   }
 1353              		.loc 1 1359 11 is_stmt 0 view .LVU480
 1354 014a 0A3B     		subs	r3, r3, #10
 1355              	.LVL93:
1359:Drivers/STM32F0xx_HAL_Driver/Src/stm32f0xx_hal_rtc.c ****   }
 1356              		.loc 1 1359 11 view .LVU481
 1357 014c DBB2     		uxtb	r3, r3
1358:Drivers/STM32F0xx_HAL_Driver/Src/stm32f0xx_hal_rtc.c ****     Value -= 10U;
 1358              		.loc 1 1358 12 view .LVU482
 1359 014e 0132     		adds	r2, r2, #1
 1360              	.LVL94:
1359:Drivers/STM32F0xx_HAL_Driver/Src/stm32f0xx_hal_rtc.c ****   }
 1361              		.loc 1 1359 5 is_stmt 1 view .LVU483
1356:Drivers/STM32F0xx_HAL_Driver/Src/stm32f0xx_hal_rtc.c ****   {
 1362              		.loc 1 1356 8 is_stmt 0 view .LVU484
 1363 0150 092B     		cmp	r3, #9
 1364 0152 FAD8     		bhi	.L52
 1365 0154 1201     		lsls	r2, r2, #4
 1366              	.LVL95:
1356:Drivers/STM32F0xx_HAL_Driver/Src/stm32f0xx_hal_rtc.c ****   {
 1367              		.loc 1 1356 8 view .LVU485
 1368 0156 1343     		orrs	r3, r2
 1369              	.LVL96:
1356:Drivers/STM32F0xx_HAL_Driver/Src/stm32f0xx_hal_rtc.c ****   {
 1370              		.loc 1 1356 8 view .LVU486
 1371 0158 DBB2     		uxtb	r3, r3
 1372              	.L51:
1362:Drivers/STM32F0xx_HAL_Driver/Src/stm32f0xx_hal_rtc.c **** }
 1373              		.loc 1 1362 3 is_stmt 1 view .LVU487
 1374              	.LBE123:
 1375              	.LBE122:
 943:Drivers/STM32F0xx_HAL_Driver/Src/stm32f0xx_hal_rtc.c ****               ((uint32_t)RTC_ByteToBcd2(sAlarm->AlarmTime.Minutes) << 8U) | \
 1376              		.loc 1 943 12 is_stmt 0 view .LVU488
 1377 015a 4246     		mov	r2, r8
 1378 015c 4869     		ldr	r0, [r1, #20]
 947:Drivers/STM32F0xx_HAL_Driver/Src/stm32f0xx_hal_rtc.c ****               ((uint32_t)sAlarm->AlarmDateWeekDaySel) | \
 1379              		.loc 1 947 67 view .LVU489
ARM GAS  /var/folders/vr/85797ndx6jd_r3n_lsprlrj40000gn/T//ccWMqnSu.s 			page 57


 1380 015e 1B06     		lsls	r3, r3, #24
 943:Drivers/STM32F0xx_HAL_Driver/Src/stm32f0xx_hal_rtc.c ****               ((uint32_t)RTC_ByteToBcd2(sAlarm->AlarmTime.Minutes) << 8U) | \
 1381              		.loc 1 943 12 view .LVU490
 1382 0160 0243     		orrs	r2, r0
 1383 0162 1643     		orrs	r6, r2
 1384 0164 6246     		mov	r2, ip
 1385 0166 4846     		mov	r0, r9
 1386 0168 1643     		orrs	r6, r2
 1387 016a 3043     		orrs	r0, r6
 1388 016c 3843     		orrs	r0, r7
 1389 016e 1843     		orrs	r0, r3
 1390 0170 8046     		mov	r8, r0
 1391              	.LVL97:
 943:Drivers/STM32F0xx_HAL_Driver/Src/stm32f0xx_hal_rtc.c ****               ((uint32_t)RTC_ByteToBcd2(sAlarm->AlarmTime.Minutes) << 8U) | \
 1392              		.loc 1 943 12 view .LVU491
 1393 0172 6FE7     		b	.L53
 1394              	.LVL98:
 1395              	.L65:
1006:Drivers/STM32F0xx_HAL_Driver/Src/stm32f0xx_hal_rtc.c ****         
 1396              		.loc 1 1006 7 is_stmt 1 view .LVU492
1006:Drivers/STM32F0xx_HAL_Driver/Src/stm32f0xx_hal_rtc.c ****         
 1397              		.loc 1 1006 7 view .LVU493
 1398 0174 FF22     		movs	r2, #255
 1399 0176 2B68     		ldr	r3, [r5]
 1400              	.LVL99:
1013:Drivers/STM32F0xx_HAL_Driver/Src/stm32f0xx_hal_rtc.c ****     }  
 1401              		.loc 1 1013 14 is_stmt 0 view .LVU494
 1402 0178 0320     		movs	r0, #3
1006:Drivers/STM32F0xx_HAL_Driver/Src/stm32f0xx_hal_rtc.c ****         
 1403              		.loc 1 1006 7 view .LVU495
 1404 017a 5A62     		str	r2, [r3, #36]
1008:Drivers/STM32F0xx_HAL_Driver/Src/stm32f0xx_hal_rtc.c ****         
 1405              		.loc 1 1008 7 is_stmt 1 view .LVU496
1008:Drivers/STM32F0xx_HAL_Driver/Src/stm32f0xx_hal_rtc.c ****         
 1406              		.loc 1 1008 19 is_stmt 0 view .LVU497
 1407 017c 0323     		movs	r3, #3
1011:Drivers/STM32F0xx_HAL_Driver/Src/stm32f0xx_hal_rtc.c ****         
 1408              		.loc 1 1011 7 view .LVU498
 1409 017e 2C77     		strb	r4, [r5, #28]
1008:Drivers/STM32F0xx_HAL_Driver/Src/stm32f0xx_hal_rtc.c ****         
 1410              		.loc 1 1008 19 view .LVU499
 1411 0180 6B77     		strb	r3, [r5, #29]
1011:Drivers/STM32F0xx_HAL_Driver/Src/stm32f0xx_hal_rtc.c ****         
 1412              		.loc 1 1011 7 is_stmt 1 view .LVU500
1011:Drivers/STM32F0xx_HAL_Driver/Src/stm32f0xx_hal_rtc.c ****         
 1413              		.loc 1 1011 7 view .LVU501
1013:Drivers/STM32F0xx_HAL_Driver/Src/stm32f0xx_hal_rtc.c ****     }  
 1414              		.loc 1 1013 7 view .LVU502
1013:Drivers/STM32F0xx_HAL_Driver/Src/stm32f0xx_hal_rtc.c ****     }  
 1415              		.loc 1 1013 14 is_stmt 0 view .LVU503
 1416 0182 AAE7     		b	.L41
 1417              	.LVL100:
 1418              	.L54:
 961:Drivers/STM32F0xx_HAL_Driver/Src/stm32f0xx_hal_rtc.c ****       assert_param(IS_RTC_HOUR24(RTC_Bcd2ToByte(sAlarm->AlarmTime.Hours)));
 1419              		.loc 1 961 7 is_stmt 1 view .LVU504
 961:Drivers/STM32F0xx_HAL_Driver/Src/stm32f0xx_hal_rtc.c ****       assert_param(IS_RTC_HOUR24(RTC_Bcd2ToByte(sAlarm->AlarmTime.Hours)));
 1420              		.loc 1 961 36 is_stmt 0 view .LVU505
ARM GAS  /var/folders/vr/85797ndx6jd_r3n_lsprlrj40000gn/T//ccWMqnSu.s 			page 58


 1421 0184 CB70     		strb	r3, [r1, #3]
 1422 0186 54E7     		b	.L55
 1423              	.L43:
 929:Drivers/STM32F0xx_HAL_Driver/Src/stm32f0xx_hal_rtc.c ****       assert_param(IS_RTC_HOUR24(sAlarm->AlarmTime.Hours));
 1424              		.loc 1 929 7 is_stmt 1 view .LVU506
 929:Drivers/STM32F0xx_HAL_Driver/Src/stm32f0xx_hal_rtc.c ****       assert_param(IS_RTC_HOUR24(sAlarm->AlarmTime.Hours));
 1425              		.loc 1 929 36 is_stmt 0 view .LVU507
 1426 0188 CE70     		strb	r6, [r1, #3]
 1427 018a B0E7     		b	.L44
 1428              	.L58:
 916:Drivers/STM32F0xx_HAL_Driver/Src/stm32f0xx_hal_rtc.c ****   
 1429              		.loc 1 916 3 view .LVU508
 1430 018c 0220     		movs	r0, #2
 1431              	.LVL101:
 916:Drivers/STM32F0xx_HAL_Driver/Src/stm32f0xx_hal_rtc.c ****   
 1432              		.loc 1 916 3 view .LVU509
 1433 018e A4E7     		b	.L41
 1434              	.L67:
 1435              		.align	2
 1436              	.L66:
 1437 0190 FFFEFFFF 		.word	-257
 1438 0194 7FFEFFFF 		.word	-385
 1439 0198 00040140 		.word	1073808384
 1440              		.cfi_endproc
 1441              	.LFE46:
 1443              		.section	.text.HAL_RTC_DeactivateAlarm,"ax",%progbits
 1444              		.align	1
 1445              		.p2align 2,,3
 1446              		.global	HAL_RTC_DeactivateAlarm
 1447              		.syntax unified
 1448              		.code	16
 1449              		.thumb_func
 1450              		.fpu softvfp
 1452              	HAL_RTC_DeactivateAlarm:
 1453              	.LVL102:
 1454              	.LFB47:
1050:Drivers/STM32F0xx_HAL_Driver/Src/stm32f0xx_hal_rtc.c ****   uint32_t tickstart = 0U;
 1455              		.loc 1 1050 1 is_stmt 1 view -0
 1456              		.cfi_startproc
 1457              		@ args = 0, pretend = 0, frame = 0
 1458              		@ frame_needed = 0, uses_anonymous_args = 0
1051:Drivers/STM32F0xx_HAL_Driver/Src/stm32f0xx_hal_rtc.c ****   
 1459              		.loc 1 1051 3 view .LVU511
1054:Drivers/STM32F0xx_HAL_Driver/Src/stm32f0xx_hal_rtc.c ****   
 1460              		.loc 1 1054 3 view .LVU512
1057:Drivers/STM32F0xx_HAL_Driver/Src/stm32f0xx_hal_rtc.c ****   
 1461              		.loc 1 1057 3 view .LVU513
1057:Drivers/STM32F0xx_HAL_Driver/Src/stm32f0xx_hal_rtc.c ****   
 1462              		.loc 1 1057 3 view .LVU514
1050:Drivers/STM32F0xx_HAL_Driver/Src/stm32f0xx_hal_rtc.c ****   uint32_t tickstart = 0U;
 1463              		.loc 1 1050 1 is_stmt 0 view .LVU515
 1464 0000 F0B5     		push	{r4, r5, r6, r7, lr}
 1465              	.LCFI6:
 1466              		.cfi_def_cfa_offset 20
 1467              		.cfi_offset 4, -20
 1468              		.cfi_offset 5, -16
 1469              		.cfi_offset 6, -12
ARM GAS  /var/folders/vr/85797ndx6jd_r3n_lsprlrj40000gn/T//ccWMqnSu.s 			page 59


 1470              		.cfi_offset 7, -8
 1471              		.cfi_offset 14, -4
 1472 0002 C646     		mov	lr, r8
 1473 0004 00B5     		push	{lr}
 1474              	.LCFI7:
 1475              		.cfi_def_cfa_offset 24
 1476              		.cfi_offset 8, -24
1057:Drivers/STM32F0xx_HAL_Driver/Src/stm32f0xx_hal_rtc.c ****   
 1477              		.loc 1 1057 3 view .LVU516
 1478 0006 037F     		ldrb	r3, [r0, #28]
1050:Drivers/STM32F0xx_HAL_Driver/Src/stm32f0xx_hal_rtc.c ****   uint32_t tickstart = 0U;
 1479              		.loc 1 1050 1 view .LVU517
 1480 0008 0500     		movs	r5, r0
1057:Drivers/STM32F0xx_HAL_Driver/Src/stm32f0xx_hal_rtc.c ****   
 1481              		.loc 1 1057 3 view .LVU518
 1482 000a 012B     		cmp	r3, #1
 1483 000c 32D0     		beq	.L72
1057:Drivers/STM32F0xx_HAL_Driver/Src/stm32f0xx_hal_rtc.c ****   
 1484              		.loc 1 1057 3 is_stmt 1 discriminator 2 view .LVU519
 1485 000e 0123     		movs	r3, #1
1062:Drivers/STM32F0xx_HAL_Driver/Src/stm32f0xx_hal_rtc.c ****   
 1486              		.loc 1 1062 3 is_stmt 0 discriminator 2 view .LVU520
 1487 0010 CA22     		movs	r2, #202
1057:Drivers/STM32F0xx_HAL_Driver/Src/stm32f0xx_hal_rtc.c ****   
 1488              		.loc 1 1057 3 discriminator 2 view .LVU521
 1489 0012 0377     		strb	r3, [r0, #28]
1059:Drivers/STM32F0xx_HAL_Driver/Src/stm32f0xx_hal_rtc.c ****   
 1490              		.loc 1 1059 3 is_stmt 1 discriminator 2 view .LVU522
1059:Drivers/STM32F0xx_HAL_Driver/Src/stm32f0xx_hal_rtc.c ****   
 1491              		.loc 1 1059 15 is_stmt 0 discriminator 2 view .LVU523
 1492 0014 0133     		adds	r3, r3, #1
 1493 0016 4377     		strb	r3, [r0, #29]
1062:Drivers/STM32F0xx_HAL_Driver/Src/stm32f0xx_hal_rtc.c ****   
 1494              		.loc 1 1062 3 is_stmt 1 discriminator 2 view .LVU524
1062:Drivers/STM32F0xx_HAL_Driver/Src/stm32f0xx_hal_rtc.c ****   
 1495              		.loc 1 1062 3 discriminator 2 view .LVU525
 1496 0018 0368     		ldr	r3, [r0]
1064:Drivers/STM32F0xx_HAL_Driver/Src/stm32f0xx_hal_rtc.c ****     
 1497              		.loc 1 1064 3 is_stmt 0 discriminator 2 view .LVU526
 1498 001a 1749     		ldr	r1, .L75
 1499              	.LVL103:
1062:Drivers/STM32F0xx_HAL_Driver/Src/stm32f0xx_hal_rtc.c ****   
 1500              		.loc 1 1062 3 discriminator 2 view .LVU527
 1501 001c 5A62     		str	r2, [r3, #36]
1062:Drivers/STM32F0xx_HAL_Driver/Src/stm32f0xx_hal_rtc.c ****   
 1502              		.loc 1 1062 3 is_stmt 1 discriminator 2 view .LVU528
 1503 001e 773A     		subs	r2, r2, #119
 1504 0020 5A62     		str	r2, [r3, #36]
1064:Drivers/STM32F0xx_HAL_Driver/Src/stm32f0xx_hal_rtc.c ****     
 1505              		.loc 1 1064 3 discriminator 2 view .LVU529
 1506 0022 9A68     		ldr	r2, [r3, #8]
1074:Drivers/STM32F0xx_HAL_Driver/Src/stm32f0xx_hal_rtc.c ****     { 
 1507              		.loc 1 1074 7 is_stmt 0 discriminator 2 view .LVU530
 1508 0024 FA27     		movs	r7, #250
1064:Drivers/STM32F0xx_HAL_Driver/Src/stm32f0xx_hal_rtc.c ****     
 1509              		.loc 1 1064 3 discriminator 2 view .LVU531
 1510 0026 0A40     		ands	r2, r1
ARM GAS  /var/folders/vr/85797ndx6jd_r3n_lsprlrj40000gn/T//ccWMqnSu.s 			page 60


 1511 0028 9A60     		str	r2, [r3, #8]
1067:Drivers/STM32F0xx_HAL_Driver/Src/stm32f0xx_hal_rtc.c ****     
 1512              		.loc 1 1067 3 is_stmt 1 discriminator 2 view .LVU532
 1513 002a 9A68     		ldr	r2, [r3, #8]
 1514 002c 1349     		ldr	r1, .L75+4
1072:Drivers/STM32F0xx_HAL_Driver/Src/stm32f0xx_hal_rtc.c ****   {
 1515              		.loc 1 1072 9 is_stmt 0 discriminator 2 view .LVU533
 1516 002e 0126     		movs	r6, #1
1067:Drivers/STM32F0xx_HAL_Driver/Src/stm32f0xx_hal_rtc.c ****     
 1517              		.loc 1 1067 3 discriminator 2 view .LVU534
 1518 0030 0A40     		ands	r2, r1
 1519 0032 9A60     		str	r2, [r3, #8]
1069:Drivers/STM32F0xx_HAL_Driver/Src/stm32f0xx_hal_rtc.c ****     
 1520              		.loc 1 1069 3 is_stmt 1 discriminator 2 view .LVU535
1069:Drivers/STM32F0xx_HAL_Driver/Src/stm32f0xx_hal_rtc.c ****     
 1521              		.loc 1 1069 15 is_stmt 0 discriminator 2 view .LVU536
 1522 0034 FFF7FEFF 		bl	HAL_GetTick
 1523              	.LVL104:
1074:Drivers/STM32F0xx_HAL_Driver/Src/stm32f0xx_hal_rtc.c ****     { 
 1524              		.loc 1 1074 7 discriminator 2 view .LVU537
 1525 0038 BF00     		lsls	r7, r7, #2
1069:Drivers/STM32F0xx_HAL_Driver/Src/stm32f0xx_hal_rtc.c ****     
 1526              		.loc 1 1069 15 discriminator 2 view .LVU538
 1527 003a 8046     		mov	r8, r0
 1528              	.LVL105:
1072:Drivers/STM32F0xx_HAL_Driver/Src/stm32f0xx_hal_rtc.c ****   {
 1529              		.loc 1 1072 3 is_stmt 1 discriminator 2 view .LVU539
1072:Drivers/STM32F0xx_HAL_Driver/Src/stm32f0xx_hal_rtc.c ****   {
 1530              		.loc 1 1072 8 is_stmt 0 discriminator 2 view .LVU540
 1531 003c 05E0     		b	.L70
 1532              	.LVL106:
 1533              	.L71:
1074:Drivers/STM32F0xx_HAL_Driver/Src/stm32f0xx_hal_rtc.c ****     { 
 1534              		.loc 1 1074 5 is_stmt 1 view .LVU541
1074:Drivers/STM32F0xx_HAL_Driver/Src/stm32f0xx_hal_rtc.c ****     { 
 1535              		.loc 1 1074 9 is_stmt 0 view .LVU542
 1536 003e FFF7FEFF 		bl	HAL_GetTick
 1537              	.LVL107:
1074:Drivers/STM32F0xx_HAL_Driver/Src/stm32f0xx_hal_rtc.c ****     { 
 1538              		.loc 1 1074 22 view .LVU543
 1539 0042 4346     		mov	r3, r8
 1540 0044 C01A     		subs	r0, r0, r3
1074:Drivers/STM32F0xx_HAL_Driver/Src/stm32f0xx_hal_rtc.c ****     { 
 1541              		.loc 1 1074 7 view .LVU544
 1542 0046 B842     		cmp	r0, r7
 1543 0048 0CD8     		bhi	.L74
 1544              	.L70:
1072:Drivers/STM32F0xx_HAL_Driver/Src/stm32f0xx_hal_rtc.c ****   {
 1545              		.loc 1 1072 9 view .LVU545
 1546 004a 2B68     		ldr	r3, [r5]
 1547 004c DC68     		ldr	r4, [r3, #12]
 1548 004e 3440     		ands	r4, r6
1072:Drivers/STM32F0xx_HAL_Driver/Src/stm32f0xx_hal_rtc.c ****   {
 1549              		.loc 1 1072 8 view .LVU546
 1550 0050 F5D0     		beq	.L71
1088:Drivers/STM32F0xx_HAL_Driver/Src/stm32f0xx_hal_rtc.c ****   
 1551              		.loc 1 1088 3 is_stmt 1 view .LVU547
ARM GAS  /var/folders/vr/85797ndx6jd_r3n_lsprlrj40000gn/T//ccWMqnSu.s 			page 61


1088:Drivers/STM32F0xx_HAL_Driver/Src/stm32f0xx_hal_rtc.c ****   
 1552              		.loc 1 1088 3 view .LVU548
 1553 0052 FF22     		movs	r2, #255
 1554 0054 5A62     		str	r2, [r3, #36]
1090:Drivers/STM32F0xx_HAL_Driver/Src/stm32f0xx_hal_rtc.c ****   
 1555              		.loc 1 1090 3 view .LVU549
1093:Drivers/STM32F0xx_HAL_Driver/Src/stm32f0xx_hal_rtc.c ****   
 1556              		.loc 1 1093 3 is_stmt 0 view .LVU550
 1557 0056 0023     		movs	r3, #0
1095:Drivers/STM32F0xx_HAL_Driver/Src/stm32f0xx_hal_rtc.c **** }
 1558              		.loc 1 1095 10 view .LVU551
 1559 0058 0020     		movs	r0, #0
1090:Drivers/STM32F0xx_HAL_Driver/Src/stm32f0xx_hal_rtc.c ****   
 1560              		.loc 1 1090 15 view .LVU552
 1561 005a 6E77     		strb	r6, [r5, #29]
1093:Drivers/STM32F0xx_HAL_Driver/Src/stm32f0xx_hal_rtc.c ****   
 1562              		.loc 1 1093 3 is_stmt 1 view .LVU553
1093:Drivers/STM32F0xx_HAL_Driver/Src/stm32f0xx_hal_rtc.c ****   
 1563              		.loc 1 1093 3 view .LVU554
 1564 005c 2B77     		strb	r3, [r5, #28]
1095:Drivers/STM32F0xx_HAL_Driver/Src/stm32f0xx_hal_rtc.c **** }
 1565              		.loc 1 1095 3 view .LVU555
 1566              	.LVL108:
 1567              	.L69:
1096:Drivers/STM32F0xx_HAL_Driver/Src/stm32f0xx_hal_rtc.c ****            
 1568              		.loc 1 1096 1 is_stmt 0 view .LVU556
 1569              		@ sp needed
 1570              	.LVL109:
1096:Drivers/STM32F0xx_HAL_Driver/Src/stm32f0xx_hal_rtc.c ****            
 1571              		.loc 1 1096 1 view .LVU557
 1572 005e 04BC     		pop	{r2}
 1573 0060 9046     		mov	r8, r2
 1574 0062 F0BD     		pop	{r4, r5, r6, r7, pc}
 1575              	.LVL110:
 1576              	.L74:
1077:Drivers/STM32F0xx_HAL_Driver/Src/stm32f0xx_hal_rtc.c ****         
 1577              		.loc 1 1077 7 is_stmt 1 view .LVU558
1077:Drivers/STM32F0xx_HAL_Driver/Src/stm32f0xx_hal_rtc.c ****         
 1578              		.loc 1 1077 7 view .LVU559
 1579 0064 FF22     		movs	r2, #255
 1580 0066 2B68     		ldr	r3, [r5]
 1581              	.LVL111:
1084:Drivers/STM32F0xx_HAL_Driver/Src/stm32f0xx_hal_rtc.c ****     }      
 1582              		.loc 1 1084 14 is_stmt 0 view .LVU560
 1583 0068 0320     		movs	r0, #3
1077:Drivers/STM32F0xx_HAL_Driver/Src/stm32f0xx_hal_rtc.c ****         
 1584              		.loc 1 1077 7 view .LVU561
 1585 006a 5A62     		str	r2, [r3, #36]
1079:Drivers/STM32F0xx_HAL_Driver/Src/stm32f0xx_hal_rtc.c ****         
 1586              		.loc 1 1079 7 is_stmt 1 view .LVU562
1079:Drivers/STM32F0xx_HAL_Driver/Src/stm32f0xx_hal_rtc.c ****         
 1587              		.loc 1 1079 19 is_stmt 0 view .LVU563
 1588 006c 0323     		movs	r3, #3
1082:Drivers/STM32F0xx_HAL_Driver/Src/stm32f0xx_hal_rtc.c ****         
 1589              		.loc 1 1082 7 view .LVU564
 1590 006e 2C77     		strb	r4, [r5, #28]
1079:Drivers/STM32F0xx_HAL_Driver/Src/stm32f0xx_hal_rtc.c ****         
ARM GAS  /var/folders/vr/85797ndx6jd_r3n_lsprlrj40000gn/T//ccWMqnSu.s 			page 62


 1591              		.loc 1 1079 19 view .LVU565
 1592 0070 6B77     		strb	r3, [r5, #29]
1082:Drivers/STM32F0xx_HAL_Driver/Src/stm32f0xx_hal_rtc.c ****         
 1593              		.loc 1 1082 7 is_stmt 1 view .LVU566
1082:Drivers/STM32F0xx_HAL_Driver/Src/stm32f0xx_hal_rtc.c ****         
 1594              		.loc 1 1082 7 view .LVU567
1084:Drivers/STM32F0xx_HAL_Driver/Src/stm32f0xx_hal_rtc.c ****     }      
 1595              		.loc 1 1084 7 view .LVU568
1084:Drivers/STM32F0xx_HAL_Driver/Src/stm32f0xx_hal_rtc.c ****     }      
 1596              		.loc 1 1084 14 is_stmt 0 view .LVU569
 1597 0072 F4E7     		b	.L69
 1598              	.LVL112:
 1599              	.L72:
1057:Drivers/STM32F0xx_HAL_Driver/Src/stm32f0xx_hal_rtc.c ****   
 1600              		.loc 1 1057 3 view .LVU570
 1601 0074 0220     		movs	r0, #2
 1602              	.LVL113:
1057:Drivers/STM32F0xx_HAL_Driver/Src/stm32f0xx_hal_rtc.c ****   
 1603              		.loc 1 1057 3 view .LVU571
 1604 0076 F2E7     		b	.L69
 1605              	.L76:
 1606              		.align	2
 1607              	.L75:
 1608 0078 FFFEFFFF 		.word	-257
 1609 007c FFEFFFFF 		.word	-4097
 1610              		.cfi_endproc
 1611              	.LFE47:
 1613              		.section	.text.HAL_RTC_GetAlarm,"ax",%progbits
 1614              		.align	1
 1615              		.p2align 2,,3
 1616              		.global	HAL_RTC_GetAlarm
 1617              		.syntax unified
 1618              		.code	16
 1619              		.thumb_func
 1620              		.fpu softvfp
 1622              	HAL_RTC_GetAlarm:
 1623              	.LVL114:
 1624              	.LFB48:
1112:Drivers/STM32F0xx_HAL_Driver/Src/stm32f0xx_hal_rtc.c ****   uint32_t tmpreg = 0U, subsecondtmpreg = 0U;
 1625              		.loc 1 1112 1 is_stmt 1 view -0
 1626              		.cfi_startproc
 1627              		@ args = 0, pretend = 0, frame = 8
 1628              		@ frame_needed = 0, uses_anonymous_args = 0
1113:Drivers/STM32F0xx_HAL_Driver/Src/stm32f0xx_hal_rtc.c ****   
 1629              		.loc 1 1113 3 view .LVU573
1116:Drivers/STM32F0xx_HAL_Driver/Src/stm32f0xx_hal_rtc.c ****   assert_param(IS_RTC_ALARM(Alarm));
 1630              		.loc 1 1116 3 view .LVU574
1117:Drivers/STM32F0xx_HAL_Driver/Src/stm32f0xx_hal_rtc.c ****   
 1631              		.loc 1 1117 3 view .LVU575
1119:Drivers/STM32F0xx_HAL_Driver/Src/stm32f0xx_hal_rtc.c ****     
 1632              		.loc 1 1119 3 view .LVU576
1112:Drivers/STM32F0xx_HAL_Driver/Src/stm32f0xx_hal_rtc.c ****   uint32_t tmpreg = 0U, subsecondtmpreg = 0U;
 1633              		.loc 1 1112 1 is_stmt 0 view .LVU577
 1634 0000 F0B5     		push	{r4, r5, r6, r7, lr}
 1635              	.LCFI8:
 1636              		.cfi_def_cfa_offset 20
 1637              		.cfi_offset 4, -20
ARM GAS  /var/folders/vr/85797ndx6jd_r3n_lsprlrj40000gn/T//ccWMqnSu.s 			page 63


 1638              		.cfi_offset 5, -16
 1639              		.cfi_offset 6, -12
 1640              		.cfi_offset 7, -8
 1641              		.cfi_offset 14, -4
 1642 0002 4E46     		mov	r6, r9
 1643 0004 9946     		mov	r9, r3
1119:Drivers/STM32F0xx_HAL_Driver/Src/stm32f0xx_hal_rtc.c ****     
 1644              		.loc 1 1119 17 view .LVU578
 1645 0006 8023     		movs	r3, #128
 1646              	.LVL115:
1119:Drivers/STM32F0xx_HAL_Driver/Src/stm32f0xx_hal_rtc.c ****     
 1647              		.loc 1 1119 17 view .LVU579
 1648 0008 5B00     		lsls	r3, r3, #1
1112:Drivers/STM32F0xx_HAL_Driver/Src/stm32f0xx_hal_rtc.c ****   uint32_t tmpreg = 0U, subsecondtmpreg = 0U;
 1649              		.loc 1 1112 1 view .LVU580
 1650 000a 5746     		mov	r7, r10
 1651 000c 4546     		mov	r5, r8
1119:Drivers/STM32F0xx_HAL_Driver/Src/stm32f0xx_hal_rtc.c ****     
 1652              		.loc 1 1119 17 view .LVU581
 1653 000e 4B62     		str	r3, [r1, #36]
1121:Drivers/STM32F0xx_HAL_Driver/Src/stm32f0xx_hal_rtc.c ****   subsecondtmpreg = (uint32_t)((hrtc->Instance->ALRMASSR ) & RTC_ALRMASSR_SS);
 1654              		.loc 1 1121 3 is_stmt 1 view .LVU582
1112:Drivers/STM32F0xx_HAL_Driver/Src/stm32f0xx_hal_rtc.c ****   uint32_t tmpreg = 0U, subsecondtmpreg = 0U;
 1655              		.loc 1 1112 1 is_stmt 0 view .LVU583
 1656 0010 DE46     		mov	lr, fp
1121:Drivers/STM32F0xx_HAL_Driver/Src/stm32f0xx_hal_rtc.c ****   subsecondtmpreg = (uint32_t)((hrtc->Instance->ALRMASSR ) & RTC_ALRMASSR_SS);
 1657              		.loc 1 1121 27 view .LVU584
 1658 0012 0368     		ldr	r3, [r0]
1125:Drivers/STM32F0xx_HAL_Driver/Src/stm32f0xx_hal_rtc.c ****   sAlarm->AlarmTime.Minutes = (uint32_t)((tmpreg & (RTC_ALRMAR_MNT | RTC_ALRMAR_MNU)) >> 8U);
 1659              		.loc 1 1125 29 view .LVU585
 1660 0014 3F20     		movs	r0, #63
 1661              	.LVL116:
1121:Drivers/STM32F0xx_HAL_Driver/Src/stm32f0xx_hal_rtc.c ****   subsecondtmpreg = (uint32_t)((hrtc->Instance->ALRMASSR ) & RTC_ALRMASSR_SS);
 1662              		.loc 1 1121 10 view .LVU586
 1663 0016 DA69     		ldr	r2, [r3, #28]
 1664              	.LVL117:
1122:Drivers/STM32F0xx_HAL_Driver/Src/stm32f0xx_hal_rtc.c ****     
 1665              		.loc 1 1122 3 is_stmt 1 view .LVU587
1112:Drivers/STM32F0xx_HAL_Driver/Src/stm32f0xx_hal_rtc.c ****   uint32_t tmpreg = 0U, subsecondtmpreg = 0U;
 1666              		.loc 1 1112 1 is_stmt 0 view .LVU588
 1667 0018 E0B5     		push	{r5, r6, r7, lr}
 1668              	.LCFI9:
 1669              		.cfi_def_cfa_offset 36
 1670              		.cfi_offset 8, -36
 1671              		.cfi_offset 9, -32
 1672              		.cfi_offset 10, -28
 1673              		.cfi_offset 11, -24
1122:Drivers/STM32F0xx_HAL_Driver/Src/stm32f0xx_hal_rtc.c ****     
 1674              		.loc 1 1122 47 view .LVU589
 1675 001a 5E6C     		ldr	r6, [r3, #68]
 1676              	.LVL118:
1125:Drivers/STM32F0xx_HAL_Driver/Src/stm32f0xx_hal_rtc.c ****   sAlarm->AlarmTime.Minutes = (uint32_t)((tmpreg & (RTC_ALRMAR_MNT | RTC_ALRMAR_MNU)) >> 8U);
 1677              		.loc 1 1125 3 is_stmt 1 view .LVU590
1125:Drivers/STM32F0xx_HAL_Driver/Src/stm32f0xx_hal_rtc.c ****   sAlarm->AlarmTime.Minutes = (uint32_t)((tmpreg & (RTC_ALRMAR_MNT | RTC_ALRMAR_MNU)) >> 8U);
 1678              		.loc 1 1125 29 is_stmt 0 view .LVU591
 1679 001c 0300     		movs	r3, r0
1126:Drivers/STM32F0xx_HAL_Driver/Src/stm32f0xx_hal_rtc.c ****   sAlarm->AlarmTime.Seconds = (uint32_t)(tmpreg & (RTC_ALRMAR_ST | RTC_ALRMAR_SU));
ARM GAS  /var/folders/vr/85797ndx6jd_r3n_lsprlrj40000gn/T//ccWMqnSu.s 			page 64


 1680              		.loc 1 1126 31 view .LVU592
 1681 001e 7F24     		movs	r4, #127
1125:Drivers/STM32F0xx_HAL_Driver/Src/stm32f0xx_hal_rtc.c ****   sAlarm->AlarmTime.Minutes = (uint32_t)((tmpreg & (RTC_ALRMAR_MNT | RTC_ALRMAR_MNU)) >> 8U);
 1682              		.loc 1 1125 29 view .LVU593
 1683 0020 150C     		lsrs	r5, r2, #16
 1684 0022 EDB2     		uxtb	r5, r5
 1685 0024 2B40     		ands	r3, r5
1125:Drivers/STM32F0xx_HAL_Driver/Src/stm32f0xx_hal_rtc.c ****   sAlarm->AlarmTime.Minutes = (uint32_t)((tmpreg & (RTC_ALRMAR_MNT | RTC_ALRMAR_MNU)) >> 8U);
 1686              		.loc 1 1125 27 view .LVU594
 1687 0026 0B70     		strb	r3, [r1]
1126:Drivers/STM32F0xx_HAL_Driver/Src/stm32f0xx_hal_rtc.c ****   sAlarm->AlarmTime.Seconds = (uint32_t)(tmpreg & (RTC_ALRMAR_ST | RTC_ALRMAR_SU));
 1688              		.loc 1 1126 3 is_stmt 1 view .LVU595
1125:Drivers/STM32F0xx_HAL_Driver/Src/stm32f0xx_hal_rtc.c ****   sAlarm->AlarmTime.Minutes = (uint32_t)((tmpreg & (RTC_ALRMAR_MNT | RTC_ALRMAR_MNU)) >> 8U);
 1689              		.loc 1 1125 29 is_stmt 0 view .LVU596
 1690 0028 9C46     		mov	ip, r3
1126:Drivers/STM32F0xx_HAL_Driver/Src/stm32f0xx_hal_rtc.c ****   sAlarm->AlarmTime.Seconds = (uint32_t)(tmpreg & (RTC_ALRMAR_ST | RTC_ALRMAR_SU));
 1691              		.loc 1 1126 31 view .LVU597
 1692 002a 2300     		movs	r3, r4
 1693 002c 170A     		lsrs	r7, r2, #8
 1694 002e FFB2     		uxtb	r7, r7
 1695 0030 3B40     		ands	r3, r7
1112:Drivers/STM32F0xx_HAL_Driver/Src/stm32f0xx_hal_rtc.c ****   uint32_t tmpreg = 0U, subsecondtmpreg = 0U;
 1696              		.loc 1 1112 1 view .LVU598
 1697 0032 83B0     		sub	sp, sp, #12
 1698              	.LCFI10:
 1699              		.cfi_def_cfa_offset 48
1126:Drivers/STM32F0xx_HAL_Driver/Src/stm32f0xx_hal_rtc.c ****   sAlarm->AlarmTime.Seconds = (uint32_t)(tmpreg & (RTC_ALRMAR_ST | RTC_ALRMAR_SU));
 1700              		.loc 1 1126 29 view .LVU599
 1701 0034 4B70     		strb	r3, [r1, #1]
1127:Drivers/STM32F0xx_HAL_Driver/Src/stm32f0xx_hal_rtc.c ****   sAlarm->AlarmTime.TimeFormat = (uint32_t)((tmpreg & RTC_ALRMAR_PM) >> 16U);
 1702              		.loc 1 1127 3 is_stmt 1 view .LVU600
1126:Drivers/STM32F0xx_HAL_Driver/Src/stm32f0xx_hal_rtc.c ****   sAlarm->AlarmTime.Seconds = (uint32_t)(tmpreg & (RTC_ALRMAR_ST | RTC_ALRMAR_SU));
 1703              		.loc 1 1126 29 is_stmt 0 view .LVU601
 1704 0036 0193     		str	r3, [sp, #4]
1127:Drivers/STM32F0xx_HAL_Driver/Src/stm32f0xx_hal_rtc.c ****   sAlarm->AlarmTime.TimeFormat = (uint32_t)((tmpreg & RTC_ALRMAR_PM) >> 16U);
 1705              		.loc 1 1127 31 view .LVU602
 1706 0038 D3B2     		uxtb	r3, r2
 1707 003a 1C40     		ands	r4, r3
 1708 003c 9846     		mov	r8, r3
1128:Drivers/STM32F0xx_HAL_Driver/Src/stm32f0xx_hal_rtc.c ****   sAlarm->AlarmTime.SubSeconds = (uint32_t) subsecondtmpreg;
 1709              		.loc 1 1128 34 view .LVU603
 1710 003e 4023     		movs	r3, #64
 1711 0040 2B40     		ands	r3, r5
1128:Drivers/STM32F0xx_HAL_Driver/Src/stm32f0xx_hal_rtc.c ****   sAlarm->AlarmTime.SubSeconds = (uint32_t) subsecondtmpreg;
 1712              		.loc 1 1128 32 view .LVU604
 1713 0042 CB70     		strb	r3, [r1, #3]
1130:Drivers/STM32F0xx_HAL_Driver/Src/stm32f0xx_hal_rtc.c ****   sAlarm->AlarmDateWeekDaySel = (uint32_t)(tmpreg & RTC_ALRMAR_WDSEL);
 1714              		.loc 1 1130 28 view .LVU605
 1715 0044 2023     		movs	r3, #32
1122:Drivers/STM32F0xx_HAL_Driver/Src/stm32f0xx_hal_rtc.c ****     
 1716              		.loc 1 1122 19 view .LVU606
 1717 0046 7604     		lsls	r6, r6, #17
 1718              	.LVL119:
1122:Drivers/STM32F0xx_HAL_Driver/Src/stm32f0xx_hal_rtc.c ****     
 1719              		.loc 1 1122 19 view .LVU607
 1720 0048 760C     		lsrs	r6, r6, #17
1129:Drivers/STM32F0xx_HAL_Driver/Src/stm32f0xx_hal_rtc.c ****   sAlarm->AlarmDateWeekDay = (uint32_t)((tmpreg & (RTC_ALRMAR_DT | RTC_ALRMAR_DU)) >> 24U);
ARM GAS  /var/folders/vr/85797ndx6jd_r3n_lsprlrj40000gn/T//ccWMqnSu.s 			page 65


 1721              		.loc 1 1129 32 view .LVU608
 1722 004a 4E60     		str	r6, [r1, #4]
1130:Drivers/STM32F0xx_HAL_Driver/Src/stm32f0xx_hal_rtc.c ****   sAlarm->AlarmDateWeekDaySel = (uint32_t)(tmpreg & RTC_ALRMAR_WDSEL);
 1723              		.loc 1 1130 30 view .LVU609
 1724 004c 160E     		lsrs	r6, r2, #24
 1725 004e 3040     		ands	r0, r6
1127:Drivers/STM32F0xx_HAL_Driver/Src/stm32f0xx_hal_rtc.c ****   sAlarm->AlarmTime.TimeFormat = (uint32_t)((tmpreg & RTC_ALRMAR_PM) >> 16U);
 1726              		.loc 1 1127 29 view .LVU610
 1727 0050 8C70     		strb	r4, [r1, #2]
1128:Drivers/STM32F0xx_HAL_Driver/Src/stm32f0xx_hal_rtc.c ****   sAlarm->AlarmTime.SubSeconds = (uint32_t) subsecondtmpreg;
 1728              		.loc 1 1128 3 is_stmt 1 view .LVU611
1129:Drivers/STM32F0xx_HAL_Driver/Src/stm32f0xx_hal_rtc.c ****   sAlarm->AlarmDateWeekDay = (uint32_t)((tmpreg & (RTC_ALRMAR_DT | RTC_ALRMAR_DU)) >> 24U);
 1729              		.loc 1 1129 3 view .LVU612
1130:Drivers/STM32F0xx_HAL_Driver/Src/stm32f0xx_hal_rtc.c ****   sAlarm->AlarmDateWeekDaySel = (uint32_t)(tmpreg & RTC_ALRMAR_WDSEL);
 1730              		.loc 1 1130 3 view .LVU613
1130:Drivers/STM32F0xx_HAL_Driver/Src/stm32f0xx_hal_rtc.c ****   sAlarm->AlarmDateWeekDaySel = (uint32_t)(tmpreg & RTC_ALRMAR_WDSEL);
 1731              		.loc 1 1130 28 is_stmt 0 view .LVU614
 1732 0052 9A46     		mov	r10, r3
 1733 0054 C854     		strb	r0, [r1, r3]
1131:Drivers/STM32F0xx_HAL_Driver/Src/stm32f0xx_hal_rtc.c ****   sAlarm->AlarmMask = (uint32_t)(tmpreg & RTC_ALARMMASK_ALL);
 1734              		.loc 1 1131 3 is_stmt 1 view .LVU615
1131:Drivers/STM32F0xx_HAL_Driver/Src/stm32f0xx_hal_rtc.c ****   sAlarm->AlarmMask = (uint32_t)(tmpreg & RTC_ALARMMASK_ALL);
 1735              		.loc 1 1131 33 is_stmt 0 view .LVU616
 1736 0056 8023     		movs	r3, #128
 1737 0058 DB05     		lsls	r3, r3, #23
 1738 005a 1340     		ands	r3, r2
1131:Drivers/STM32F0xx_HAL_Driver/Src/stm32f0xx_hal_rtc.c ****   sAlarm->AlarmMask = (uint32_t)(tmpreg & RTC_ALARMMASK_ALL);
 1739              		.loc 1 1131 31 view .LVU617
 1740 005c CB61     		str	r3, [r1, #28]
1132:Drivers/STM32F0xx_HAL_Driver/Src/stm32f0xx_hal_rtc.c ****     
 1741              		.loc 1 1132 3 is_stmt 1 view .LVU618
1132:Drivers/STM32F0xx_HAL_Driver/Src/stm32f0xx_hal_rtc.c ****     
 1742              		.loc 1 1132 23 is_stmt 0 view .LVU619
 1743 005e 184B     		ldr	r3, .L79
 1744 0060 1A40     		ands	r2, r3
 1745              	.LVL120:
1134:Drivers/STM32F0xx_HAL_Driver/Src/stm32f0xx_hal_rtc.c ****   {
 1746              		.loc 1 1134 5 view .LVU620
 1747 0062 4B46     		mov	r3, r9
1132:Drivers/STM32F0xx_HAL_Driver/Src/stm32f0xx_hal_rtc.c ****     
 1748              		.loc 1 1132 21 view .LVU621
 1749 0064 4A61     		str	r2, [r1, #20]
1134:Drivers/STM32F0xx_HAL_Driver/Src/stm32f0xx_hal_rtc.c ****   {
 1750              		.loc 1 1134 3 is_stmt 1 view .LVU622
1134:Drivers/STM32F0xx_HAL_Driver/Src/stm32f0xx_hal_rtc.c ****   {
 1751              		.loc 1 1134 5 is_stmt 0 view .LVU623
 1752 0066 002B     		cmp	r3, #0
 1753 0068 22D1     		bne	.L78
1136:Drivers/STM32F0xx_HAL_Driver/Src/stm32f0xx_hal_rtc.c ****     sAlarm->AlarmTime.Minutes = RTC_Bcd2ToByte(sAlarm->AlarmTime.Minutes);
 1754              		.loc 1 1136 5 is_stmt 1 view .LVU624
 1755              	.LVL121:
 1756              	.LBB124:
 1757              	.LBI124:
1370:Drivers/STM32F0xx_HAL_Driver/Src/stm32f0xx_hal_rtc.c **** {
 1758              		.loc 1 1370 9 view .LVU625
 1759              	.LBB125:
1372:Drivers/STM32F0xx_HAL_Driver/Src/stm32f0xx_hal_rtc.c ****   tmp = ((uint8_t)(Value & (uint8_t)0xF0U) >> (uint8_t)0x4U) * 10U;
ARM GAS  /var/folders/vr/85797ndx6jd_r3n_lsprlrj40000gn/T//ccWMqnSu.s 			page 66


 1760              		.loc 1 1372 3 view .LVU626
1373:Drivers/STM32F0xx_HAL_Driver/Src/stm32f0xx_hal_rtc.c ****   return (tmp + (Value & (uint8_t)0x0FU));
 1761              		.loc 1 1373 3 view .LVU627
 1762              		.loc 1 1374 3 view .LVU628
1373:Drivers/STM32F0xx_HAL_Driver/Src/stm32f0xx_hal_rtc.c ****   return (tmp + (Value & (uint8_t)0x0FU));
 1763              		.loc 1 1373 44 is_stmt 0 view .LVU629
 1764 006a 6346     		mov	r3, ip
 1765 006c 1B09     		lsrs	r3, r3, #4
 1766 006e 9C46     		mov	ip, r3
1373:Drivers/STM32F0xx_HAL_Driver/Src/stm32f0xx_hal_rtc.c ****   return (tmp + (Value & (uint8_t)0x0FU));
 1767              		.loc 1 1373 7 view .LVU630
 1768 0070 9A00     		lsls	r2, r3, #2
 1769 0072 6244     		add	r2, r2, ip
 1770 0074 5300     		lsls	r3, r2, #1
 1771              		.loc 1 1374 24 view .LVU631
 1772 0076 0F22     		movs	r2, #15
1373:Drivers/STM32F0xx_HAL_Driver/Src/stm32f0xx_hal_rtc.c ****   return (tmp + (Value & (uint8_t)0x0FU));
 1773              		.loc 1 1373 7 view .LVU632
 1774 0078 9C46     		mov	ip, r3
 1775              		.loc 1 1374 24 view .LVU633
 1776 007a 1540     		ands	r5, r2
 1777              	.LBE125:
 1778              	.LBE124:
 1779              	.LBB127:
 1780              	.LBB128:
1373:Drivers/STM32F0xx_HAL_Driver/Src/stm32f0xx_hal_rtc.c ****   return (tmp + (Value & (uint8_t)0x0FU));
 1781              		.loc 1 1373 44 view .LVU634
 1782 007c 019B     		ldr	r3, [sp, #4]
 1783              	.LBE128:
 1784              	.LBE127:
 1785              	.LBB130:
 1786              	.LBB126:
 1787              		.loc 1 1374 15 view .LVU635
 1788 007e 6544     		add	r5, r5, ip
 1789              	.LBE126:
 1790              	.LBE130:
1136:Drivers/STM32F0xx_HAL_Driver/Src/stm32f0xx_hal_rtc.c ****     sAlarm->AlarmTime.Minutes = RTC_Bcd2ToByte(sAlarm->AlarmTime.Minutes);
 1791              		.loc 1 1136 29 view .LVU636
 1792 0080 0D70     		strb	r5, [r1]
1137:Drivers/STM32F0xx_HAL_Driver/Src/stm32f0xx_hal_rtc.c ****     sAlarm->AlarmTime.Seconds = RTC_Bcd2ToByte(sAlarm->AlarmTime.Seconds);
 1793              		.loc 1 1137 5 is_stmt 1 view .LVU637
 1794              	.LVL122:
 1795              	.LBB131:
 1796              	.LBI127:
1370:Drivers/STM32F0xx_HAL_Driver/Src/stm32f0xx_hal_rtc.c **** {
 1797              		.loc 1 1370 9 view .LVU638
 1798              	.LBB129:
1372:Drivers/STM32F0xx_HAL_Driver/Src/stm32f0xx_hal_rtc.c ****   tmp = ((uint8_t)(Value & (uint8_t)0xF0U) >> (uint8_t)0x4U) * 10U;
 1799              		.loc 1 1372 3 view .LVU639
1373:Drivers/STM32F0xx_HAL_Driver/Src/stm32f0xx_hal_rtc.c ****   return (tmp + (Value & (uint8_t)0x0FU));
 1800              		.loc 1 1373 3 view .LVU640
 1801              		.loc 1 1374 3 view .LVU641
1373:Drivers/STM32F0xx_HAL_Driver/Src/stm32f0xx_hal_rtc.c ****   return (tmp + (Value & (uint8_t)0x0FU));
 1802              		.loc 1 1373 44 is_stmt 0 view .LVU642
 1803 0082 1D09     		lsrs	r5, r3, #4
1373:Drivers/STM32F0xx_HAL_Driver/Src/stm32f0xx_hal_rtc.c ****   return (tmp + (Value & (uint8_t)0x0FU));
 1804              		.loc 1 1373 7 view .LVU643
ARM GAS  /var/folders/vr/85797ndx6jd_r3n_lsprlrj40000gn/T//ccWMqnSu.s 			page 67


 1805 0084 AB00     		lsls	r3, r5, #2
 1806 0086 5B19     		adds	r3, r3, r5
 1807 0088 5B00     		lsls	r3, r3, #1
 1808              		.loc 1 1374 24 view .LVU644
 1809 008a 1740     		ands	r7, r2
 1810              		.loc 1 1374 15 view .LVU645
 1811 008c DF19     		adds	r7, r3, r7
 1812              	.LBE129:
 1813              	.LBE131:
 1814              	.LBB132:
 1815              	.LBB133:
1373:Drivers/STM32F0xx_HAL_Driver/Src/stm32f0xx_hal_rtc.c ****   return (tmp + (Value & (uint8_t)0x0FU));
 1816              		.loc 1 1373 44 view .LVU646
 1817 008e 2309     		lsrs	r3, r4, #4
1373:Drivers/STM32F0xx_HAL_Driver/Src/stm32f0xx_hal_rtc.c ****   return (tmp + (Value & (uint8_t)0x0FU));
 1818              		.loc 1 1373 7 view .LVU647
 1819 0090 9C00     		lsls	r4, r3, #2
 1820 0092 E418     		adds	r4, r4, r3
 1821              		.loc 1 1374 24 view .LVU648
 1822 0094 4346     		mov	r3, r8
 1823              	.LBE133:
 1824              	.LBE132:
 1825              	.LBB136:
 1826              	.LBB137:
1373:Drivers/STM32F0xx_HAL_Driver/Src/stm32f0xx_hal_rtc.c ****   return (tmp + (Value & (uint8_t)0x0FU));
 1827              		.loc 1 1373 44 view .LVU649
 1828 0096 0009     		lsrs	r0, r0, #4
 1829              	.LBE137:
 1830              	.LBE136:
 1831              	.LBB141:
 1832              	.LBB134:
 1833              		.loc 1 1374 24 view .LVU650
 1834 0098 1340     		ands	r3, r2
1373:Drivers/STM32F0xx_HAL_Driver/Src/stm32f0xx_hal_rtc.c ****   return (tmp + (Value & (uint8_t)0x0FU));
 1835              		.loc 1 1373 7 view .LVU651
 1836 009a 6400     		lsls	r4, r4, #1
 1837              		.loc 1 1374 15 view .LVU652
 1838 009c E418     		adds	r4, r4, r3
 1839              	.LBE134:
 1840              	.LBE141:
 1841              	.LBB142:
 1842              	.LBB138:
1373:Drivers/STM32F0xx_HAL_Driver/Src/stm32f0xx_hal_rtc.c ****   return (tmp + (Value & (uint8_t)0x0FU));
 1843              		.loc 1 1373 7 view .LVU653
 1844 009e 8300     		lsls	r3, r0, #2
 1845 00a0 1818     		adds	r0, r3, r0
 1846              	.LBE138:
 1847              	.LBE142:
1139:Drivers/STM32F0xx_HAL_Driver/Src/stm32f0xx_hal_rtc.c ****   }  
 1848              		.loc 1 1139 30 view .LVU654
 1849 00a2 5346     		mov	r3, r10
 1850              	.LBB143:
 1851              	.LBB139:
1373:Drivers/STM32F0xx_HAL_Driver/Src/stm32f0xx_hal_rtc.c ****   return (tmp + (Value & (uint8_t)0x0FU));
 1852              		.loc 1 1373 7 view .LVU655
 1853 00a4 4000     		lsls	r0, r0, #1
 1854              		.loc 1 1374 24 view .LVU656
ARM GAS  /var/folders/vr/85797ndx6jd_r3n_lsprlrj40000gn/T//ccWMqnSu.s 			page 68


 1855 00a6 1640     		ands	r6, r2
 1856              		.loc 1 1374 15 view .LVU657
 1857 00a8 8619     		adds	r6, r0, r6
 1858              	.LBE139:
 1859              	.LBE143:
1137:Drivers/STM32F0xx_HAL_Driver/Src/stm32f0xx_hal_rtc.c ****     sAlarm->AlarmTime.Seconds = RTC_Bcd2ToByte(sAlarm->AlarmTime.Seconds);
 1860              		.loc 1 1137 31 view .LVU658
 1861 00aa 4F70     		strb	r7, [r1, #1]
1138:Drivers/STM32F0xx_HAL_Driver/Src/stm32f0xx_hal_rtc.c ****     sAlarm->AlarmDateWeekDay = RTC_Bcd2ToByte(sAlarm->AlarmDateWeekDay);
 1862              		.loc 1 1138 5 is_stmt 1 view .LVU659
 1863              	.LBB144:
 1864              	.LBI132:
1370:Drivers/STM32F0xx_HAL_Driver/Src/stm32f0xx_hal_rtc.c **** {
 1865              		.loc 1 1370 9 view .LVU660
 1866              	.LBB135:
1372:Drivers/STM32F0xx_HAL_Driver/Src/stm32f0xx_hal_rtc.c ****   tmp = ((uint8_t)(Value & (uint8_t)0xF0U) >> (uint8_t)0x4U) * 10U;
 1867              		.loc 1 1372 3 view .LVU661
 1868              	.LVL123:
1373:Drivers/STM32F0xx_HAL_Driver/Src/stm32f0xx_hal_rtc.c ****   return (tmp + (Value & (uint8_t)0x0FU));
 1869              		.loc 1 1373 3 view .LVU662
 1870              		.loc 1 1374 3 view .LVU663
 1871              	.LBE135:
 1872              	.LBE144:
1138:Drivers/STM32F0xx_HAL_Driver/Src/stm32f0xx_hal_rtc.c ****     sAlarm->AlarmDateWeekDay = RTC_Bcd2ToByte(sAlarm->AlarmDateWeekDay);
 1873              		.loc 1 1138 31 is_stmt 0 view .LVU664
 1874 00ac 8C70     		strb	r4, [r1, #2]
1139:Drivers/STM32F0xx_HAL_Driver/Src/stm32f0xx_hal_rtc.c ****   }  
 1875              		.loc 1 1139 5 is_stmt 1 view .LVU665
 1876              	.LBB145:
 1877              	.LBI136:
1370:Drivers/STM32F0xx_HAL_Driver/Src/stm32f0xx_hal_rtc.c **** {
 1878              		.loc 1 1370 9 view .LVU666
 1879              	.LBB140:
1372:Drivers/STM32F0xx_HAL_Driver/Src/stm32f0xx_hal_rtc.c ****   tmp = ((uint8_t)(Value & (uint8_t)0xF0U) >> (uint8_t)0x4U) * 10U;
 1880              		.loc 1 1372 3 view .LVU667
 1881              	.LVL124:
1373:Drivers/STM32F0xx_HAL_Driver/Src/stm32f0xx_hal_rtc.c ****   return (tmp + (Value & (uint8_t)0x0FU));
 1882              		.loc 1 1373 3 view .LVU668
 1883              		.loc 1 1374 3 view .LVU669
 1884              	.LBE140:
 1885              	.LBE145:
1139:Drivers/STM32F0xx_HAL_Driver/Src/stm32f0xx_hal_rtc.c ****   }  
 1886              		.loc 1 1139 30 is_stmt 0 view .LVU670
 1887 00ae CE54     		strb	r6, [r1, r3]
 1888              	.L78:
1142:Drivers/STM32F0xx_HAL_Driver/Src/stm32f0xx_hal_rtc.c **** }
 1889              		.loc 1 1142 3 is_stmt 1 view .LVU671
1143:Drivers/STM32F0xx_HAL_Driver/Src/stm32f0xx_hal_rtc.c **** 
 1890              		.loc 1 1143 1 is_stmt 0 view .LVU672
 1891 00b0 0020     		movs	r0, #0
 1892 00b2 03B0     		add	sp, sp, #12
 1893              		@ sp needed
 1894              	.LVL125:
1143:Drivers/STM32F0xx_HAL_Driver/Src/stm32f0xx_hal_rtc.c **** 
 1895              		.loc 1 1143 1 view .LVU673
 1896 00b4 3CBC     		pop	{r2, r3, r4, r5}
 1897 00b6 9046     		mov	r8, r2
ARM GAS  /var/folders/vr/85797ndx6jd_r3n_lsprlrj40000gn/T//ccWMqnSu.s 			page 69


 1898 00b8 9946     		mov	r9, r3
 1899 00ba A246     		mov	r10, r4
 1900 00bc AB46     		mov	fp, r5
 1901 00be F0BD     		pop	{r4, r5, r6, r7, pc}
 1902              	.L80:
 1903              		.align	2
 1904              	.L79:
 1905 00c0 80808080 		.word	-2139062144
 1906              		.cfi_endproc
 1907              	.LFE48:
 1909              		.section	.text.HAL_RTC_AlarmAEventCallback,"ax",%progbits
 1910              		.align	1
 1911              		.p2align 2,,3
 1912              		.weak	HAL_RTC_AlarmAEventCallback
 1913              		.syntax unified
 1914              		.code	16
 1915              		.thumb_func
 1916              		.fpu softvfp
 1918              	HAL_RTC_AlarmAEventCallback:
 1919              	.LFB60:
 1920              		.cfi_startproc
 1921              		@ args = 0, pretend = 0, frame = 0
 1922              		@ frame_needed = 0, uses_anonymous_args = 0
 1923              		@ link register save eliminated.
 1924              		@ sp needed
 1925 0000 7047     		bx	lr
 1926              		.cfi_endproc
 1927              	.LFE60:
 1929 0002 C046     		.section	.text.HAL_RTC_AlarmIRQHandler,"ax",%progbits
 1930              		.align	1
 1931              		.p2align 2,,3
 1932              		.global	HAL_RTC_AlarmIRQHandler
 1933              		.syntax unified
 1934              		.code	16
 1935              		.thumb_func
 1936              		.fpu softvfp
 1938              	HAL_RTC_AlarmIRQHandler:
 1939              	.LVL126:
 1940              	.LFB49:
1151:Drivers/STM32F0xx_HAL_Driver/Src/stm32f0xx_hal_rtc.c ****   /* Get the AlarmA interrupt source enable status */
 1941              		.loc 1 1151 1 is_stmt 1 view -0
 1942              		.cfi_startproc
 1943              		@ args = 0, pretend = 0, frame = 0
 1944              		@ frame_needed = 0, uses_anonymous_args = 0
1153:Drivers/STM32F0xx_HAL_Driver/Src/stm32f0xx_hal_rtc.c ****   {
 1945              		.loc 1 1153 3 view .LVU675
1153:Drivers/STM32F0xx_HAL_Driver/Src/stm32f0xx_hal_rtc.c ****   {
 1946              		.loc 1 1153 6 is_stmt 0 view .LVU676
 1947 0000 0368     		ldr	r3, [r0]
1151:Drivers/STM32F0xx_HAL_Driver/Src/stm32f0xx_hal_rtc.c ****   /* Get the AlarmA interrupt source enable status */
 1948              		.loc 1 1151 1 view .LVU677
 1949 0002 10B5     		push	{r4, lr}
 1950              	.LCFI11:
 1951              		.cfi_def_cfa_offset 8
 1952              		.cfi_offset 4, -8
 1953              		.cfi_offset 14, -4
1153:Drivers/STM32F0xx_HAL_Driver/Src/stm32f0xx_hal_rtc.c ****   {
ARM GAS  /var/folders/vr/85797ndx6jd_r3n_lsprlrj40000gn/T//ccWMqnSu.s 			page 70


 1954              		.loc 1 1153 6 view .LVU678
 1955 0004 9A68     		ldr	r2, [r3, #8]
1151:Drivers/STM32F0xx_HAL_Driver/Src/stm32f0xx_hal_rtc.c ****   /* Get the AlarmA interrupt source enable status */
 1956              		.loc 1 1151 1 view .LVU679
 1957 0006 0400     		movs	r4, r0
1153:Drivers/STM32F0xx_HAL_Driver/Src/stm32f0xx_hal_rtc.c ****   {
 1958              		.loc 1 1153 5 view .LVU680
 1959 0008 D204     		lsls	r2, r2, #19
 1960 000a 02D5     		bpl	.L83
1156:Drivers/STM32F0xx_HAL_Driver/Src/stm32f0xx_hal_rtc.c ****     {
 1961              		.loc 1 1156 5 is_stmt 1 view .LVU681
1156:Drivers/STM32F0xx_HAL_Driver/Src/stm32f0xx_hal_rtc.c ****     {
 1962              		.loc 1 1156 8 is_stmt 0 view .LVU682
 1963 000c DB68     		ldr	r3, [r3, #12]
1156:Drivers/STM32F0xx_HAL_Driver/Src/stm32f0xx_hal_rtc.c ****     {
 1964              		.loc 1 1156 7 view .LVU683
 1965 000e DB05     		lsls	r3, r3, #23
 1966 0010 06D4     		bmi	.L90
 1967              	.LVL127:
 1968              	.L83:
1167:Drivers/STM32F0xx_HAL_Driver/Src/stm32f0xx_hal_rtc.c ****   
 1969              		.loc 1 1167 3 is_stmt 1 view .LVU684
 1970 0012 8022     		movs	r2, #128
 1971 0014 074B     		ldr	r3, .L91
 1972 0016 9202     		lsls	r2, r2, #10
 1973 0018 5A61     		str	r2, [r3, #20]
1170:Drivers/STM32F0xx_HAL_Driver/Src/stm32f0xx_hal_rtc.c **** }
 1974              		.loc 1 1170 3 view .LVU685
1170:Drivers/STM32F0xx_HAL_Driver/Src/stm32f0xx_hal_rtc.c **** }
 1975              		.loc 1 1170 15 is_stmt 0 view .LVU686
 1976 001a 0123     		movs	r3, #1
1171:Drivers/STM32F0xx_HAL_Driver/Src/stm32f0xx_hal_rtc.c **** 
 1977              		.loc 1 1171 1 view .LVU687
 1978              		@ sp needed
1170:Drivers/STM32F0xx_HAL_Driver/Src/stm32f0xx_hal_rtc.c **** }
 1979              		.loc 1 1170 15 view .LVU688
 1980 001c 6377     		strb	r3, [r4, #29]
 1981              	.LVL128:
1171:Drivers/STM32F0xx_HAL_Driver/Src/stm32f0xx_hal_rtc.c **** 
 1982              		.loc 1 1171 1 view .LVU689
 1983 001e 10BD     		pop	{r4, pc}
 1984              	.LVL129:
 1985              	.L90:
1159:Drivers/STM32F0xx_HAL_Driver/Src/stm32f0xx_hal_rtc.c **** 
 1986              		.loc 1 1159 7 is_stmt 1 view .LVU690
 1987 0020 FFF7FEFF 		bl	HAL_RTC_AlarmAEventCallback
 1988              	.LVL130:
1162:Drivers/STM32F0xx_HAL_Driver/Src/stm32f0xx_hal_rtc.c ****     }
 1989              		.loc 1 1162 7 view .LVU691
 1990 0024 FF23     		movs	r3, #255
 1991 0026 2168     		ldr	r1, [r4]
 1992 0028 CA68     		ldr	r2, [r1, #12]
 1993 002a 1A40     		ands	r2, r3
 1994 002c 024B     		ldr	r3, .L91+4
 1995 002e 1343     		orrs	r3, r2
 1996 0030 CB60     		str	r3, [r1, #12]
 1997 0032 EEE7     		b	.L83
ARM GAS  /var/folders/vr/85797ndx6jd_r3n_lsprlrj40000gn/T//ccWMqnSu.s 			page 71


 1998              	.L92:
 1999              		.align	2
 2000              	.L91:
 2001 0034 00040140 		.word	1073808384
 2002 0038 7FFEFFFF 		.word	-385
 2003              		.cfi_endproc
 2004              	.LFE49:
 2006              		.section	.text.HAL_RTC_PollForAlarmAEvent,"ax",%progbits
 2007              		.align	1
 2008              		.p2align 2,,3
 2009              		.global	HAL_RTC_PollForAlarmAEvent
 2010              		.syntax unified
 2011              		.code	16
 2012              		.thumb_func
 2013              		.fpu softvfp
 2015              	HAL_RTC_PollForAlarmAEvent:
 2016              	.LVL131:
 2017              	.LFB51:
1195:Drivers/STM32F0xx_HAL_Driver/Src/stm32f0xx_hal_rtc.c **** 
 2018              		.loc 1 1195 1 view -0
 2019              		.cfi_startproc
 2020              		@ args = 0, pretend = 0, frame = 0
 2021              		@ frame_needed = 0, uses_anonymous_args = 0
1197:Drivers/STM32F0xx_HAL_Driver/Src/stm32f0xx_hal_rtc.c ****   
 2022              		.loc 1 1197 3 view .LVU693
1195:Drivers/STM32F0xx_HAL_Driver/Src/stm32f0xx_hal_rtc.c **** 
 2023              		.loc 1 1195 1 is_stmt 0 view .LVU694
 2024 0000 F8B5     		push	{r3, r4, r5, r6, r7, lr}
 2025              	.LCFI12:
 2026              		.cfi_def_cfa_offset 24
 2027              		.cfi_offset 3, -24
 2028              		.cfi_offset 4, -20
 2029              		.cfi_offset 5, -16
 2030              		.cfi_offset 6, -12
 2031              		.cfi_offset 7, -8
 2032              		.cfi_offset 14, -4
1195:Drivers/STM32F0xx_HAL_Driver/Src/stm32f0xx_hal_rtc.c **** 
 2033              		.loc 1 1195 1 view .LVU695
 2034 0002 0600     		movs	r6, r0
 2035 0004 0C00     		movs	r4, r1
1197:Drivers/STM32F0xx_HAL_Driver/Src/stm32f0xx_hal_rtc.c ****   
 2036              		.loc 1 1197 24 view .LVU696
 2037 0006 FFF7FEFF 		bl	HAL_GetTick
 2038              	.LVL132:
1199:Drivers/STM32F0xx_HAL_Driver/Src/stm32f0xx_hal_rtc.c ****   {
 2039              		.loc 1 1199 9 view .LVU697
 2040 000a 8025     		movs	r5, #128
1197:Drivers/STM32F0xx_HAL_Driver/Src/stm32f0xx_hal_rtc.c ****   
 2041              		.loc 1 1197 24 view .LVU698
 2042 000c 0700     		movs	r7, r0
 2043              	.LVL133:
1199:Drivers/STM32F0xx_HAL_Driver/Src/stm32f0xx_hal_rtc.c ****   {
 2044              		.loc 1 1199 3 is_stmt 1 view .LVU699
1199:Drivers/STM32F0xx_HAL_Driver/Src/stm32f0xx_hal_rtc.c ****   {
 2045              		.loc 1 1199 9 is_stmt 0 view .LVU700
 2046 000e 6D00     		lsls	r5, r5, #1
 2047              	.LVL134:
ARM GAS  /var/folders/vr/85797ndx6jd_r3n_lsprlrj40000gn/T//ccWMqnSu.s 			page 72


 2048              	.L94:
1199:Drivers/STM32F0xx_HAL_Driver/Src/stm32f0xx_hal_rtc.c ****   {
 2049              		.loc 1 1199 9 view .LVU701
 2050 0010 3268     		ldr	r2, [r6]
 2051 0012 01E0     		b	.L95
 2052              	.L99:
1201:Drivers/STM32F0xx_HAL_Driver/Src/stm32f0xx_hal_rtc.c ****     {
 2053              		.loc 1 1201 5 is_stmt 1 view .LVU702
1201:Drivers/STM32F0xx_HAL_Driver/Src/stm32f0xx_hal_rtc.c ****     {
 2054              		.loc 1 1201 7 is_stmt 0 view .LVU703
 2055 0014 631C     		adds	r3, r4, #1
 2056 0016 0CD1     		bne	.L102
 2057              	.L95:
1199:Drivers/STM32F0xx_HAL_Driver/Src/stm32f0xx_hal_rtc.c ****   {
 2058              		.loc 1 1199 9 view .LVU704
 2059 0018 D368     		ldr	r3, [r2, #12]
1199:Drivers/STM32F0xx_HAL_Driver/Src/stm32f0xx_hal_rtc.c ****   {
 2060              		.loc 1 1199 8 view .LVU705
 2061 001a 2B42     		tst	r3, r5
 2062 001c FAD0     		beq	.L99
1212:Drivers/STM32F0xx_HAL_Driver/Src/stm32f0xx_hal_rtc.c ****   
 2063              		.loc 1 1212 3 is_stmt 1 view .LVU706
 2064 001e FF23     		movs	r3, #255
 2065 0020 D168     		ldr	r1, [r2, #12]
1217:Drivers/STM32F0xx_HAL_Driver/Src/stm32f0xx_hal_rtc.c **** }
 2066              		.loc 1 1217 10 is_stmt 0 view .LVU707
 2067 0022 0020     		movs	r0, #0
1212:Drivers/STM32F0xx_HAL_Driver/Src/stm32f0xx_hal_rtc.c ****   
 2068              		.loc 1 1212 3 view .LVU708
 2069 0024 1940     		ands	r1, r3
 2070 0026 084B     		ldr	r3, .L103
 2071 0028 0B43     		orrs	r3, r1
 2072 002a D360     		str	r3, [r2, #12]
1215:Drivers/STM32F0xx_HAL_Driver/Src/stm32f0xx_hal_rtc.c ****   
 2073              		.loc 1 1215 3 is_stmt 1 view .LVU709
1215:Drivers/STM32F0xx_HAL_Driver/Src/stm32f0xx_hal_rtc.c ****   
 2074              		.loc 1 1215 15 is_stmt 0 view .LVU710
 2075 002c 0123     		movs	r3, #1
 2076 002e 7377     		strb	r3, [r6, #29]
1217:Drivers/STM32F0xx_HAL_Driver/Src/stm32f0xx_hal_rtc.c **** }
 2077              		.loc 1 1217 3 is_stmt 1 view .LVU711
 2078              	.L97:
1218:Drivers/STM32F0xx_HAL_Driver/Src/stm32f0xx_hal_rtc.c **** 
 2079              		.loc 1 1218 1 is_stmt 0 view .LVU712
 2080              		@ sp needed
 2081              	.LVL135:
 2082              	.LVL136:
 2083              	.LVL137:
1218:Drivers/STM32F0xx_HAL_Driver/Src/stm32f0xx_hal_rtc.c **** 
 2084              		.loc 1 1218 1 view .LVU713
 2085 0030 F8BD     		pop	{r3, r4, r5, r6, r7, pc}
 2086              	.LVL138:
 2087              	.L102:
1203:Drivers/STM32F0xx_HAL_Driver/Src/stm32f0xx_hal_rtc.c ****       {
 2088              		.loc 1 1203 7 is_stmt 1 view .LVU714
1203:Drivers/STM32F0xx_HAL_Driver/Src/stm32f0xx_hal_rtc.c ****       {
 2089              		.loc 1 1203 9 is_stmt 0 view .LVU715
ARM GAS  /var/folders/vr/85797ndx6jd_r3n_lsprlrj40000gn/T//ccWMqnSu.s 			page 73


 2090 0032 002C     		cmp	r4, #0
 2091 0034 04D0     		beq	.L98
1203:Drivers/STM32F0xx_HAL_Driver/Src/stm32f0xx_hal_rtc.c ****       {
 2092              		.loc 1 1203 31 discriminator 1 view .LVU716
 2093 0036 FFF7FEFF 		bl	HAL_GetTick
 2094              	.LVL139:
1203:Drivers/STM32F0xx_HAL_Driver/Src/stm32f0xx_hal_rtc.c ****       {
 2095              		.loc 1 1203 45 discriminator 1 view .LVU717
 2096 003a C01B     		subs	r0, r0, r7
1203:Drivers/STM32F0xx_HAL_Driver/Src/stm32f0xx_hal_rtc.c ****       {
 2097              		.loc 1 1203 26 discriminator 1 view .LVU718
 2098 003c A042     		cmp	r0, r4
 2099 003e E7D9     		bls	.L94
 2100              	.L98:
1205:Drivers/STM32F0xx_HAL_Driver/Src/stm32f0xx_hal_rtc.c ****         return HAL_TIMEOUT;
 2101              		.loc 1 1205 9 is_stmt 1 view .LVU719
1205:Drivers/STM32F0xx_HAL_Driver/Src/stm32f0xx_hal_rtc.c ****         return HAL_TIMEOUT;
 2102              		.loc 1 1205 21 is_stmt 0 view .LVU720
 2103 0040 0323     		movs	r3, #3
1206:Drivers/STM32F0xx_HAL_Driver/Src/stm32f0xx_hal_rtc.c ****       }
 2104              		.loc 1 1206 16 view .LVU721
 2105 0042 0320     		movs	r0, #3
1205:Drivers/STM32F0xx_HAL_Driver/Src/stm32f0xx_hal_rtc.c ****         return HAL_TIMEOUT;
 2106              		.loc 1 1205 21 view .LVU722
 2107 0044 7377     		strb	r3, [r6, #29]
1206:Drivers/STM32F0xx_HAL_Driver/Src/stm32f0xx_hal_rtc.c ****       }
 2108              		.loc 1 1206 9 is_stmt 1 view .LVU723
1206:Drivers/STM32F0xx_HAL_Driver/Src/stm32f0xx_hal_rtc.c ****       }
 2109              		.loc 1 1206 16 is_stmt 0 view .LVU724
 2110 0046 F3E7     		b	.L97
 2111              	.L104:
 2112              		.align	2
 2113              	.L103:
 2114 0048 7FFEFFFF 		.word	-385
 2115              		.cfi_endproc
 2116              	.LFE51:
 2118              		.section	.text.HAL_RTC_WaitForSynchro,"ax",%progbits
 2119              		.align	1
 2120              		.p2align 2,,3
 2121              		.global	HAL_RTC_WaitForSynchro
 2122              		.syntax unified
 2123              		.code	16
 2124              		.thumb_func
 2125              		.fpu softvfp
 2127              	HAL_RTC_WaitForSynchro:
 2128              	.LVL140:
 2129              	.LFB52:
1254:Drivers/STM32F0xx_HAL_Driver/Src/stm32f0xx_hal_rtc.c ****   uint32_t tickstart = 0U;
 2130              		.loc 1 1254 1 is_stmt 1 view -0
 2131              		.cfi_startproc
 2132              		@ args = 0, pretend = 0, frame = 0
 2133              		@ frame_needed = 0, uses_anonymous_args = 0
1255:Drivers/STM32F0xx_HAL_Driver/Src/stm32f0xx_hal_rtc.c **** 
 2134              		.loc 1 1255 3 view .LVU726
1258:Drivers/STM32F0xx_HAL_Driver/Src/stm32f0xx_hal_rtc.c **** 
 2135              		.loc 1 1258 3 view .LVU727
1258:Drivers/STM32F0xx_HAL_Driver/Src/stm32f0xx_hal_rtc.c **** 
ARM GAS  /var/folders/vr/85797ndx6jd_r3n_lsprlrj40000gn/T//ccWMqnSu.s 			page 74


 2136              		.loc 1 1258 23 is_stmt 0 view .LVU728
 2137 0000 A021     		movs	r1, #160
1258:Drivers/STM32F0xx_HAL_Driver/Src/stm32f0xx_hal_rtc.c **** 
 2138              		.loc 1 1258 7 view .LVU729
 2139 0002 0268     		ldr	r2, [r0]
1254:Drivers/STM32F0xx_HAL_Driver/Src/stm32f0xx_hal_rtc.c ****   uint32_t tickstart = 0U;
 2140              		.loc 1 1254 1 view .LVU730
 2141 0004 F8B5     		push	{r3, r4, r5, r6, r7, lr}
 2142              	.LCFI13:
 2143              		.cfi_def_cfa_offset 24
 2144              		.cfi_offset 3, -24
 2145              		.cfi_offset 4, -20
 2146              		.cfi_offset 5, -16
 2147              		.cfi_offset 6, -12
 2148              		.cfi_offset 7, -8
 2149              		.cfi_offset 14, -4
1258:Drivers/STM32F0xx_HAL_Driver/Src/stm32f0xx_hal_rtc.c **** 
 2150              		.loc 1 1258 23 view .LVU731
 2151 0006 D368     		ldr	r3, [r2, #12]
1254:Drivers/STM32F0xx_HAL_Driver/Src/stm32f0xx_hal_rtc.c ****   uint32_t tickstart = 0U;
 2152              		.loc 1 1254 1 view .LVU732
 2153 0008 0400     		movs	r4, r0
1258:Drivers/STM32F0xx_HAL_Driver/Src/stm32f0xx_hal_rtc.c **** 
 2154              		.loc 1 1258 23 view .LVU733
 2155 000a 8B43     		bics	r3, r1
 2156 000c D360     		str	r3, [r2, #12]
1260:Drivers/STM32F0xx_HAL_Driver/Src/stm32f0xx_hal_rtc.c **** 
 2157              		.loc 1 1260 3 is_stmt 1 view .LVU734
1260:Drivers/STM32F0xx_HAL_Driver/Src/stm32f0xx_hal_rtc.c **** 
 2158              		.loc 1 1260 15 is_stmt 0 view .LVU735
 2159 000e FFF7FEFF 		bl	HAL_GetTick
 2160              	.LVL141:
1265:Drivers/STM32F0xx_HAL_Driver/Src/stm32f0xx_hal_rtc.c ****     {       
 2161              		.loc 1 1265 7 view .LVU736
 2162 0012 FA26     		movs	r6, #250
1260:Drivers/STM32F0xx_HAL_Driver/Src/stm32f0xx_hal_rtc.c **** 
 2163              		.loc 1 1260 15 view .LVU737
 2164 0014 0700     		movs	r7, r0
 2165              	.LVL142:
1263:Drivers/STM32F0xx_HAL_Driver/Src/stm32f0xx_hal_rtc.c ****   {
 2166              		.loc 1 1263 3 is_stmt 1 view .LVU738
1263:Drivers/STM32F0xx_HAL_Driver/Src/stm32f0xx_hal_rtc.c ****   {
 2167              		.loc 1 1263 30 is_stmt 0 view .LVU739
 2168 0016 2025     		movs	r5, #32
1265:Drivers/STM32F0xx_HAL_Driver/Src/stm32f0xx_hal_rtc.c ****     {       
 2169              		.loc 1 1265 7 view .LVU740
 2170 0018 B600     		lsls	r6, r6, #2
1263:Drivers/STM32F0xx_HAL_Driver/Src/stm32f0xx_hal_rtc.c ****   {
 2171              		.loc 1 1263 8 view .LVU741
 2172 001a 04E0     		b	.L106
 2173              	.LVL143:
 2174              	.L108:
1265:Drivers/STM32F0xx_HAL_Driver/Src/stm32f0xx_hal_rtc.c ****     {       
 2175              		.loc 1 1265 5 is_stmt 1 view .LVU742
1265:Drivers/STM32F0xx_HAL_Driver/Src/stm32f0xx_hal_rtc.c ****     {       
 2176              		.loc 1 1265 9 is_stmt 0 view .LVU743
 2177 001c FFF7FEFF 		bl	HAL_GetTick
ARM GAS  /var/folders/vr/85797ndx6jd_r3n_lsprlrj40000gn/T//ccWMqnSu.s 			page 75


 2178              	.LVL144:
1265:Drivers/STM32F0xx_HAL_Driver/Src/stm32f0xx_hal_rtc.c ****     {       
 2179              		.loc 1 1265 22 view .LVU744
 2180 0020 C01B     		subs	r0, r0, r7
1265:Drivers/STM32F0xx_HAL_Driver/Src/stm32f0xx_hal_rtc.c ****     {       
 2181              		.loc 1 1265 7 view .LVU745
 2182 0022 B042     		cmp	r0, r6
 2183 0024 05D8     		bhi	.L109
 2184              	.L106:
1263:Drivers/STM32F0xx_HAL_Driver/Src/stm32f0xx_hal_rtc.c ****   {
 2185              		.loc 1 1263 14 view .LVU746
 2186 0026 2368     		ldr	r3, [r4]
1263:Drivers/STM32F0xx_HAL_Driver/Src/stm32f0xx_hal_rtc.c ****   {
 2187              		.loc 1 1263 24 view .LVU747
 2188 0028 DB68     		ldr	r3, [r3, #12]
1263:Drivers/STM32F0xx_HAL_Driver/Src/stm32f0xx_hal_rtc.c ****   {
 2189              		.loc 1 1263 8 view .LVU748
 2190 002a 1D42     		tst	r5, r3
 2191 002c F6D0     		beq	.L108
1271:Drivers/STM32F0xx_HAL_Driver/Src/stm32f0xx_hal_rtc.c **** }
 2192              		.loc 1 1271 10 view .LVU749
 2193 002e 0020     		movs	r0, #0
 2194              	.L107:
1272:Drivers/STM32F0xx_HAL_Driver/Src/stm32f0xx_hal_rtc.c **** 
 2195              		.loc 1 1272 1 view .LVU750
 2196              		@ sp needed
 2197              	.LVL145:
 2198              	.LVL146:
1272:Drivers/STM32F0xx_HAL_Driver/Src/stm32f0xx_hal_rtc.c **** 
 2199              		.loc 1 1272 1 view .LVU751
 2200 0030 F8BD     		pop	{r3, r4, r5, r6, r7, pc}
 2201              	.LVL147:
 2202              	.L109:
1267:Drivers/STM32F0xx_HAL_Driver/Src/stm32f0xx_hal_rtc.c ****     } 
 2203              		.loc 1 1267 14 view .LVU752
 2204 0032 0320     		movs	r0, #3
 2205 0034 FCE7     		b	.L107
 2206              		.cfi_endproc
 2207              	.LFE52:
 2209 0036 C046     		.section	.text.HAL_RTC_GetState,"ax",%progbits
 2210              		.align	1
 2211              		.p2align 2,,3
 2212              		.global	HAL_RTC_GetState
 2213              		.syntax unified
 2214              		.code	16
 2215              		.thumb_func
 2216              		.fpu softvfp
 2218              	HAL_RTC_GetState:
 2219              	.LVL148:
 2220              	.LFB53:
1298:Drivers/STM32F0xx_HAL_Driver/Src/stm32f0xx_hal_rtc.c ****   /* Return RTC handle state */
 2221              		.loc 1 1298 1 is_stmt 1 view -0
 2222              		.cfi_startproc
 2223              		@ args = 0, pretend = 0, frame = 0
 2224              		@ frame_needed = 0, uses_anonymous_args = 0
 2225              		@ link register save eliminated.
1300:Drivers/STM32F0xx_HAL_Driver/Src/stm32f0xx_hal_rtc.c **** }
ARM GAS  /var/folders/vr/85797ndx6jd_r3n_lsprlrj40000gn/T//ccWMqnSu.s 			page 76


 2226              		.loc 1 1300 3 view .LVU754
1300:Drivers/STM32F0xx_HAL_Driver/Src/stm32f0xx_hal_rtc.c **** }
 2227              		.loc 1 1300 14 is_stmt 0 view .LVU755
 2228 0000 407F     		ldrb	r0, [r0, #29]
 2229              	.LVL149:
1301:Drivers/STM32F0xx_HAL_Driver/Src/stm32f0xx_hal_rtc.c **** 
 2230              		.loc 1 1301 1 view .LVU756
 2231              		@ sp needed
1300:Drivers/STM32F0xx_HAL_Driver/Src/stm32f0xx_hal_rtc.c **** }
 2232              		.loc 1 1300 14 view .LVU757
 2233 0002 C0B2     		uxtb	r0, r0
1301:Drivers/STM32F0xx_HAL_Driver/Src/stm32f0xx_hal_rtc.c **** 
 2234              		.loc 1 1301 1 view .LVU758
 2235 0004 7047     		bx	lr
 2236              		.cfi_endproc
 2237              	.LFE53:
 2239 0006 C046     		.section	.text.RTC_EnterInitMode,"ax",%progbits
 2240              		.align	1
 2241              		.p2align 2,,3
 2242              		.global	RTC_EnterInitMode
 2243              		.syntax unified
 2244              		.code	16
 2245              		.thumb_func
 2246              		.fpu softvfp
 2248              	RTC_EnterInitMode:
 2249              	.LVL150:
 2250              	.LFB54:
1322:Drivers/STM32F0xx_HAL_Driver/Src/stm32f0xx_hal_rtc.c ****   uint32_t tickstart = 0U;
 2251              		.loc 1 1322 1 is_stmt 1 view -0
 2252              		.cfi_startproc
 2253              		@ args = 0, pretend = 0, frame = 0
 2254              		@ frame_needed = 0, uses_anonymous_args = 0
1323:Drivers/STM32F0xx_HAL_Driver/Src/stm32f0xx_hal_rtc.c ****   
 2255              		.loc 1 1323 3 view .LVU760
1326:Drivers/STM32F0xx_HAL_Driver/Src/stm32f0xx_hal_rtc.c ****   {
 2256              		.loc 1 1326 3 view .LVU761
1322:Drivers/STM32F0xx_HAL_Driver/Src/stm32f0xx_hal_rtc.c ****   uint32_t tickstart = 0U;
 2257              		.loc 1 1322 1 is_stmt 0 view .LVU762
 2258 0000 F8B5     		push	{r3, r4, r5, r6, r7, lr}
 2259              	.LCFI14:
 2260              		.cfi_def_cfa_offset 24
 2261              		.cfi_offset 3, -24
 2262              		.cfi_offset 4, -20
 2263              		.cfi_offset 5, -16
 2264              		.cfi_offset 6, -12
 2265              		.cfi_offset 7, -8
 2266              		.cfi_offset 14, -4
1326:Drivers/STM32F0xx_HAL_Driver/Src/stm32f0xx_hal_rtc.c ****   {
 2267              		.loc 1 1326 11 view .LVU763
 2268 0002 0368     		ldr	r3, [r0]
1322:Drivers/STM32F0xx_HAL_Driver/Src/stm32f0xx_hal_rtc.c ****   uint32_t tickstart = 0U;
 2269              		.loc 1 1322 1 view .LVU764
 2270 0004 0400     		movs	r4, r0
1326:Drivers/STM32F0xx_HAL_Driver/Src/stm32f0xx_hal_rtc.c ****   {
 2271              		.loc 1 1326 21 view .LVU765
 2272 0006 DA68     		ldr	r2, [r3, #12]
1326:Drivers/STM32F0xx_HAL_Driver/Src/stm32f0xx_hal_rtc.c ****   {
ARM GAS  /var/folders/vr/85797ndx6jd_r3n_lsprlrj40000gn/T//ccWMqnSu.s 			page 77


 2273              		.loc 1 1326 5 view .LVU766
 2274 0008 5206     		lsls	r2, r2, #25
 2275 000a 01D5     		bpl	.L112
 2276              	.LVL151:
 2277              	.L116:
1343:Drivers/STM32F0xx_HAL_Driver/Src/stm32f0xx_hal_rtc.c **** }
 2278              		.loc 1 1343 10 view .LVU767
 2279 000c 0020     		movs	r0, #0
 2280              	.L113:
1344:Drivers/STM32F0xx_HAL_Driver/Src/stm32f0xx_hal_rtc.c **** 
 2281              		.loc 1 1344 1 view .LVU768
 2282              		@ sp needed
 2283              	.LVL152:
1344:Drivers/STM32F0xx_HAL_Driver/Src/stm32f0xx_hal_rtc.c **** 
 2284              		.loc 1 1344 1 view .LVU769
 2285 000e F8BD     		pop	{r3, r4, r5, r6, r7, pc}
 2286              	.LVL153:
 2287              	.L112:
1329:Drivers/STM32F0xx_HAL_Driver/Src/stm32f0xx_hal_rtc.c ****     
 2288              		.loc 1 1329 5 is_stmt 1 view .LVU770
1329:Drivers/STM32F0xx_HAL_Driver/Src/stm32f0xx_hal_rtc.c ****     
 2289              		.loc 1 1329 25 is_stmt 0 view .LVU771
 2290 0010 0122     		movs	r2, #1
 2291 0012 5242     		rsbs	r2, r2, #0
 2292 0014 DA60     		str	r2, [r3, #12]
1331:Drivers/STM32F0xx_HAL_Driver/Src/stm32f0xx_hal_rtc.c ****     
 2293              		.loc 1 1331 5 is_stmt 1 view .LVU772
1331:Drivers/STM32F0xx_HAL_Driver/Src/stm32f0xx_hal_rtc.c ****     
 2294              		.loc 1 1331 17 is_stmt 0 view .LVU773
 2295 0016 FFF7FEFF 		bl	HAL_GetTick
 2296              	.LVL154:
1336:Drivers/STM32F0xx_HAL_Driver/Src/stm32f0xx_hal_rtc.c ****       {       
 2297              		.loc 1 1336 9 view .LVU774
 2298 001a FA26     		movs	r6, #250
1331:Drivers/STM32F0xx_HAL_Driver/Src/stm32f0xx_hal_rtc.c ****     
 2299              		.loc 1 1331 17 view .LVU775
 2300 001c 0700     		movs	r7, r0
 2301              	.LVL155:
1334:Drivers/STM32F0xx_HAL_Driver/Src/stm32f0xx_hal_rtc.c ****     {
 2302              		.loc 1 1334 5 is_stmt 1 view .LVU776
1334:Drivers/STM32F0xx_HAL_Driver/Src/stm32f0xx_hal_rtc.c ****     {
 2303              		.loc 1 1334 32 is_stmt 0 view .LVU777
 2304 001e 4025     		movs	r5, #64
1336:Drivers/STM32F0xx_HAL_Driver/Src/stm32f0xx_hal_rtc.c ****       {       
 2305              		.loc 1 1336 9 view .LVU778
 2306 0020 B600     		lsls	r6, r6, #2
1334:Drivers/STM32F0xx_HAL_Driver/Src/stm32f0xx_hal_rtc.c ****     {
 2307              		.loc 1 1334 10 view .LVU779
 2308 0022 04E0     		b	.L114
 2309              	.LVL156:
 2310              	.L115:
1336:Drivers/STM32F0xx_HAL_Driver/Src/stm32f0xx_hal_rtc.c ****       {       
 2311              		.loc 1 1336 7 is_stmt 1 view .LVU780
1336:Drivers/STM32F0xx_HAL_Driver/Src/stm32f0xx_hal_rtc.c ****       {       
 2312              		.loc 1 1336 11 is_stmt 0 view .LVU781
 2313 0024 FFF7FEFF 		bl	HAL_GetTick
 2314              	.LVL157:
ARM GAS  /var/folders/vr/85797ndx6jd_r3n_lsprlrj40000gn/T//ccWMqnSu.s 			page 78


1336:Drivers/STM32F0xx_HAL_Driver/Src/stm32f0xx_hal_rtc.c ****       {       
 2315              		.loc 1 1336 24 view .LVU782
 2316 0028 C01B     		subs	r0, r0, r7
1336:Drivers/STM32F0xx_HAL_Driver/Src/stm32f0xx_hal_rtc.c ****       {       
 2317              		.loc 1 1336 9 view .LVU783
 2318 002a B042     		cmp	r0, r6
 2319 002c 04D8     		bhi	.L117
 2320              	.L114:
1334:Drivers/STM32F0xx_HAL_Driver/Src/stm32f0xx_hal_rtc.c ****     {
 2321              		.loc 1 1334 16 view .LVU784
 2322 002e 2368     		ldr	r3, [r4]
1334:Drivers/STM32F0xx_HAL_Driver/Src/stm32f0xx_hal_rtc.c ****     {
 2323              		.loc 1 1334 26 view .LVU785
 2324 0030 DB68     		ldr	r3, [r3, #12]
1334:Drivers/STM32F0xx_HAL_Driver/Src/stm32f0xx_hal_rtc.c ****     {
 2325              		.loc 1 1334 10 view .LVU786
 2326 0032 1D42     		tst	r5, r3
 2327 0034 F6D0     		beq	.L115
 2328 0036 E9E7     		b	.L116
 2329              	.L117:
1338:Drivers/STM32F0xx_HAL_Driver/Src/stm32f0xx_hal_rtc.c ****       } 
 2330              		.loc 1 1338 16 view .LVU787
 2331 0038 0320     		movs	r0, #3
 2332 003a E8E7     		b	.L113
 2333              		.cfi_endproc
 2334              	.LFE54:
 2336              		.section	.text.HAL_RTC_Init,"ax",%progbits
 2337              		.align	1
 2338              		.p2align 2,,3
 2339              		.global	HAL_RTC_Init
 2340              		.syntax unified
 2341              		.code	16
 2342              		.thumb_func
 2343              		.fpu softvfp
 2345              	HAL_RTC_Init:
 2346              	.LVL158:
 2347              	.LFB37:
 151:Drivers/STM32F0xx_HAL_Driver/Src/stm32f0xx_hal_rtc.c ****   /* Check the RTC peripheral state */
 2348              		.loc 1 151 1 is_stmt 1 view -0
 2349              		.cfi_startproc
 2350              		@ args = 0, pretend = 0, frame = 0
 2351              		@ frame_needed = 0, uses_anonymous_args = 0
 153:Drivers/STM32F0xx_HAL_Driver/Src/stm32f0xx_hal_rtc.c ****   {
 2352              		.loc 1 153 3 view .LVU789
 151:Drivers/STM32F0xx_HAL_Driver/Src/stm32f0xx_hal_rtc.c ****   /* Check the RTC peripheral state */
 2353              		.loc 1 151 1 is_stmt 0 view .LVU790
 2354 0000 70B5     		push	{r4, r5, r6, lr}
 2355              	.LCFI15:
 2356              		.cfi_def_cfa_offset 16
 2357              		.cfi_offset 4, -16
 2358              		.cfi_offset 5, -12
 2359              		.cfi_offset 6, -8
 2360              		.cfi_offset 14, -4
 151:Drivers/STM32F0xx_HAL_Driver/Src/stm32f0xx_hal_rtc.c ****   /* Check the RTC peripheral state */
 2361              		.loc 1 151 1 view .LVU791
 2362 0002 041E     		subs	r4, r0, #0
 153:Drivers/STM32F0xx_HAL_Driver/Src/stm32f0xx_hal_rtc.c ****   {
ARM GAS  /var/folders/vr/85797ndx6jd_r3n_lsprlrj40000gn/T//ccWMqnSu.s 			page 79


 2363              		.loc 1 153 5 view .LVU792
 2364 0004 48D0     		beq	.L124
 159:Drivers/STM32F0xx_HAL_Driver/Src/stm32f0xx_hal_rtc.c ****   assert_param(IS_RTC_HOUR_FORMAT(hrtc->Init.HourFormat));
 2365              		.loc 1 159 3 is_stmt 1 view .LVU793
 160:Drivers/STM32F0xx_HAL_Driver/Src/stm32f0xx_hal_rtc.c ****   assert_param(IS_RTC_ASYNCH_PREDIV(hrtc->Init.AsynchPrediv));
 2366              		.loc 1 160 3 view .LVU794
 161:Drivers/STM32F0xx_HAL_Driver/Src/stm32f0xx_hal_rtc.c ****   assert_param(IS_RTC_SYNCH_PREDIV(hrtc->Init.SynchPrediv));
 2367              		.loc 1 161 3 view .LVU795
 162:Drivers/STM32F0xx_HAL_Driver/Src/stm32f0xx_hal_rtc.c ****   assert_param(IS_RTC_OUTPUT(hrtc->Init.OutPut));
 2368              		.loc 1 162 3 view .LVU796
 163:Drivers/STM32F0xx_HAL_Driver/Src/stm32f0xx_hal_rtc.c ****   assert_param(IS_RTC_OUTPUT_POL(hrtc->Init.OutPutPolarity));
 2369              		.loc 1 163 3 view .LVU797
 164:Drivers/STM32F0xx_HAL_Driver/Src/stm32f0xx_hal_rtc.c ****   assert_param(IS_RTC_OUTPUT_TYPE(hrtc->Init.OutPutType));
 2370              		.loc 1 164 3 view .LVU798
 165:Drivers/STM32F0xx_HAL_Driver/Src/stm32f0xx_hal_rtc.c ****     
 2371              		.loc 1 165 3 view .LVU799
 167:Drivers/STM32F0xx_HAL_Driver/Src/stm32f0xx_hal_rtc.c ****   {
 2372              		.loc 1 167 3 view .LVU800
 167:Drivers/STM32F0xx_HAL_Driver/Src/stm32f0xx_hal_rtc.c ****   {
 2373              		.loc 1 167 10 is_stmt 0 view .LVU801
 2374 0006 437F     		ldrb	r3, [r0, #29]
 2375 0008 DBB2     		uxtb	r3, r3
 167:Drivers/STM32F0xx_HAL_Driver/Src/stm32f0xx_hal_rtc.c ****   {
 2376              		.loc 1 167 5 view .LVU802
 2377 000a 002B     		cmp	r3, #0
 2378 000c 40D0     		beq	.L125
 2379              	.LVL159:
 2380              	.L120:
 177:Drivers/STM32F0xx_HAL_Driver/Src/stm32f0xx_hal_rtc.c ****        
 2381              		.loc 1 177 3 is_stmt 1 view .LVU803
 177:Drivers/STM32F0xx_HAL_Driver/Src/stm32f0xx_hal_rtc.c ****        
 2382              		.loc 1 177 15 is_stmt 0 view .LVU804
 2383 000e 0223     		movs	r3, #2
 180:Drivers/STM32F0xx_HAL_Driver/Src/stm32f0xx_hal_rtc.c **** 
 2384              		.loc 1 180 3 view .LVU805
 2385 0010 CA22     		movs	r2, #202
 177:Drivers/STM32F0xx_HAL_Driver/Src/stm32f0xx_hal_rtc.c ****        
 2386              		.loc 1 177 15 view .LVU806
 2387 0012 6377     		strb	r3, [r4, #29]
 180:Drivers/STM32F0xx_HAL_Driver/Src/stm32f0xx_hal_rtc.c **** 
 2388              		.loc 1 180 3 is_stmt 1 view .LVU807
 180:Drivers/STM32F0xx_HAL_Driver/Src/stm32f0xx_hal_rtc.c **** 
 2389              		.loc 1 180 3 view .LVU808
 2390 0014 2368     		ldr	r3, [r4]
 183:Drivers/STM32F0xx_HAL_Driver/Src/stm32f0xx_hal_rtc.c ****   {
 2391              		.loc 1 183 6 is_stmt 0 view .LVU809
 2392 0016 2000     		movs	r0, r4
 180:Drivers/STM32F0xx_HAL_Driver/Src/stm32f0xx_hal_rtc.c **** 
 2393              		.loc 1 180 3 view .LVU810
 2394 0018 5A62     		str	r2, [r3, #36]
 180:Drivers/STM32F0xx_HAL_Driver/Src/stm32f0xx_hal_rtc.c **** 
 2395              		.loc 1 180 3 is_stmt 1 view .LVU811
 2396 001a 773A     		subs	r2, r2, #119
 2397 001c 5A62     		str	r2, [r3, #36]
 183:Drivers/STM32F0xx_HAL_Driver/Src/stm32f0xx_hal_rtc.c ****   {
 2398              		.loc 1 183 3 view .LVU812
 183:Drivers/STM32F0xx_HAL_Driver/Src/stm32f0xx_hal_rtc.c ****   {
ARM GAS  /var/folders/vr/85797ndx6jd_r3n_lsprlrj40000gn/T//ccWMqnSu.s 			page 80


 2399              		.loc 1 183 6 is_stmt 0 view .LVU813
 2400 001e FFF7FEFF 		bl	RTC_EnterInitMode
 2401              	.LVL160:
 186:Drivers/STM32F0xx_HAL_Driver/Src/stm32f0xx_hal_rtc.c ****     
 2402              		.loc 1 186 5 view .LVU814
 2403 0022 2368     		ldr	r3, [r4]
 183:Drivers/STM32F0xx_HAL_Driver/Src/stm32f0xx_hal_rtc.c ****   {
 2404              		.loc 1 183 6 view .LVU815
 2405 0024 051E     		subs	r5, r0, #0
 183:Drivers/STM32F0xx_HAL_Driver/Src/stm32f0xx_hal_rtc.c ****   {
 2406              		.loc 1 183 5 view .LVU816
 2407 0026 2DD1     		bne	.L123
 196:Drivers/STM32F0xx_HAL_Driver/Src/stm32f0xx_hal_rtc.c ****     /* Set RTC_CR register */
 2408              		.loc 1 196 5 is_stmt 1 view .LVU817
 196:Drivers/STM32F0xx_HAL_Driver/Src/stm32f0xx_hal_rtc.c ****     /* Set RTC_CR register */
 2409              		.loc 1 196 24 is_stmt 0 view .LVU818
 2410 0028 9A68     		ldr	r2, [r3, #8]
 2411 002a 1C49     		ldr	r1, .L127
 198:Drivers/STM32F0xx_HAL_Driver/Src/stm32f0xx_hal_rtc.c ****     
 2412              		.loc 1 198 60 view .LVU819
 2413 002c 2069     		ldr	r0, [r4, #16]
 196:Drivers/STM32F0xx_HAL_Driver/Src/stm32f0xx_hal_rtc.c ****     /* Set RTC_CR register */
 2414              		.loc 1 196 24 view .LVU820
 2415 002e 0A40     		ands	r2, r1
 2416 0030 9A60     		str	r2, [r3, #8]
 198:Drivers/STM32F0xx_HAL_Driver/Src/stm32f0xx_hal_rtc.c ****     
 2417              		.loc 1 198 5 is_stmt 1 view .LVU821
 198:Drivers/STM32F0xx_HAL_Driver/Src/stm32f0xx_hal_rtc.c ****     
 2418              		.loc 1 198 60 is_stmt 0 view .LVU822
 2419 0032 6268     		ldr	r2, [r4, #4]
 198:Drivers/STM32F0xx_HAL_Driver/Src/stm32f0xx_hal_rtc.c ****     
 2420              		.loc 1 198 24 view .LVU823
 2421 0034 9968     		ldr	r1, [r3, #8]
 198:Drivers/STM32F0xx_HAL_Driver/Src/stm32f0xx_hal_rtc.c ****     
 2422              		.loc 1 198 60 view .LVU824
 2423 0036 0243     		orrs	r2, r0
 198:Drivers/STM32F0xx_HAL_Driver/Src/stm32f0xx_hal_rtc.c ****     
 2424              		.loc 1 198 80 view .LVU825
 2425 0038 6069     		ldr	r0, [r4, #20]
 2426 003a 0243     		orrs	r2, r0
 198:Drivers/STM32F0xx_HAL_Driver/Src/stm32f0xx_hal_rtc.c ****     
 2427              		.loc 1 198 24 view .LVU826
 2428 003c 0A43     		orrs	r2, r1
 2429 003e 9A60     		str	r2, [r3, #8]
 201:Drivers/STM32F0xx_HAL_Driver/Src/stm32f0xx_hal_rtc.c ****     hrtc->Instance->PRER |= (uint32_t)(hrtc->Init.AsynchPrediv << 16U);
 2430              		.loc 1 201 5 is_stmt 1 view .LVU827
 201:Drivers/STM32F0xx_HAL_Driver/Src/stm32f0xx_hal_rtc.c ****     hrtc->Instance->PRER |= (uint32_t)(hrtc->Init.AsynchPrediv << 16U);
 2431              		.loc 1 201 26 is_stmt 0 view .LVU828
 2432 0040 E268     		ldr	r2, [r4, #12]
 2433 0042 1A61     		str	r2, [r3, #16]
 202:Drivers/STM32F0xx_HAL_Driver/Src/stm32f0xx_hal_rtc.c ****     
 2434              		.loc 1 202 5 is_stmt 1 view .LVU829
 202:Drivers/STM32F0xx_HAL_Driver/Src/stm32f0xx_hal_rtc.c ****     
 2435              		.loc 1 202 64 is_stmt 0 view .LVU830
 2436 0044 A268     		ldr	r2, [r4, #8]
 202:Drivers/STM32F0xx_HAL_Driver/Src/stm32f0xx_hal_rtc.c ****     
 2437              		.loc 1 202 26 view .LVU831
ARM GAS  /var/folders/vr/85797ndx6jd_r3n_lsprlrj40000gn/T//ccWMqnSu.s 			page 81


 2438 0046 1969     		ldr	r1, [r3, #16]
 202:Drivers/STM32F0xx_HAL_Driver/Src/stm32f0xx_hal_rtc.c ****     
 2439              		.loc 1 202 64 view .LVU832
 2440 0048 1204     		lsls	r2, r2, #16
 202:Drivers/STM32F0xx_HAL_Driver/Src/stm32f0xx_hal_rtc.c ****     
 2441              		.loc 1 202 26 view .LVU833
 2442 004a 0A43     		orrs	r2, r1
 205:Drivers/STM32F0xx_HAL_Driver/Src/stm32f0xx_hal_rtc.c **** 
 2443              		.loc 1 205 25 view .LVU834
 2444 004c 8021     		movs	r1, #128
 202:Drivers/STM32F0xx_HAL_Driver/Src/stm32f0xx_hal_rtc.c ****     
 2445              		.loc 1 202 26 view .LVU835
 2446 004e 1A61     		str	r2, [r3, #16]
 205:Drivers/STM32F0xx_HAL_Driver/Src/stm32f0xx_hal_rtc.c **** 
 2447              		.loc 1 205 5 is_stmt 1 view .LVU836
 205:Drivers/STM32F0xx_HAL_Driver/Src/stm32f0xx_hal_rtc.c **** 
 2448              		.loc 1 205 25 is_stmt 0 view .LVU837
 2449 0050 DA68     		ldr	r2, [r3, #12]
 2450 0052 8A43     		bics	r2, r1
 2451 0054 DA60     		str	r2, [r3, #12]
 208:Drivers/STM32F0xx_HAL_Driver/Src/stm32f0xx_hal_rtc.c ****     {
 2452              		.loc 1 208 5 is_stmt 1 view .LVU838
 208:Drivers/STM32F0xx_HAL_Driver/Src/stm32f0xx_hal_rtc.c ****     {
 2453              		.loc 1 208 23 is_stmt 0 view .LVU839
 2454 0056 9A68     		ldr	r2, [r3, #8]
 208:Drivers/STM32F0xx_HAL_Driver/Src/stm32f0xx_hal_rtc.c ****     {
 2455              		.loc 1 208 7 view .LVU840
 2456 0058 9206     		lsls	r2, r2, #26
 2457 005a 0DD5     		bpl	.L126
 2458              	.L122:
 221:Drivers/STM32F0xx_HAL_Driver/Src/stm32f0xx_hal_rtc.c ****     hrtc->Instance->TAFCR |= (uint32_t)(hrtc->Init.OutPutType); 
 2459              		.loc 1 221 5 is_stmt 1 view .LVU841
 221:Drivers/STM32F0xx_HAL_Driver/Src/stm32f0xx_hal_rtc.c ****     hrtc->Instance->TAFCR |= (uint32_t)(hrtc->Init.OutPutType); 
 2460              		.loc 1 221 27 is_stmt 0 view .LVU842
 2461 005c 1A6C     		ldr	r2, [r3, #64]
 2462 005e 1049     		ldr	r1, .L127+4
 2463 0060 0A40     		ands	r2, r1
 2464 0062 1A64     		str	r2, [r3, #64]
 222:Drivers/STM32F0xx_HAL_Driver/Src/stm32f0xx_hal_rtc.c ****     
 2465              		.loc 1 222 5 is_stmt 1 view .LVU843
 222:Drivers/STM32F0xx_HAL_Driver/Src/stm32f0xx_hal_rtc.c ****     
 2466              		.loc 1 222 27 is_stmt 0 view .LVU844
 2467 0064 1A6C     		ldr	r2, [r3, #64]
 2468 0066 A169     		ldr	r1, [r4, #24]
 2469 0068 0A43     		orrs	r2, r1
 2470 006a 1A64     		str	r2, [r3, #64]
 225:Drivers/STM32F0xx_HAL_Driver/Src/stm32f0xx_hal_rtc.c ****     
 2471              		.loc 1 225 5 is_stmt 1 view .LVU845
 225:Drivers/STM32F0xx_HAL_Driver/Src/stm32f0xx_hal_rtc.c ****     
 2472              		.loc 1 225 5 view .LVU846
 2473 006c FF22     		movs	r2, #255
 2474 006e 5A62     		str	r2, [r3, #36]
 228:Drivers/STM32F0xx_HAL_Driver/Src/stm32f0xx_hal_rtc.c ****     
 2475              		.loc 1 228 5 view .LVU847
 228:Drivers/STM32F0xx_HAL_Driver/Src/stm32f0xx_hal_rtc.c ****     
 2476              		.loc 1 228 17 is_stmt 0 view .LVU848
 2477 0070 0123     		movs	r3, #1
ARM GAS  /var/folders/vr/85797ndx6jd_r3n_lsprlrj40000gn/T//ccWMqnSu.s 			page 82


 2478 0072 6377     		strb	r3, [r4, #29]
 230:Drivers/STM32F0xx_HAL_Driver/Src/stm32f0xx_hal_rtc.c ****   }
 2479              		.loc 1 230 5 is_stmt 1 view .LVU849
 2480              	.L119:
 232:Drivers/STM32F0xx_HAL_Driver/Src/stm32f0xx_hal_rtc.c **** 
 2481              		.loc 1 232 1 is_stmt 0 view .LVU850
 2482 0074 2800     		movs	r0, r5
 2483              		@ sp needed
 2484              	.LVL161:
 232:Drivers/STM32F0xx_HAL_Driver/Src/stm32f0xx_hal_rtc.c **** 
 2485              		.loc 1 232 1 view .LVU851
 2486 0076 70BD     		pop	{r4, r5, r6, pc}
 2487              	.LVL162:
 2488              	.L126:
 210:Drivers/STM32F0xx_HAL_Driver/Src/stm32f0xx_hal_rtc.c ****       {
 2489              		.loc 1 210 7 is_stmt 1 view .LVU852
 210:Drivers/STM32F0xx_HAL_Driver/Src/stm32f0xx_hal_rtc.c ****       {
 2490              		.loc 1 210 10 is_stmt 0 view .LVU853
 2491 0078 2000     		movs	r0, r4
 2492 007a FFF7FEFF 		bl	HAL_RTC_WaitForSynchro
 2493              	.LVL163:
 213:Drivers/STM32F0xx_HAL_Driver/Src/stm32f0xx_hal_rtc.c **** 
 2494              		.loc 1 213 9 view .LVU854
 2495 007e 2368     		ldr	r3, [r4]
 210:Drivers/STM32F0xx_HAL_Driver/Src/stm32f0xx_hal_rtc.c ****       {
 2496              		.loc 1 210 9 view .LVU855
 2497 0080 0028     		cmp	r0, #0
 2498 0082 EBD0     		beq	.L122
 2499              	.L123:
 213:Drivers/STM32F0xx_HAL_Driver/Src/stm32f0xx_hal_rtc.c **** 
 2500              		.loc 1 213 9 is_stmt 1 view .LVU856
 213:Drivers/STM32F0xx_HAL_Driver/Src/stm32f0xx_hal_rtc.c **** 
 2501              		.loc 1 213 9 view .LVU857
 2502 0084 FF22     		movs	r2, #255
 2503 0086 5A62     		str	r2, [r3, #36]
 215:Drivers/STM32F0xx_HAL_Driver/Src/stm32f0xx_hal_rtc.c **** 
 2504              		.loc 1 215 9 view .LVU858
 215:Drivers/STM32F0xx_HAL_Driver/Src/stm32f0xx_hal_rtc.c **** 
 2505              		.loc 1 215 21 is_stmt 0 view .LVU859
 2506 0088 0423     		movs	r3, #4
 217:Drivers/STM32F0xx_HAL_Driver/Src/stm32f0xx_hal_rtc.c ****       }
 2507              		.loc 1 217 16 view .LVU860
 2508 008a 0125     		movs	r5, #1
 215:Drivers/STM32F0xx_HAL_Driver/Src/stm32f0xx_hal_rtc.c **** 
 2509              		.loc 1 215 21 view .LVU861
 2510 008c 6377     		strb	r3, [r4, #29]
 217:Drivers/STM32F0xx_HAL_Driver/Src/stm32f0xx_hal_rtc.c ****       }
 2511              		.loc 1 217 9 is_stmt 1 view .LVU862
 217:Drivers/STM32F0xx_HAL_Driver/Src/stm32f0xx_hal_rtc.c ****       }
 2512              		.loc 1 217 16 is_stmt 0 view .LVU863
 2513 008e F1E7     		b	.L119
 2514              	.LVL164:
 2515              	.L125:
 170:Drivers/STM32F0xx_HAL_Driver/Src/stm32f0xx_hal_rtc.c **** 
 2516              		.loc 1 170 5 is_stmt 1 view .LVU864
 170:Drivers/STM32F0xx_HAL_Driver/Src/stm32f0xx_hal_rtc.c **** 
 2517              		.loc 1 170 16 is_stmt 0 view .LVU865
ARM GAS  /var/folders/vr/85797ndx6jd_r3n_lsprlrj40000gn/T//ccWMqnSu.s 			page 83


 2518 0090 0377     		strb	r3, [r0, #28]
 173:Drivers/STM32F0xx_HAL_Driver/Src/stm32f0xx_hal_rtc.c ****   }
 2519              		.loc 1 173 5 is_stmt 1 view .LVU866
 2520 0092 FFF7FEFF 		bl	HAL_RTC_MspInit
 2521              	.LVL165:
 173:Drivers/STM32F0xx_HAL_Driver/Src/stm32f0xx_hal_rtc.c ****   }
 2522              		.loc 1 173 5 is_stmt 0 view .LVU867
 2523 0096 BAE7     		b	.L120
 2524              	.LVL166:
 2525              	.L124:
 155:Drivers/STM32F0xx_HAL_Driver/Src/stm32f0xx_hal_rtc.c ****   }
 2526              		.loc 1 155 13 view .LVU868
 2527 0098 0125     		movs	r5, #1
 2528 009a EBE7     		b	.L119
 2529              	.L128:
 2530              		.align	2
 2531              	.L127:
 2532 009c BFFF8FFF 		.word	-7340097
 2533 00a0 FFFFFBFF 		.word	-262145
 2534              		.cfi_endproc
 2535              	.LFE37:
 2537              		.section	.text.HAL_RTC_DeInit,"ax",%progbits
 2538              		.align	1
 2539              		.p2align 2,,3
 2540              		.global	HAL_RTC_DeInit
 2541              		.syntax unified
 2542              		.code	16
 2543              		.thumb_func
 2544              		.fpu softvfp
 2546              	HAL_RTC_DeInit:
 2547              	.LVL167:
 2548              	.LFB38:
 241:Drivers/STM32F0xx_HAL_Driver/Src/stm32f0xx_hal_rtc.c **** #if defined (STM32F030xC) || defined (STM32F070xB) || \
 2549              		.loc 1 241 1 is_stmt 1 view -0
 2550              		.cfi_startproc
 2551              		@ args = 0, pretend = 0, frame = 0
 2552              		@ frame_needed = 0, uses_anonymous_args = 0
 245:Drivers/STM32F0xx_HAL_Driver/Src/stm32f0xx_hal_rtc.c **** #endif /* defined (STM32F030xC) || defined (STM32F070xB) ||\
 2553              		.loc 1 245 3 view .LVU870
 251:Drivers/STM32F0xx_HAL_Driver/Src/stm32f0xx_hal_rtc.c **** 
 2554              		.loc 1 251 3 view .LVU871
 254:Drivers/STM32F0xx_HAL_Driver/Src/stm32f0xx_hal_rtc.c ****   
 2555              		.loc 1 254 3 view .LVU872
 241:Drivers/STM32F0xx_HAL_Driver/Src/stm32f0xx_hal_rtc.c **** #if defined (STM32F030xC) || defined (STM32F070xB) || \
 2556              		.loc 1 241 1 is_stmt 0 view .LVU873
 2557 0000 F0B5     		push	{r4, r5, r6, r7, lr}
 2558              	.LCFI16:
 2559              		.cfi_def_cfa_offset 20
 2560              		.cfi_offset 4, -20
 2561              		.cfi_offset 5, -16
 2562              		.cfi_offset 6, -12
 2563              		.cfi_offset 7, -8
 2564              		.cfi_offset 14, -4
 254:Drivers/STM32F0xx_HAL_Driver/Src/stm32f0xx_hal_rtc.c ****   
 2565              		.loc 1 254 15 view .LVU874
 2566 0002 0223     		movs	r3, #2
 241:Drivers/STM32F0xx_HAL_Driver/Src/stm32f0xx_hal_rtc.c **** #if defined (STM32F030xC) || defined (STM32F070xB) || \
ARM GAS  /var/folders/vr/85797ndx6jd_r3n_lsprlrj40000gn/T//ccWMqnSu.s 			page 84


 2567              		.loc 1 241 1 view .LVU875
 2568 0004 C646     		mov	lr, r8
 257:Drivers/STM32F0xx_HAL_Driver/Src/stm32f0xx_hal_rtc.c ****   
 2569              		.loc 1 257 3 view .LVU876
 2570 0006 CA22     		movs	r2, #202
 241:Drivers/STM32F0xx_HAL_Driver/Src/stm32f0xx_hal_rtc.c **** #if defined (STM32F030xC) || defined (STM32F070xB) || \
 2571              		.loc 1 241 1 view .LVU877
 2572 0008 00B5     		push	{lr}
 2573              	.LCFI17:
 2574              		.cfi_def_cfa_offset 24
 2575              		.cfi_offset 8, -24
 254:Drivers/STM32F0xx_HAL_Driver/Src/stm32f0xx_hal_rtc.c ****   
 2576              		.loc 1 254 15 view .LVU878
 2577 000a 4377     		strb	r3, [r0, #29]
 257:Drivers/STM32F0xx_HAL_Driver/Src/stm32f0xx_hal_rtc.c ****   
 2578              		.loc 1 257 3 is_stmt 1 view .LVU879
 257:Drivers/STM32F0xx_HAL_Driver/Src/stm32f0xx_hal_rtc.c ****   
 2579              		.loc 1 257 3 view .LVU880
 2580 000c 0368     		ldr	r3, [r0]
 241:Drivers/STM32F0xx_HAL_Driver/Src/stm32f0xx_hal_rtc.c **** #if defined (STM32F030xC) || defined (STM32F070xB) || \
 2581              		.loc 1 241 1 is_stmt 0 view .LVU881
 2582 000e 0400     		movs	r4, r0
 257:Drivers/STM32F0xx_HAL_Driver/Src/stm32f0xx_hal_rtc.c ****   
 2583              		.loc 1 257 3 view .LVU882
 2584 0010 5A62     		str	r2, [r3, #36]
 257:Drivers/STM32F0xx_HAL_Driver/Src/stm32f0xx_hal_rtc.c ****   
 2585              		.loc 1 257 3 is_stmt 1 view .LVU883
 2586 0012 773A     		subs	r2, r2, #119
 2587 0014 5A62     		str	r2, [r3, #36]
 260:Drivers/STM32F0xx_HAL_Driver/Src/stm32f0xx_hal_rtc.c ****   {
 2588              		.loc 1 260 3 view .LVU884
 260:Drivers/STM32F0xx_HAL_Driver/Src/stm32f0xx_hal_rtc.c ****   {
 2589              		.loc 1 260 6 is_stmt 0 view .LVU885
 2590 0016 FFF7FEFF 		bl	RTC_EnterInitMode
 2591              	.LVL168:
 260:Drivers/STM32F0xx_HAL_Driver/Src/stm32f0xx_hal_rtc.c ****   {
 2592              		.loc 1 260 6 view .LVU886
 2593 001a 8046     		mov	r8, r0
 260:Drivers/STM32F0xx_HAL_Driver/Src/stm32f0xx_hal_rtc.c ****   {
 2594              		.loc 1 260 5 view .LVU887
 2595 001c 0028     		cmp	r0, #0
 2596 001e 0AD0     		beq	.L130
 263:Drivers/STM32F0xx_HAL_Driver/Src/stm32f0xx_hal_rtc.c ****     
 2597              		.loc 1 263 5 is_stmt 1 view .LVU888
 263:Drivers/STM32F0xx_HAL_Driver/Src/stm32f0xx_hal_rtc.c ****     
 2598              		.loc 1 263 5 view .LVU889
 2599 0020 FF22     		movs	r2, #255
 2600 0022 2368     		ldr	r3, [r4]
 2601 0024 5A62     		str	r2, [r3, #36]
 266:Drivers/STM32F0xx_HAL_Driver/Src/stm32f0xx_hal_rtc.c ****     
 2602              		.loc 1 266 5 view .LVU890
 266:Drivers/STM32F0xx_HAL_Driver/Src/stm32f0xx_hal_rtc.c ****     
 2603              		.loc 1 266 17 is_stmt 0 view .LVU891
 2604 0026 0423     		movs	r3, #4
 2605 0028 6377     		strb	r3, [r4, #29]
 268:Drivers/STM32F0xx_HAL_Driver/Src/stm32f0xx_hal_rtc.c ****   }  
 2606              		.loc 1 268 5 is_stmt 1 view .LVU892
ARM GAS  /var/folders/vr/85797ndx6jd_r3n_lsprlrj40000gn/T//ccWMqnSu.s 			page 85


 268:Drivers/STM32F0xx_HAL_Driver/Src/stm32f0xx_hal_rtc.c ****   }  
 2607              		.loc 1 268 12 is_stmt 0 view .LVU893
 2608 002a 033B     		subs	r3, r3, #3
 2609 002c 9846     		mov	r8, r3
 2610              	.LVL169:
 2611              	.L131:
 350:Drivers/STM32F0xx_HAL_Driver/Src/stm32f0xx_hal_rtc.c **** 
 2612              		.loc 1 350 1 view .LVU894
 2613 002e 4046     		mov	r0, r8
 2614              		@ sp needed
 2615              	.LVL170:
 350:Drivers/STM32F0xx_HAL_Driver/Src/stm32f0xx_hal_rtc.c **** 
 2616              		.loc 1 350 1 view .LVU895
 2617 0030 04BC     		pop	{r2}
 2618 0032 9046     		mov	r8, r2
 2619 0034 F0BD     		pop	{r4, r5, r6, r7, pc}
 2620              	.LVL171:
 2621              	.L130:
 273:Drivers/STM32F0xx_HAL_Driver/Src/stm32f0xx_hal_rtc.c ****     hrtc->Instance->DR = 0x00002101U;
 2622              		.loc 1 273 5 is_stmt 1 view .LVU896
 273:Drivers/STM32F0xx_HAL_Driver/Src/stm32f0xx_hal_rtc.c ****     hrtc->Instance->DR = 0x00002101U;
 2623              		.loc 1 273 9 is_stmt 0 view .LVU897
 2624 0036 2368     		ldr	r3, [r4]
 274:Drivers/STM32F0xx_HAL_Driver/Src/stm32f0xx_hal_rtc.c ****     
 2625              		.loc 1 274 24 view .LVU898
 2626 0038 214A     		ldr	r2, .L138
 273:Drivers/STM32F0xx_HAL_Driver/Src/stm32f0xx_hal_rtc.c ****     hrtc->Instance->DR = 0x00002101U;
 2627              		.loc 1 273 24 view .LVU899
 2628 003a 1860     		str	r0, [r3]
 274:Drivers/STM32F0xx_HAL_Driver/Src/stm32f0xx_hal_rtc.c ****     
 2629              		.loc 1 274 5 is_stmt 1 view .LVU900
 274:Drivers/STM32F0xx_HAL_Driver/Src/stm32f0xx_hal_rtc.c ****     
 2630              		.loc 1 274 24 is_stmt 0 view .LVU901
 2631 003c 5A60     		str	r2, [r3, #4]
 280:Drivers/STM32F0xx_HAL_Driver/Src/stm32f0xx_hal_rtc.c ****     
 2632              		.loc 1 280 5 is_stmt 1 view .LVU902
 280:Drivers/STM32F0xx_HAL_Driver/Src/stm32f0xx_hal_rtc.c ****     
 2633              		.loc 1 280 24 is_stmt 0 view .LVU903
 2634 003e 0722     		movs	r2, #7
 2635 0040 9968     		ldr	r1, [r3, #8]
 287:Drivers/STM32F0xx_HAL_Driver/Src/stm32f0xx_hal_rtc.c ****       { 
 2636              		.loc 1 287 9 view .LVU904
 2637 0042 FA26     		movs	r6, #250
 280:Drivers/STM32F0xx_HAL_Driver/Src/stm32f0xx_hal_rtc.c ****     
 2638              		.loc 1 280 24 view .LVU905
 2639 0044 0A40     		ands	r2, r1
 2640 0046 9A60     		str	r2, [r3, #8]
 282:Drivers/STM32F0xx_HAL_Driver/Src/stm32f0xx_hal_rtc.c ****     
 2641              		.loc 1 282 5 is_stmt 1 view .LVU906
 282:Drivers/STM32F0xx_HAL_Driver/Src/stm32f0xx_hal_rtc.c ****     
 2642              		.loc 1 282 17 is_stmt 0 view .LVU907
 2643 0048 FFF7FEFF 		bl	HAL_GetTick
 2644              	.LVL172:
 285:Drivers/STM32F0xx_HAL_Driver/Src/stm32f0xx_hal_rtc.c ****     {
 2645              		.loc 1 285 34 view .LVU908
 2646 004c 0425     		movs	r5, #4
 282:Drivers/STM32F0xx_HAL_Driver/Src/stm32f0xx_hal_rtc.c ****     
ARM GAS  /var/folders/vr/85797ndx6jd_r3n_lsprlrj40000gn/T//ccWMqnSu.s 			page 86


 2647              		.loc 1 282 17 view .LVU909
 2648 004e 0700     		movs	r7, r0
 2649              	.LVL173:
 285:Drivers/STM32F0xx_HAL_Driver/Src/stm32f0xx_hal_rtc.c ****     {
 2650              		.loc 1 285 5 is_stmt 1 view .LVU910
 287:Drivers/STM32F0xx_HAL_Driver/Src/stm32f0xx_hal_rtc.c ****       { 
 2651              		.loc 1 287 9 is_stmt 0 view .LVU911
 2652 0050 B600     		lsls	r6, r6, #2
 285:Drivers/STM32F0xx_HAL_Driver/Src/stm32f0xx_hal_rtc.c ****     {
 2653              		.loc 1 285 10 view .LVU912
 2654 0052 04E0     		b	.L132
 2655              	.LVL174:
 2656              	.L133:
 287:Drivers/STM32F0xx_HAL_Driver/Src/stm32f0xx_hal_rtc.c ****       { 
 2657              		.loc 1 287 7 is_stmt 1 view .LVU913
 287:Drivers/STM32F0xx_HAL_Driver/Src/stm32f0xx_hal_rtc.c ****       { 
 2658              		.loc 1 287 11 is_stmt 0 view .LVU914
 2659 0054 FFF7FEFF 		bl	HAL_GetTick
 2660              	.LVL175:
 287:Drivers/STM32F0xx_HAL_Driver/Src/stm32f0xx_hal_rtc.c ****       { 
 2661              		.loc 1 287 25 view .LVU915
 2662 0058 C01B     		subs	r0, r0, r7
 287:Drivers/STM32F0xx_HAL_Driver/Src/stm32f0xx_hal_rtc.c ****       { 
 2663              		.loc 1 287 9 view .LVU916
 2664 005a B042     		cmp	r0, r6
 2665 005c 22D8     		bhi	.L137
 2666              	.L132:
 285:Drivers/STM32F0xx_HAL_Driver/Src/stm32f0xx_hal_rtc.c ****     {
 2667              		.loc 1 285 17 view .LVU917
 2668 005e 2368     		ldr	r3, [r4]
 285:Drivers/STM32F0xx_HAL_Driver/Src/stm32f0xx_hal_rtc.c ****     {
 2669              		.loc 1 285 27 view .LVU918
 2670 0060 DA68     		ldr	r2, [r3, #12]
 285:Drivers/STM32F0xx_HAL_Driver/Src/stm32f0xx_hal_rtc.c ****     {
 2671              		.loc 1 285 10 view .LVU919
 2672 0062 1542     		tst	r5, r2
 2673 0064 F6D0     		beq	.L133
 303:Drivers/STM32F0xx_HAL_Driver/Src/stm32f0xx_hal_rtc.c **** #if defined (STM32F030xC) || defined (STM32F070xB) || \
 2674              		.loc 1 303 5 is_stmt 1 view .LVU920
 303:Drivers/STM32F0xx_HAL_Driver/Src/stm32f0xx_hal_rtc.c **** #if defined (STM32F030xC) || defined (STM32F070xB) || \
 2675              		.loc 1 303 24 is_stmt 0 view .LVU921
 2676 0066 9A68     		ldr	r2, [r3, #8]
 2677 0068 0022     		movs	r2, #0
 307:Drivers/STM32F0xx_HAL_Driver/Src/stm32f0xx_hal_rtc.c **** #endif /* defined (STM32F030xC) || defined (STM32F070xB) ||\
 2678              		.loc 1 307 26 view .LVU922
 2679 006a 1649     		ldr	r1, .L138+4
 303:Drivers/STM32F0xx_HAL_Driver/Src/stm32f0xx_hal_rtc.c **** #if defined (STM32F030xC) || defined (STM32F070xB) || \
 2680              		.loc 1 303 24 view .LVU923
 2681 006c 9A60     		str	r2, [r3, #8]
 307:Drivers/STM32F0xx_HAL_Driver/Src/stm32f0xx_hal_rtc.c **** #endif /* defined (STM32F030xC) || defined (STM32F070xB) ||\
 2682              		.loc 1 307 5 is_stmt 1 view .LVU924
 307:Drivers/STM32F0xx_HAL_Driver/Src/stm32f0xx_hal_rtc.c **** #endif /* defined (STM32F030xC) || defined (STM32F070xB) ||\
 2683              		.loc 1 307 26 is_stmt 0 view .LVU925
 2684 006e 5961     		str	r1, [r3, #20]
 311:Drivers/STM32F0xx_HAL_Driver/Src/stm32f0xx_hal_rtc.c ****     hrtc->Instance->ALRMAR = 0x00000000U;        
 2685              		.loc 1 311 5 is_stmt 1 view .LVU926
 311:Drivers/STM32F0xx_HAL_Driver/Src/stm32f0xx_hal_rtc.c ****     hrtc->Instance->ALRMAR = 0x00000000U;        
ARM GAS  /var/folders/vr/85797ndx6jd_r3n_lsprlrj40000gn/T//ccWMqnSu.s 			page 87


 2686              		.loc 1 311 26 is_stmt 0 view .LVU927
 2687 0070 1549     		ldr	r1, .L138+8
 2688 0072 1961     		str	r1, [r3, #16]
 312:Drivers/STM32F0xx_HAL_Driver/Src/stm32f0xx_hal_rtc.c ****     hrtc->Instance->SHIFTR = 0x00000000U;
 2689              		.loc 1 312 5 is_stmt 1 view .LVU928
 312:Drivers/STM32F0xx_HAL_Driver/Src/stm32f0xx_hal_rtc.c ****     hrtc->Instance->SHIFTR = 0x00000000U;
 2690              		.loc 1 312 28 is_stmt 0 view .LVU929
 2691 0074 DA61     		str	r2, [r3, #28]
 313:Drivers/STM32F0xx_HAL_Driver/Src/stm32f0xx_hal_rtc.c ****     hrtc->Instance->CALR = 0x00000000U;
 2692              		.loc 1 313 5 is_stmt 1 view .LVU930
 313:Drivers/STM32F0xx_HAL_Driver/Src/stm32f0xx_hal_rtc.c ****     hrtc->Instance->CALR = 0x00000000U;
 2693              		.loc 1 313 28 is_stmt 0 view .LVU931
 2694 0076 DA62     		str	r2, [r3, #44]
 314:Drivers/STM32F0xx_HAL_Driver/Src/stm32f0xx_hal_rtc.c ****     hrtc->Instance->ALRMASSR = 0x00000000U;
 2695              		.loc 1 314 5 is_stmt 1 view .LVU932
 314:Drivers/STM32F0xx_HAL_Driver/Src/stm32f0xx_hal_rtc.c ****     hrtc->Instance->ALRMASSR = 0x00000000U;
 2696              		.loc 1 314 26 is_stmt 0 view .LVU933
 2697 0078 DA63     		str	r2, [r3, #60]
 315:Drivers/STM32F0xx_HAL_Driver/Src/stm32f0xx_hal_rtc.c ****     
 2698              		.loc 1 315 5 is_stmt 1 view .LVU934
 315:Drivers/STM32F0xx_HAL_Driver/Src/stm32f0xx_hal_rtc.c ****     
 2699              		.loc 1 315 30 is_stmt 0 view .LVU935
 2700 007a 5A64     		str	r2, [r3, #68]
 318:Drivers/STM32F0xx_HAL_Driver/Src/stm32f0xx_hal_rtc.c ****     
 2701              		.loc 1 318 5 is_stmt 1 view .LVU936
 318:Drivers/STM32F0xx_HAL_Driver/Src/stm32f0xx_hal_rtc.c ****     
 2702              		.loc 1 318 25 is_stmt 0 view .LVU937
 2703 007c DA60     		str	r2, [r3, #12]
 321:Drivers/STM32F0xx_HAL_Driver/Src/stm32f0xx_hal_rtc.c ****     
 2704              		.loc 1 321 5 is_stmt 1 view .LVU938
 321:Drivers/STM32F0xx_HAL_Driver/Src/stm32f0xx_hal_rtc.c ****     
 2705              		.loc 1 321 27 is_stmt 0 view .LVU939
 2706 007e 1A64     		str	r2, [r3, #64]
 324:Drivers/STM32F0xx_HAL_Driver/Src/stm32f0xx_hal_rtc.c ****     {
 2707              		.loc 1 324 5 is_stmt 1 view .LVU940
 324:Drivers/STM32F0xx_HAL_Driver/Src/stm32f0xx_hal_rtc.c ****     {
 2708              		.loc 1 324 23 is_stmt 0 view .LVU941
 2709 0080 9A68     		ldr	r2, [r3, #8]
 324:Drivers/STM32F0xx_HAL_Driver/Src/stm32f0xx_hal_rtc.c ****     {
 2710              		.loc 1 324 7 view .LVU942
 2711 0082 9206     		lsls	r2, r2, #26
 2712 0084 05D4     		bmi	.L134
 326:Drivers/STM32F0xx_HAL_Driver/Src/stm32f0xx_hal_rtc.c ****       {
 2713              		.loc 1 326 7 is_stmt 1 view .LVU943
 326:Drivers/STM32F0xx_HAL_Driver/Src/stm32f0xx_hal_rtc.c ****       {
 2714              		.loc 1 326 10 is_stmt 0 view .LVU944
 2715 0086 2000     		movs	r0, r4
 2716 0088 FFF7FEFF 		bl	HAL_RTC_WaitForSynchro
 2717              	.LVL176:
 329:Drivers/STM32F0xx_HAL_Driver/Src/stm32f0xx_hal_rtc.c ****         
 2718              		.loc 1 329 9 view .LVU945
 2719 008c 2368     		ldr	r3, [r4]
 326:Drivers/STM32F0xx_HAL_Driver/Src/stm32f0xx_hal_rtc.c ****       {
 2720              		.loc 1 326 9 view .LVU946
 2721 008e 0028     		cmp	r0, #0
 2722 0090 0FD1     		bne	.L135
 2723              	.L134:
ARM GAS  /var/folders/vr/85797ndx6jd_r3n_lsprlrj40000gn/T//ccWMqnSu.s 			page 88


 339:Drivers/STM32F0xx_HAL_Driver/Src/stm32f0xx_hal_rtc.c ****   
 2724              		.loc 1 339 3 is_stmt 1 view .LVU947
 339:Drivers/STM32F0xx_HAL_Driver/Src/stm32f0xx_hal_rtc.c ****   
 2725              		.loc 1 339 3 view .LVU948
 2726 0092 FF22     		movs	r2, #255
 342:Drivers/STM32F0xx_HAL_Driver/Src/stm32f0xx_hal_rtc.c ****   
 2727              		.loc 1 342 3 is_stmt 0 view .LVU949
 2728 0094 2000     		movs	r0, r4
 339:Drivers/STM32F0xx_HAL_Driver/Src/stm32f0xx_hal_rtc.c ****   
 2729              		.loc 1 339 3 view .LVU950
 2730 0096 5A62     		str	r2, [r3, #36]
 342:Drivers/STM32F0xx_HAL_Driver/Src/stm32f0xx_hal_rtc.c ****   
 2731              		.loc 1 342 3 is_stmt 1 view .LVU951
 2732 0098 FFF7FEFF 		bl	HAL_RTC_MspDeInit
 2733              	.LVL177:
 344:Drivers/STM32F0xx_HAL_Driver/Src/stm32f0xx_hal_rtc.c ****   
 2734              		.loc 1 344 3 view .LVU952
 344:Drivers/STM32F0xx_HAL_Driver/Src/stm32f0xx_hal_rtc.c ****   
 2735              		.loc 1 344 15 is_stmt 0 view .LVU953
 2736 009c 0023     		movs	r3, #0
 2737 009e 6377     		strb	r3, [r4, #29]
 347:Drivers/STM32F0xx_HAL_Driver/Src/stm32f0xx_hal_rtc.c **** 
 2738              		.loc 1 347 3 is_stmt 1 view .LVU954
 347:Drivers/STM32F0xx_HAL_Driver/Src/stm32f0xx_hal_rtc.c **** 
 2739              		.loc 1 347 3 view .LVU955
 2740 00a0 2377     		strb	r3, [r4, #28]
 349:Drivers/STM32F0xx_HAL_Driver/Src/stm32f0xx_hal_rtc.c **** }
 2741              		.loc 1 349 3 view .LVU956
 349:Drivers/STM32F0xx_HAL_Driver/Src/stm32f0xx_hal_rtc.c **** }
 2742              		.loc 1 349 10 is_stmt 0 view .LVU957
 2743 00a2 C4E7     		b	.L131
 2744              	.L137:
 290:Drivers/STM32F0xx_HAL_Driver/Src/stm32f0xx_hal_rtc.c ****         
 2745              		.loc 1 290 9 is_stmt 1 view .LVU958
 290:Drivers/STM32F0xx_HAL_Driver/Src/stm32f0xx_hal_rtc.c ****         
 2746              		.loc 1 290 9 view .LVU959
 2747 00a4 FF22     		movs	r2, #255
 2748 00a6 2368     		ldr	r3, [r4]
 2749 00a8 5A62     		str	r2, [r3, #36]
 293:Drivers/STM32F0xx_HAL_Driver/Src/stm32f0xx_hal_rtc.c ****         
 2750              		.loc 1 293 9 view .LVU960
 293:Drivers/STM32F0xx_HAL_Driver/Src/stm32f0xx_hal_rtc.c ****         
 2751              		.loc 1 293 21 is_stmt 0 view .LVU961
 2752 00aa 0323     		movs	r3, #3
 2753 00ac 6377     		strb	r3, [r4, #29]
 295:Drivers/STM32F0xx_HAL_Driver/Src/stm32f0xx_hal_rtc.c ****       } 
 2754              		.loc 1 295 9 is_stmt 1 view .LVU962
 295:Drivers/STM32F0xx_HAL_Driver/Src/stm32f0xx_hal_rtc.c ****       } 
 2755              		.loc 1 295 16 is_stmt 0 view .LVU963
 2756 00ae 9846     		mov	r8, r3
 2757 00b0 BDE7     		b	.L131
 2758              	.L135:
 329:Drivers/STM32F0xx_HAL_Driver/Src/stm32f0xx_hal_rtc.c ****         
 2759              		.loc 1 329 9 is_stmt 1 view .LVU964
 329:Drivers/STM32F0xx_HAL_Driver/Src/stm32f0xx_hal_rtc.c ****         
 2760              		.loc 1 329 9 view .LVU965
 2761 00b2 FF22     		movs	r2, #255
ARM GAS  /var/folders/vr/85797ndx6jd_r3n_lsprlrj40000gn/T//ccWMqnSu.s 			page 89


 2762 00b4 5A62     		str	r2, [r3, #36]
 331:Drivers/STM32F0xx_HAL_Driver/Src/stm32f0xx_hal_rtc.c ****         
 2763              		.loc 1 331 9 view .LVU966
 333:Drivers/STM32F0xx_HAL_Driver/Src/stm32f0xx_hal_rtc.c ****       }
 2764              		.loc 1 333 16 is_stmt 0 view .LVU967
 2765 00b6 0123     		movs	r3, #1
 331:Drivers/STM32F0xx_HAL_Driver/Src/stm32f0xx_hal_rtc.c ****         
 2766              		.loc 1 331 21 view .LVU968
 2767 00b8 6577     		strb	r5, [r4, #29]
 333:Drivers/STM32F0xx_HAL_Driver/Src/stm32f0xx_hal_rtc.c ****       }
 2768              		.loc 1 333 9 is_stmt 1 view .LVU969
 333:Drivers/STM32F0xx_HAL_Driver/Src/stm32f0xx_hal_rtc.c ****       }
 2769              		.loc 1 333 16 is_stmt 0 view .LVU970
 2770 00ba 9846     		mov	r8, r3
 2771 00bc B7E7     		b	.L131
 2772              	.L139:
 2773 00be C046     		.align	2
 2774              	.L138:
 2775 00c0 01210000 		.word	8449
 2776 00c4 FFFF0000 		.word	65535
 2777 00c8 FF007F00 		.word	8323327
 2778              		.cfi_endproc
 2779              	.LFE38:
 2781              		.section	.text.HAL_RTC_SetTime,"ax",%progbits
 2782              		.align	1
 2783              		.p2align 2,,3
 2784              		.global	HAL_RTC_SetTime
 2785              		.syntax unified
 2786              		.code	16
 2787              		.thumb_func
 2788              		.fpu softvfp
 2790              	HAL_RTC_SetTime:
 2791              	.LVL178:
 2792              	.LFB41:
 411:Drivers/STM32F0xx_HAL_Driver/Src/stm32f0xx_hal_rtc.c ****   uint32_t tmpreg = 0U;
 2793              		.loc 1 411 1 is_stmt 1 view -0
 2794              		.cfi_startproc
 2795              		@ args = 0, pretend = 0, frame = 0
 2796              		@ frame_needed = 0, uses_anonymous_args = 0
 412:Drivers/STM32F0xx_HAL_Driver/Src/stm32f0xx_hal_rtc.c ****   
 2797              		.loc 1 412 3 view .LVU972
 415:Drivers/STM32F0xx_HAL_Driver/Src/stm32f0xx_hal_rtc.c ****   assert_param(IS_RTC_DAYLIGHT_SAVING(sTime->DayLightSaving));
 2798              		.loc 1 415 3 view .LVU973
 416:Drivers/STM32F0xx_HAL_Driver/Src/stm32f0xx_hal_rtc.c ****   assert_param(IS_RTC_STORE_OPERATION(sTime->StoreOperation));
 2799              		.loc 1 416 3 view .LVU974
 417:Drivers/STM32F0xx_HAL_Driver/Src/stm32f0xx_hal_rtc.c ****   
 2800              		.loc 1 417 3 view .LVU975
 420:Drivers/STM32F0xx_HAL_Driver/Src/stm32f0xx_hal_rtc.c ****   
 2801              		.loc 1 420 3 view .LVU976
 420:Drivers/STM32F0xx_HAL_Driver/Src/stm32f0xx_hal_rtc.c ****   
 2802              		.loc 1 420 3 view .LVU977
 411:Drivers/STM32F0xx_HAL_Driver/Src/stm32f0xx_hal_rtc.c ****   uint32_t tmpreg = 0U;
 2803              		.loc 1 411 1 is_stmt 0 view .LVU978
 2804 0000 F8B5     		push	{r3, r4, r5, r6, r7, lr}
 2805              	.LCFI18:
 2806              		.cfi_def_cfa_offset 24
 2807              		.cfi_offset 3, -24
ARM GAS  /var/folders/vr/85797ndx6jd_r3n_lsprlrj40000gn/T//ccWMqnSu.s 			page 90


 2808              		.cfi_offset 4, -20
 2809              		.cfi_offset 5, -16
 2810              		.cfi_offset 6, -12
 2811              		.cfi_offset 7, -8
 2812              		.cfi_offset 14, -4
 420:Drivers/STM32F0xx_HAL_Driver/Src/stm32f0xx_hal_rtc.c ****   
 2813              		.loc 1 420 3 view .LVU979
 2814 0002 037F     		ldrb	r3, [r0, #28]
 411:Drivers/STM32F0xx_HAL_Driver/Src/stm32f0xx_hal_rtc.c ****   uint32_t tmpreg = 0U;
 2815              		.loc 1 411 1 view .LVU980
 2816 0004 0400     		movs	r4, r0
 2817 0006 0D00     		movs	r5, r1
 420:Drivers/STM32F0xx_HAL_Driver/Src/stm32f0xx_hal_rtc.c ****   
 2818              		.loc 1 420 3 view .LVU981
 2819 0008 012B     		cmp	r3, #1
 2820 000a 00D1     		bne	.LCB2454
 2821 000c 85E0     		b	.L157	@long jump
 2822              	.LCB2454:
 420:Drivers/STM32F0xx_HAL_Driver/Src/stm32f0xx_hal_rtc.c ****   
 2823              		.loc 1 420 3 is_stmt 1 discriminator 2 view .LVU982
 2824 000e 0123     		movs	r3, #1
 2825 0010 0377     		strb	r3, [r0, #28]
 422:Drivers/STM32F0xx_HAL_Driver/Src/stm32f0xx_hal_rtc.c ****   
 2826              		.loc 1 422 3 discriminator 2 view .LVU983
 422:Drivers/STM32F0xx_HAL_Driver/Src/stm32f0xx_hal_rtc.c ****   
 2827              		.loc 1 422 15 is_stmt 0 discriminator 2 view .LVU984
 2828 0012 0133     		adds	r3, r3, #1
 2829 0014 4377     		strb	r3, [r0, #29]
 424:Drivers/STM32F0xx_HAL_Driver/Src/stm32f0xx_hal_rtc.c ****   {
 2830              		.loc 1 424 3 is_stmt 1 discriminator 2 view .LVU985
 2831 0016 0668     		ldr	r6, [r0]
 424:Drivers/STM32F0xx_HAL_Driver/Src/stm32f0xx_hal_rtc.c ****   {
 2832              		.loc 1 424 5 is_stmt 0 discriminator 2 view .LVU986
 2833 0018 002A     		cmp	r2, #0
 2834 001a 39D0     		beq	.L161
 446:Drivers/STM32F0xx_HAL_Driver/Src/stm32f0xx_hal_rtc.c ****     {
 2835              		.loc 1 446 5 is_stmt 1 view .LVU987
 446:Drivers/STM32F0xx_HAL_Driver/Src/stm32f0xx_hal_rtc.c ****     {
 2836              		.loc 1 446 28 is_stmt 0 view .LVU988
 2837 001c 4027     		movs	r7, #64
 446:Drivers/STM32F0xx_HAL_Driver/Src/stm32f0xx_hal_rtc.c ****     {
 2838              		.loc 1 446 23 view .LVU989
 2839 001e B168     		ldr	r1, [r6, #8]
 2840              	.LVL179:
 446:Drivers/STM32F0xx_HAL_Driver/Src/stm32f0xx_hal_rtc.c ****     {
 2841              		.loc 1 446 28 view .LVU990
 2842 0020 0F40     		ands	r7, r1
 446:Drivers/STM32F0xx_HAL_Driver/Src/stm32f0xx_hal_rtc.c ****     {
 2843              		.loc 1 446 7 view .LVU991
 2844 0022 00D1     		bne	.LCB2471
 2845 0024 75E0     		b	.L152	@long jump
 2846              	.LCB2471:
 2847 0026 EF78     		ldrb	r7, [r5, #3]
 2848 0028 3F04     		lsls	r7, r7, #16
 2849              	.L153:
 455:Drivers/STM32F0xx_HAL_Driver/Src/stm32f0xx_hal_rtc.c ****     }
 2850              		.loc 1 455 7 is_stmt 1 view .LVU992
ARM GAS  /var/folders/vr/85797ndx6jd_r3n_lsprlrj40000gn/T//ccWMqnSu.s 			page 91


 457:Drivers/STM32F0xx_HAL_Driver/Src/stm32f0xx_hal_rtc.c ****     assert_param(IS_RTC_SECONDS(RTC_Bcd2ToByte(sTime->Seconds)));
 2851              		.loc 1 457 5 view .LVU993
 458:Drivers/STM32F0xx_HAL_Driver/Src/stm32f0xx_hal_rtc.c ****     tmpreg = (((uint32_t)(sTime->Hours) << 16U) | \
 2852              		.loc 1 458 5 view .LVU994
 459:Drivers/STM32F0xx_HAL_Driver/Src/stm32f0xx_hal_rtc.c ****               ((uint32_t)(sTime->Minutes) << 8U) | \
 2853              		.loc 1 459 5 view .LVU995
 459:Drivers/STM32F0xx_HAL_Driver/Src/stm32f0xx_hal_rtc.c ****               ((uint32_t)(sTime->Minutes) << 8U) | \
 2854              		.loc 1 459 16 is_stmt 0 view .LVU996
 2855 002a 2978     		ldrb	r1, [r5]
 460:Drivers/STM32F0xx_HAL_Driver/Src/stm32f0xx_hal_rtc.c ****               ((uint32_t)sTime->Seconds) | \
 2856              		.loc 1 460 16 view .LVU997
 2857 002c 6B78     		ldrb	r3, [r5, #1]
 459:Drivers/STM32F0xx_HAL_Driver/Src/stm32f0xx_hal_rtc.c ****               ((uint32_t)(sTime->Minutes) << 8U) | \
 2858              		.loc 1 459 41 view .LVU998
 2859 002e 0904     		lsls	r1, r1, #16
 460:Drivers/STM32F0xx_HAL_Driver/Src/stm32f0xx_hal_rtc.c ****               ((uint32_t)sTime->Seconds) | \
 2860              		.loc 1 460 43 view .LVU999
 2861 0030 1B02     		lsls	r3, r3, #8
 459:Drivers/STM32F0xx_HAL_Driver/Src/stm32f0xx_hal_rtc.c ****               ((uint32_t)(sTime->Minutes) << 8U) | \
 2862              		.loc 1 459 49 view .LVU1000
 2863 0032 1943     		orrs	r1, r3
 461:Drivers/STM32F0xx_HAL_Driver/Src/stm32f0xx_hal_rtc.c ****               ((uint32_t)(sTime->TimeFormat) << 16U));   
 2864              		.loc 1 461 16 view .LVU1001
 2865 0034 AB78     		ldrb	r3, [r5, #2]
 460:Drivers/STM32F0xx_HAL_Driver/Src/stm32f0xx_hal_rtc.c ****               ((uint32_t)sTime->Seconds) | \
 2866              		.loc 1 460 50 view .LVU1002
 2867 0036 1943     		orrs	r1, r3
 459:Drivers/STM32F0xx_HAL_Driver/Src/stm32f0xx_hal_rtc.c ****               ((uint32_t)(sTime->Minutes) << 8U) | \
 2868              		.loc 1 459 12 view .LVU1003
 2869 0038 0F43     		orrs	r7, r1
 2870              	.LVL180:
 2871              	.L151:
 466:Drivers/STM32F0xx_HAL_Driver/Src/stm32f0xx_hal_rtc.c ****   
 2872              		.loc 1 466 3 is_stmt 1 view .LVU1004
 466:Drivers/STM32F0xx_HAL_Driver/Src/stm32f0xx_hal_rtc.c ****   
 2873              		.loc 1 466 3 view .LVU1005
 2874 003a CA23     		movs	r3, #202
 2875 003c 7362     		str	r3, [r6, #36]
 466:Drivers/STM32F0xx_HAL_Driver/Src/stm32f0xx_hal_rtc.c ****   
 2876              		.loc 1 466 3 view .LVU1006
 2877 003e 773B     		subs	r3, r3, #119
 2878 0040 7362     		str	r3, [r6, #36]
 469:Drivers/STM32F0xx_HAL_Driver/Src/stm32f0xx_hal_rtc.c ****   {
 2879              		.loc 1 469 3 view .LVU1007
 469:Drivers/STM32F0xx_HAL_Driver/Src/stm32f0xx_hal_rtc.c ****   {
 2880              		.loc 1 469 6 is_stmt 0 view .LVU1008
 2881 0042 2000     		movs	r0, r4
 2882 0044 FFF7FEFF 		bl	RTC_EnterInitMode
 2883              	.LVL181:
 2884 0048 061E     		subs	r6, r0, #0
 469:Drivers/STM32F0xx_HAL_Driver/Src/stm32f0xx_hal_rtc.c ****   {
 2885              		.loc 1 469 5 view .LVU1009
 2886 004a 59D1     		bne	.L162
 485:Drivers/STM32F0xx_HAL_Driver/Src/stm32f0xx_hal_rtc.c ****      
 2887              		.loc 1 485 5 is_stmt 1 view .LVU1010
 485:Drivers/STM32F0xx_HAL_Driver/Src/stm32f0xx_hal_rtc.c ****      
 2888              		.loc 1 485 26 is_stmt 0 view .LVU1011
ARM GAS  /var/folders/vr/85797ndx6jd_r3n_lsprlrj40000gn/T//ccWMqnSu.s 			page 92


 2889 004c 3449     		ldr	r1, .L164
 485:Drivers/STM32F0xx_HAL_Driver/Src/stm32f0xx_hal_rtc.c ****      
 2890              		.loc 1 485 9 view .LVU1012
 2891 004e 2268     		ldr	r2, [r4]
 485:Drivers/STM32F0xx_HAL_Driver/Src/stm32f0xx_hal_rtc.c ****      
 2892              		.loc 1 485 26 view .LVU1013
 2893 0050 3940     		ands	r1, r7
 485:Drivers/STM32F0xx_HAL_Driver/Src/stm32f0xx_hal_rtc.c ****      
 2894              		.loc 1 485 24 view .LVU1014
 2895 0052 1160     		str	r1, [r2]
 488:Drivers/STM32F0xx_HAL_Driver/Src/stm32f0xx_hal_rtc.c **** 
 2896              		.loc 1 488 5 is_stmt 1 view .LVU1015
 488:Drivers/STM32F0xx_HAL_Driver/Src/stm32f0xx_hal_rtc.c **** 
 2897              		.loc 1 488 24 is_stmt 0 view .LVU1016
 2898 0054 9368     		ldr	r3, [r2, #8]
 2899 0056 3349     		ldr	r1, .L164+4
 491:Drivers/STM32F0xx_HAL_Driver/Src/stm32f0xx_hal_rtc.c ****     
 2900              		.loc 1 491 60 view .LVU1017
 2901 0058 2869     		ldr	r0, [r5, #16]
 488:Drivers/STM32F0xx_HAL_Driver/Src/stm32f0xx_hal_rtc.c **** 
 2902              		.loc 1 488 24 view .LVU1018
 2903 005a 0B40     		ands	r3, r1
 2904 005c 9360     		str	r3, [r2, #8]
 491:Drivers/STM32F0xx_HAL_Driver/Src/stm32f0xx_hal_rtc.c ****     
 2905              		.loc 1 491 5 is_stmt 1 view .LVU1019
 491:Drivers/STM32F0xx_HAL_Driver/Src/stm32f0xx_hal_rtc.c ****     
 2906              		.loc 1 491 60 is_stmt 0 view .LVU1020
 2907 005e EB68     		ldr	r3, [r5, #12]
 491:Drivers/STM32F0xx_HAL_Driver/Src/stm32f0xx_hal_rtc.c ****     
 2908              		.loc 1 491 24 view .LVU1021
 2909 0060 9168     		ldr	r1, [r2, #8]
 491:Drivers/STM32F0xx_HAL_Driver/Src/stm32f0xx_hal_rtc.c ****     
 2910              		.loc 1 491 60 view .LVU1022
 2911 0062 0343     		orrs	r3, r0
 491:Drivers/STM32F0xx_HAL_Driver/Src/stm32f0xx_hal_rtc.c ****     
 2912              		.loc 1 491 24 view .LVU1023
 2913 0064 0B43     		orrs	r3, r1
 494:Drivers/STM32F0xx_HAL_Driver/Src/stm32f0xx_hal_rtc.c **** 
 2914              		.loc 1 494 25 view .LVU1024
 2915 0066 8021     		movs	r1, #128
 491:Drivers/STM32F0xx_HAL_Driver/Src/stm32f0xx_hal_rtc.c ****     
 2916              		.loc 1 491 24 view .LVU1025
 2917 0068 9360     		str	r3, [r2, #8]
 494:Drivers/STM32F0xx_HAL_Driver/Src/stm32f0xx_hal_rtc.c **** 
 2918              		.loc 1 494 5 is_stmt 1 view .LVU1026
 494:Drivers/STM32F0xx_HAL_Driver/Src/stm32f0xx_hal_rtc.c **** 
 2919              		.loc 1 494 25 is_stmt 0 view .LVU1027
 2920 006a D368     		ldr	r3, [r2, #12]
 2921 006c 8B43     		bics	r3, r1
 2922 006e D360     		str	r3, [r2, #12]
 497:Drivers/STM32F0xx_HAL_Driver/Src/stm32f0xx_hal_rtc.c ****     {
 2923              		.loc 1 497 5 is_stmt 1 view .LVU1028
 497:Drivers/STM32F0xx_HAL_Driver/Src/stm32f0xx_hal_rtc.c ****     {
 2924              		.loc 1 497 23 is_stmt 0 view .LVU1029
 2925 0070 9368     		ldr	r3, [r2, #8]
 497:Drivers/STM32F0xx_HAL_Driver/Src/stm32f0xx_hal_rtc.c ****     {
 2926              		.loc 1 497 7 view .LVU1030
ARM GAS  /var/folders/vr/85797ndx6jd_r3n_lsprlrj40000gn/T//ccWMqnSu.s 			page 93


 2927 0072 9B06     		lsls	r3, r3, #26
 2928 0074 3CD4     		bmi	.L155
 499:Drivers/STM32F0xx_HAL_Driver/Src/stm32f0xx_hal_rtc.c ****       {        
 2929              		.loc 1 499 7 is_stmt 1 view .LVU1031
 499:Drivers/STM32F0xx_HAL_Driver/Src/stm32f0xx_hal_rtc.c ****       {        
 2930              		.loc 1 499 10 is_stmt 0 view .LVU1032
 2931 0076 2000     		movs	r0, r4
 2932 0078 FFF7FEFF 		bl	HAL_RTC_WaitForSynchro
 2933              	.LVL182:
 499:Drivers/STM32F0xx_HAL_Driver/Src/stm32f0xx_hal_rtc.c ****       {        
 2934              		.loc 1 499 9 view .LVU1033
 2935 007c 0028     		cmp	r0, #0
 2936 007e 36D0     		beq	.L163
 502:Drivers/STM32F0xx_HAL_Driver/Src/stm32f0xx_hal_rtc.c ****         
 2937              		.loc 1 502 9 is_stmt 1 view .LVU1034
 502:Drivers/STM32F0xx_HAL_Driver/Src/stm32f0xx_hal_rtc.c ****         
 2938              		.loc 1 502 9 view .LVU1035
 2939 0080 FF22     		movs	r2, #255
 2940 0082 2368     		ldr	r3, [r4]
 2941 0084 5A62     		str	r2, [r3, #36]
 504:Drivers/STM32F0xx_HAL_Driver/Src/stm32f0xx_hal_rtc.c ****         
 2942              		.loc 1 504 9 view .LVU1036
 504:Drivers/STM32F0xx_HAL_Driver/Src/stm32f0xx_hal_rtc.c ****         
 2943              		.loc 1 504 21 is_stmt 0 view .LVU1037
 2944 0086 0423     		movs	r3, #4
 507:Drivers/STM32F0xx_HAL_Driver/Src/stm32f0xx_hal_rtc.c ****         
 2945              		.loc 1 507 9 view .LVU1038
 2946 0088 2677     		strb	r6, [r4, #28]
 504:Drivers/STM32F0xx_HAL_Driver/Src/stm32f0xx_hal_rtc.c ****         
 2947              		.loc 1 504 21 view .LVU1039
 2948 008a 6377     		strb	r3, [r4, #29]
 507:Drivers/STM32F0xx_HAL_Driver/Src/stm32f0xx_hal_rtc.c ****         
 2949              		.loc 1 507 9 is_stmt 1 view .LVU1040
 507:Drivers/STM32F0xx_HAL_Driver/Src/stm32f0xx_hal_rtc.c ****         
 2950              		.loc 1 507 9 view .LVU1041
 509:Drivers/STM32F0xx_HAL_Driver/Src/stm32f0xx_hal_rtc.c ****       }
 2951              		.loc 1 509 9 view .LVU1042
 509:Drivers/STM32F0xx_HAL_Driver/Src/stm32f0xx_hal_rtc.c ****       }
 2952              		.loc 1 509 16 is_stmt 0 view .LVU1043
 2953 008c 0126     		movs	r6, #1
 2954 008e 35E0     		b	.L141
 2955              	.LVL183:
 2956              	.L161:
 426:Drivers/STM32F0xx_HAL_Driver/Src/stm32f0xx_hal_rtc.c ****     {
 2957              		.loc 1 426 5 is_stmt 1 view .LVU1044
 426:Drivers/STM32F0xx_HAL_Driver/Src/stm32f0xx_hal_rtc.c ****     {
 2958              		.loc 1 426 28 is_stmt 0 view .LVU1045
 2959 0090 4027     		movs	r7, #64
 426:Drivers/STM32F0xx_HAL_Driver/Src/stm32f0xx_hal_rtc.c ****     {
 2960              		.loc 1 426 23 view .LVU1046
 2961 0092 B368     		ldr	r3, [r6, #8]
 426:Drivers/STM32F0xx_HAL_Driver/Src/stm32f0xx_hal_rtc.c ****     {
 2962              		.loc 1 426 28 view .LVU1047
 2963 0094 1F40     		ands	r7, r3
 426:Drivers/STM32F0xx_HAL_Driver/Src/stm32f0xx_hal_rtc.c ****     {
 2964              		.loc 1 426 7 view .LVU1048
 2965 0096 3ED0     		beq	.L143
ARM GAS  /var/folders/vr/85797ndx6jd_r3n_lsprlrj40000gn/T//ccWMqnSu.s 			page 94


 2966 0098 CF78     		ldrb	r7, [r1, #3]
 2967 009a 3F04     		lsls	r7, r7, #16
 2968              	.L144:
 434:Drivers/STM32F0xx_HAL_Driver/Src/stm32f0xx_hal_rtc.c ****     }
 2969              		.loc 1 434 7 is_stmt 1 view .LVU1049
 436:Drivers/STM32F0xx_HAL_Driver/Src/stm32f0xx_hal_rtc.c ****     assert_param(IS_RTC_SECONDS(sTime->Seconds));
 2970              		.loc 1 436 5 view .LVU1050
 437:Drivers/STM32F0xx_HAL_Driver/Src/stm32f0xx_hal_rtc.c ****     
 2971              		.loc 1 437 5 view .LVU1051
 439:Drivers/STM32F0xx_HAL_Driver/Src/stm32f0xx_hal_rtc.c ****                         ((uint32_t)RTC_ByteToBcd2(sTime->Minutes) << 8U) | \
 2972              		.loc 1 439 5 view .LVU1052
 439:Drivers/STM32F0xx_HAL_Driver/Src/stm32f0xx_hal_rtc.c ****                         ((uint32_t)RTC_ByteToBcd2(sTime->Minutes) << 8U) | \
 2973              		.loc 1 439 36 is_stmt 0 view .LVU1053
 2974 009c 2878     		ldrb	r0, [r5]
 2975              	.LVL184:
 2976              	.LBB146:
 2977              	.LBI146:
1352:Drivers/STM32F0xx_HAL_Driver/Src/stm32f0xx_hal_rtc.c **** {
 2978              		.loc 1 1352 9 is_stmt 1 view .LVU1054
 2979              	.LBB147:
1354:Drivers/STM32F0xx_HAL_Driver/Src/stm32f0xx_hal_rtc.c ****   
 2980              		.loc 1 1354 3 view .LVU1055
1356:Drivers/STM32F0xx_HAL_Driver/Src/stm32f0xx_hal_rtc.c ****   {
 2981              		.loc 1 1356 3 view .LVU1056
1356:Drivers/STM32F0xx_HAL_Driver/Src/stm32f0xx_hal_rtc.c ****   {
 2982              		.loc 1 1356 8 is_stmt 0 view .LVU1057
 2983 009e 0928     		cmp	r0, #9
 2984 00a0 08D9     		bls	.L145
1354:Drivers/STM32F0xx_HAL_Driver/Src/stm32f0xx_hal_rtc.c ****   
 2985              		.loc 1 1354 12 view .LVU1058
 2986 00a2 0023     		movs	r3, #0
 2987              	.LVL185:
 2988              	.L146:
1358:Drivers/STM32F0xx_HAL_Driver/Src/stm32f0xx_hal_rtc.c ****     Value -= 10U;
 2989              		.loc 1 1358 5 is_stmt 1 view .LVU1059
1359:Drivers/STM32F0xx_HAL_Driver/Src/stm32f0xx_hal_rtc.c ****   }
 2990              		.loc 1 1359 11 is_stmt 0 view .LVU1060
 2991 00a4 0A38     		subs	r0, r0, #10
 2992              	.LVL186:
1359:Drivers/STM32F0xx_HAL_Driver/Src/stm32f0xx_hal_rtc.c ****   }
 2993              		.loc 1 1359 11 view .LVU1061
 2994 00a6 C0B2     		uxtb	r0, r0
1358:Drivers/STM32F0xx_HAL_Driver/Src/stm32f0xx_hal_rtc.c ****     Value -= 10U;
 2995              		.loc 1 1358 12 view .LVU1062
 2996 00a8 0133     		adds	r3, r3, #1
 2997              	.LVL187:
1359:Drivers/STM32F0xx_HAL_Driver/Src/stm32f0xx_hal_rtc.c ****   }
 2998              		.loc 1 1359 5 is_stmt 1 view .LVU1063
1356:Drivers/STM32F0xx_HAL_Driver/Src/stm32f0xx_hal_rtc.c ****   {
 2999              		.loc 1 1356 8 is_stmt 0 view .LVU1064
 3000 00aa 0928     		cmp	r0, #9
 3001 00ac FAD8     		bhi	.L146
 3002 00ae 1B01     		lsls	r3, r3, #4
 3003              	.LVL188:
1356:Drivers/STM32F0xx_HAL_Driver/Src/stm32f0xx_hal_rtc.c ****   {
 3004              		.loc 1 1356 8 view .LVU1065
 3005 00b0 1843     		orrs	r0, r3
ARM GAS  /var/folders/vr/85797ndx6jd_r3n_lsprlrj40000gn/T//ccWMqnSu.s 			page 95


 3006              	.LVL189:
1356:Drivers/STM32F0xx_HAL_Driver/Src/stm32f0xx_hal_rtc.c ****   {
 3007              		.loc 1 1356 8 view .LVU1066
 3008 00b2 C0B2     		uxtb	r0, r0
 3009              	.L145:
1362:Drivers/STM32F0xx_HAL_Driver/Src/stm32f0xx_hal_rtc.c **** }
 3010              		.loc 1 1362 3 is_stmt 1 view .LVU1067
 3011              	.LBE147:
 3012              	.LBE146:
 440:Drivers/STM32F0xx_HAL_Driver/Src/stm32f0xx_hal_rtc.c ****                         ((uint32_t)RTC_ByteToBcd2(sTime->Seconds)) | \
 3013              		.loc 1 440 36 is_stmt 0 view .LVU1068
 3014 00b4 6B78     		ldrb	r3, [r5, #1]
 3015              	.LVL190:
 3016              	.LBB148:
 3017              	.LBI148:
1352:Drivers/STM32F0xx_HAL_Driver/Src/stm32f0xx_hal_rtc.c **** {
 3018              		.loc 1 1352 9 is_stmt 1 view .LVU1069
1352:Drivers/STM32F0xx_HAL_Driver/Src/stm32f0xx_hal_rtc.c **** {
 3019              		.loc 1 1352 9 is_stmt 0 view .LVU1070
 3020              	.LBE148:
 439:Drivers/STM32F0xx_HAL_Driver/Src/stm32f0xx_hal_rtc.c ****                         ((uint32_t)RTC_ByteToBcd2(sTime->Minutes) << 8U) | \
 3021              		.loc 1 439 65 view .LVU1071
 3022 00b6 0004     		lsls	r0, r0, #16
 3023              	.LBB150:
 3024              	.LBB149:
1356:Drivers/STM32F0xx_HAL_Driver/Src/stm32f0xx_hal_rtc.c ****   {
 3025              		.loc 1 1356 8 view .LVU1072
 3026 00b8 092B     		cmp	r3, #9
 3027 00ba 08D9     		bls	.L147
1354:Drivers/STM32F0xx_HAL_Driver/Src/stm32f0xx_hal_rtc.c ****   
 3028              		.loc 1 1354 12 view .LVU1073
 3029 00bc 0021     		movs	r1, #0
 3030              	.LVL191:
 3031              	.L148:
1358:Drivers/STM32F0xx_HAL_Driver/Src/stm32f0xx_hal_rtc.c ****     Value -= 10U;
 3032              		.loc 1 1358 5 is_stmt 1 view .LVU1074
1359:Drivers/STM32F0xx_HAL_Driver/Src/stm32f0xx_hal_rtc.c ****   }
 3033              		.loc 1 1359 11 is_stmt 0 view .LVU1075
 3034 00be 0A3B     		subs	r3, r3, #10
 3035              	.LVL192:
1359:Drivers/STM32F0xx_HAL_Driver/Src/stm32f0xx_hal_rtc.c ****   }
 3036              		.loc 1 1359 11 view .LVU1076
 3037 00c0 DBB2     		uxtb	r3, r3
1358:Drivers/STM32F0xx_HAL_Driver/Src/stm32f0xx_hal_rtc.c ****     Value -= 10U;
 3038              		.loc 1 1358 12 view .LVU1077
 3039 00c2 0131     		adds	r1, r1, #1
 3040              	.LVL193:
1359:Drivers/STM32F0xx_HAL_Driver/Src/stm32f0xx_hal_rtc.c ****   }
 3041              		.loc 1 1359 5 is_stmt 1 view .LVU1078
1356:Drivers/STM32F0xx_HAL_Driver/Src/stm32f0xx_hal_rtc.c ****   {
 3042              		.loc 1 1356 8 is_stmt 0 view .LVU1079
 3043 00c4 092B     		cmp	r3, #9
 3044 00c6 FAD8     		bhi	.L148
 3045 00c8 0901     		lsls	r1, r1, #4
 3046              	.LVL194:
1356:Drivers/STM32F0xx_HAL_Driver/Src/stm32f0xx_hal_rtc.c ****   {
 3047              		.loc 1 1356 8 view .LVU1080
ARM GAS  /var/folders/vr/85797ndx6jd_r3n_lsprlrj40000gn/T//ccWMqnSu.s 			page 96


 3048 00ca 0B43     		orrs	r3, r1
 3049              	.LVL195:
1356:Drivers/STM32F0xx_HAL_Driver/Src/stm32f0xx_hal_rtc.c ****   {
 3050              		.loc 1 1356 8 view .LVU1081
 3051 00cc DBB2     		uxtb	r3, r3
 3052              	.L147:
1362:Drivers/STM32F0xx_HAL_Driver/Src/stm32f0xx_hal_rtc.c **** }
 3053              		.loc 1 1362 3 is_stmt 1 view .LVU1082
 3054              	.LBE149:
 3055              	.LBE150:
 441:Drivers/STM32F0xx_HAL_Driver/Src/stm32f0xx_hal_rtc.c ****                         (((uint32_t)sTime->TimeFormat) << 16U));  
 3056              		.loc 1 441 36 is_stmt 0 view .LVU1083
 3057 00ce A978     		ldrb	r1, [r5, #2]
 3058              	.LVL196:
 3059              	.LBB151:
 3060              	.LBI151:
1352:Drivers/STM32F0xx_HAL_Driver/Src/stm32f0xx_hal_rtc.c **** {
 3061              		.loc 1 1352 9 is_stmt 1 view .LVU1084
1352:Drivers/STM32F0xx_HAL_Driver/Src/stm32f0xx_hal_rtc.c **** {
 3062              		.loc 1 1352 9 is_stmt 0 view .LVU1085
 3063              	.LBE151:
 440:Drivers/STM32F0xx_HAL_Driver/Src/stm32f0xx_hal_rtc.c ****                         ((uint32_t)RTC_ByteToBcd2(sTime->Seconds)) | \
 3064              		.loc 1 440 67 view .LVU1086
 3065 00d0 1B02     		lsls	r3, r3, #8
 3066              	.LBB153:
 3067              	.LBB152:
1356:Drivers/STM32F0xx_HAL_Driver/Src/stm32f0xx_hal_rtc.c ****   {
 3068              		.loc 1 1356 8 view .LVU1087
 3069 00d2 0929     		cmp	r1, #9
 3070 00d4 07D9     		bls	.L149
 3071              	.LVL197:
 3072              	.L150:
1358:Drivers/STM32F0xx_HAL_Driver/Src/stm32f0xx_hal_rtc.c ****     Value -= 10U;
 3073              		.loc 1 1358 5 is_stmt 1 view .LVU1088
1359:Drivers/STM32F0xx_HAL_Driver/Src/stm32f0xx_hal_rtc.c ****   }
 3074              		.loc 1 1359 11 is_stmt 0 view .LVU1089
 3075 00d6 0A39     		subs	r1, r1, #10
 3076              	.LVL198:
1359:Drivers/STM32F0xx_HAL_Driver/Src/stm32f0xx_hal_rtc.c ****   }
 3077              		.loc 1 1359 11 view .LVU1090
 3078 00d8 C9B2     		uxtb	r1, r1
1358:Drivers/STM32F0xx_HAL_Driver/Src/stm32f0xx_hal_rtc.c ****     Value -= 10U;
 3079              		.loc 1 1358 12 view .LVU1091
 3080 00da 0132     		adds	r2, r2, #1
 3081              	.LVL199:
1359:Drivers/STM32F0xx_HAL_Driver/Src/stm32f0xx_hal_rtc.c ****   }
 3082              		.loc 1 1359 5 is_stmt 1 view .LVU1092
1356:Drivers/STM32F0xx_HAL_Driver/Src/stm32f0xx_hal_rtc.c ****   {
 3083              		.loc 1 1356 8 is_stmt 0 view .LVU1093
 3084 00dc 0929     		cmp	r1, #9
 3085 00de FAD8     		bhi	.L150
 3086 00e0 1201     		lsls	r2, r2, #4
 3087              	.LVL200:
1356:Drivers/STM32F0xx_HAL_Driver/Src/stm32f0xx_hal_rtc.c ****   {
 3088              		.loc 1 1356 8 view .LVU1094
 3089 00e2 1143     		orrs	r1, r2
 3090              	.LVL201:
ARM GAS  /var/folders/vr/85797ndx6jd_r3n_lsprlrj40000gn/T//ccWMqnSu.s 			page 97


1356:Drivers/STM32F0xx_HAL_Driver/Src/stm32f0xx_hal_rtc.c ****   {
 3091              		.loc 1 1356 8 view .LVU1095
 3092 00e4 C9B2     		uxtb	r1, r1
 3093              	.L149:
1362:Drivers/STM32F0xx_HAL_Driver/Src/stm32f0xx_hal_rtc.c **** }
 3094              		.loc 1 1362 3 is_stmt 1 view .LVU1096
 3095              	.LBE152:
 3096              	.LBE153:
 439:Drivers/STM32F0xx_HAL_Driver/Src/stm32f0xx_hal_rtc.c ****                         ((uint32_t)RTC_ByteToBcd2(sTime->Minutes) << 8U) | \
 3097              		.loc 1 439 12 is_stmt 0 view .LVU1097
 3098 00e6 0743     		orrs	r7, r0
 3099 00e8 1F43     		orrs	r7, r3
 3100 00ea 0F43     		orrs	r7, r1
 3101              	.LVL202:
 439:Drivers/STM32F0xx_HAL_Driver/Src/stm32f0xx_hal_rtc.c ****                         ((uint32_t)RTC_ByteToBcd2(sTime->Minutes) << 8U) | \
 3102              		.loc 1 439 12 view .LVU1098
 3103 00ec A5E7     		b	.L151
 3104              	.L163:
 439:Drivers/STM32F0xx_HAL_Driver/Src/stm32f0xx_hal_rtc.c ****                         ((uint32_t)RTC_ByteToBcd2(sTime->Minutes) << 8U) | \
 3105              		.loc 1 439 12 view .LVU1099
 3106 00ee 2268     		ldr	r2, [r4]
 3107              	.L155:
 514:Drivers/STM32F0xx_HAL_Driver/Src/stm32f0xx_hal_rtc.c ****     
 3108              		.loc 1 514 5 is_stmt 1 view .LVU1100
 514:Drivers/STM32F0xx_HAL_Driver/Src/stm32f0xx_hal_rtc.c ****     
 3109              		.loc 1 514 5 view .LVU1101
 3110 00f0 FF23     		movs	r3, #255
 3111 00f2 5362     		str	r3, [r2, #36]
 516:Drivers/STM32F0xx_HAL_Driver/Src/stm32f0xx_hal_rtc.c ****   
 3112              		.loc 1 516 4 view .LVU1102
 516:Drivers/STM32F0xx_HAL_Driver/Src/stm32f0xx_hal_rtc.c ****   
 3113              		.loc 1 516 16 is_stmt 0 view .LVU1103
 3114 00f4 FE3B     		subs	r3, r3, #254
 3115 00f6 6377     		strb	r3, [r4, #29]
 518:Drivers/STM32F0xx_HAL_Driver/Src/stm32f0xx_hal_rtc.c ****      
 3116              		.loc 1 518 4 is_stmt 1 view .LVU1104
 518:Drivers/STM32F0xx_HAL_Driver/Src/stm32f0xx_hal_rtc.c ****      
 3117              		.loc 1 518 4 view .LVU1105
 3118 00f8 0023     		movs	r3, #0
 3119 00fa 2377     		strb	r3, [r4, #28]
 520:Drivers/STM32F0xx_HAL_Driver/Src/stm32f0xx_hal_rtc.c ****   }
 3120              		.loc 1 520 4 view .LVU1106
 3121              	.LVL203:
 3122              	.L141:
 522:Drivers/STM32F0xx_HAL_Driver/Src/stm32f0xx_hal_rtc.c **** 
 3123              		.loc 1 522 1 is_stmt 0 view .LVU1107
 3124 00fc 3000     		movs	r0, r6
 3125              		@ sp needed
 3126              	.LVL204:
 3127              	.LVL205:
 522:Drivers/STM32F0xx_HAL_Driver/Src/stm32f0xx_hal_rtc.c **** 
 3128              		.loc 1 522 1 view .LVU1108
 3129 00fe F8BD     		pop	{r3, r4, r5, r6, r7, pc}
 3130              	.LVL206:
 3131              	.L162:
 472:Drivers/STM32F0xx_HAL_Driver/Src/stm32f0xx_hal_rtc.c ****     
 3132              		.loc 1 472 5 is_stmt 1 view .LVU1109
ARM GAS  /var/folders/vr/85797ndx6jd_r3n_lsprlrj40000gn/T//ccWMqnSu.s 			page 98


 472:Drivers/STM32F0xx_HAL_Driver/Src/stm32f0xx_hal_rtc.c ****     
 3133              		.loc 1 472 5 view .LVU1110
 3134 0100 FF22     		movs	r2, #255
 3135 0102 2368     		ldr	r3, [r4]
 480:Drivers/STM32F0xx_HAL_Driver/Src/stm32f0xx_hal_rtc.c ****   } 
 3136              		.loc 1 480 12 is_stmt 0 view .LVU1111
 3137 0104 0126     		movs	r6, #1
 472:Drivers/STM32F0xx_HAL_Driver/Src/stm32f0xx_hal_rtc.c ****     
 3138              		.loc 1 472 5 view .LVU1112
 3139 0106 5A62     		str	r2, [r3, #36]
 475:Drivers/STM32F0xx_HAL_Driver/Src/stm32f0xx_hal_rtc.c ****     
 3140              		.loc 1 475 5 is_stmt 1 view .LVU1113
 475:Drivers/STM32F0xx_HAL_Driver/Src/stm32f0xx_hal_rtc.c ****     
 3141              		.loc 1 475 17 is_stmt 0 view .LVU1114
 3142 0108 0423     		movs	r3, #4
 3143 010a 6377     		strb	r3, [r4, #29]
 478:Drivers/STM32F0xx_HAL_Driver/Src/stm32f0xx_hal_rtc.c ****     
 3144              		.loc 1 478 5 is_stmt 1 view .LVU1115
 478:Drivers/STM32F0xx_HAL_Driver/Src/stm32f0xx_hal_rtc.c ****     
 3145              		.loc 1 478 5 view .LVU1116
 3146 010c 0023     		movs	r3, #0
 3147 010e 2377     		strb	r3, [r4, #28]
 480:Drivers/STM32F0xx_HAL_Driver/Src/stm32f0xx_hal_rtc.c ****   } 
 3148              		.loc 1 480 5 view .LVU1117
 480:Drivers/STM32F0xx_HAL_Driver/Src/stm32f0xx_hal_rtc.c ****   } 
 3149              		.loc 1 480 12 is_stmt 0 view .LVU1118
 3150 0110 F4E7     		b	.L141
 3151              	.LVL207:
 3152              	.L152:
 454:Drivers/STM32F0xx_HAL_Driver/Src/stm32f0xx_hal_rtc.c ****       assert_param(IS_RTC_HOUR24(RTC_Bcd2ToByte(sTime->Hours)));
 3153              		.loc 1 454 7 is_stmt 1 view .LVU1119
 454:Drivers/STM32F0xx_HAL_Driver/Src/stm32f0xx_hal_rtc.c ****       assert_param(IS_RTC_HOUR24(RTC_Bcd2ToByte(sTime->Hours)));
 3154              		.loc 1 454 25 is_stmt 0 view .LVU1120
 3155 0112 EF70     		strb	r7, [r5, #3]
 3156 0114 89E7     		b	.L153
 3157              	.LVL208:
 3158              	.L143:
 433:Drivers/STM32F0xx_HAL_Driver/Src/stm32f0xx_hal_rtc.c ****       assert_param(IS_RTC_HOUR24(sTime->Hours));
 3159              		.loc 1 433 7 is_stmt 1 view .LVU1121
 433:Drivers/STM32F0xx_HAL_Driver/Src/stm32f0xx_hal_rtc.c ****       assert_param(IS_RTC_HOUR24(sTime->Hours));
 3160              		.loc 1 433 25 is_stmt 0 view .LVU1122
 3161 0116 CF70     		strb	r7, [r1, #3]
 3162 0118 C0E7     		b	.L144
 3163              	.L157:
 420:Drivers/STM32F0xx_HAL_Driver/Src/stm32f0xx_hal_rtc.c ****   
 3164              		.loc 1 420 3 view .LVU1123
 3165 011a 0226     		movs	r6, #2
 3166 011c EEE7     		b	.L141
 3167              	.L165:
 3168 011e C046     		.align	2
 3169              	.L164:
 3170 0120 7F7F7F00 		.word	8355711
 3171 0124 FFFFFBFF 		.word	-262145
 3172              		.cfi_endproc
 3173              	.LFE41:
 3175              		.section	.text.HAL_RTC_SetDate,"ax",%progbits
 3176              		.align	1
ARM GAS  /var/folders/vr/85797ndx6jd_r3n_lsprlrj40000gn/T//ccWMqnSu.s 			page 99


 3177              		.p2align 2,,3
 3178              		.global	HAL_RTC_SetDate
 3179              		.syntax unified
 3180              		.code	16
 3181              		.thumb_func
 3182              		.fpu softvfp
 3184              	HAL_RTC_SetDate:
 3185              	.LVL209:
 3186              	.LFB43:
 590:Drivers/STM32F0xx_HAL_Driver/Src/stm32f0xx_hal_rtc.c ****   uint32_t datetmpreg = 0U;
 3187              		.loc 1 590 1 is_stmt 1 view -0
 3188              		.cfi_startproc
 3189              		@ args = 0, pretend = 0, frame = 0
 3190              		@ frame_needed = 0, uses_anonymous_args = 0
 590:Drivers/STM32F0xx_HAL_Driver/Src/stm32f0xx_hal_rtc.c ****   uint32_t datetmpreg = 0U;
 3191              		.loc 1 590 1 is_stmt 0 view .LVU1125
 3192 0000 F8B5     		push	{r3, r4, r5, r6, r7, lr}
 3193              	.LCFI19:
 3194              		.cfi_def_cfa_offset 24
 3195              		.cfi_offset 3, -24
 3196              		.cfi_offset 4, -20
 3197              		.cfi_offset 5, -16
 3198              		.cfi_offset 6, -12
 3199              		.cfi_offset 7, -8
 3200              		.cfi_offset 14, -4
 597:Drivers/STM32F0xx_HAL_Driver/Src/stm32f0xx_hal_rtc.c ****   
 3201              		.loc 1 597 2 view .LVU1126
 3202 0002 037F     		ldrb	r3, [r0, #28]
 590:Drivers/STM32F0xx_HAL_Driver/Src/stm32f0xx_hal_rtc.c ****   uint32_t datetmpreg = 0U;
 3203              		.loc 1 590 1 view .LVU1127
 3204 0004 0500     		movs	r5, r0
 591:Drivers/STM32F0xx_HAL_Driver/Src/stm32f0xx_hal_rtc.c ****   
 3205              		.loc 1 591 3 is_stmt 1 view .LVU1128
 3206              	.LVL210:
 594:Drivers/STM32F0xx_HAL_Driver/Src/stm32f0xx_hal_rtc.c ****   
 3207              		.loc 1 594 3 view .LVU1129
 597:Drivers/STM32F0xx_HAL_Driver/Src/stm32f0xx_hal_rtc.c ****   
 3208              		.loc 1 597 2 view .LVU1130
 597:Drivers/STM32F0xx_HAL_Driver/Src/stm32f0xx_hal_rtc.c ****   
 3209              		.loc 1 597 2 view .LVU1131
 3210 0006 012B     		cmp	r3, #1
 3211 0008 00D1     		bne	.LCB2828
 3212 000a 73E0     		b	.L183	@long jump
 3213              	.LCB2828:
 597:Drivers/STM32F0xx_HAL_Driver/Src/stm32f0xx_hal_rtc.c ****   
 3214              		.loc 1 597 2 discriminator 2 view .LVU1132
 3215 000c 0123     		movs	r3, #1
 3216 000e 0F78     		ldrb	r7, [r1]
 3217 0010 0377     		strb	r3, [r0, #28]
 599:Drivers/STM32F0xx_HAL_Driver/Src/stm32f0xx_hal_rtc.c ****   
 3218              		.loc 1 599 3 discriminator 2 view .LVU1133
 599:Drivers/STM32F0xx_HAL_Driver/Src/stm32f0xx_hal_rtc.c ****   
 3219              		.loc 1 599 15 is_stmt 0 discriminator 2 view .LVU1134
 3220 0012 0133     		adds	r3, r3, #1
 3221 0014 4377     		strb	r3, [r0, #29]
 601:Drivers/STM32F0xx_HAL_Driver/Src/stm32f0xx_hal_rtc.c ****   {
 3222              		.loc 1 601 3 is_stmt 1 discriminator 2 view .LVU1135
ARM GAS  /var/folders/vr/85797ndx6jd_r3n_lsprlrj40000gn/T//ccWMqnSu.s 			page 100


 3223 0016 4878     		ldrb	r0, [r1, #1]
 3224              	.LVL211:
 601:Drivers/STM32F0xx_HAL_Driver/Src/stm32f0xx_hal_rtc.c ****   {
 3225              		.loc 1 601 3 is_stmt 0 discriminator 2 view .LVU1136
 3226 0018 8E78     		ldrb	r6, [r1, #2]
 3227 001a CB78     		ldrb	r3, [r1, #3]
 3228 001c 7F03     		lsls	r7, r7, #13
 601:Drivers/STM32F0xx_HAL_Driver/Src/stm32f0xx_hal_rtc.c ****   {
 3229              		.loc 1 601 5 discriminator 2 view .LVU1137
 3230 001e 002A     		cmp	r2, #0
 3231 0020 28D0     		beq	.L188
 606:Drivers/STM32F0xx_HAL_Driver/Src/stm32f0xx_hal_rtc.c ****   
 3232              		.loc 1 606 3 is_stmt 1 view .LVU1138
 608:Drivers/STM32F0xx_HAL_Driver/Src/stm32f0xx_hal_rtc.c ****   {   
 3233              		.loc 1 608 3 view .LVU1139
 621:Drivers/STM32F0xx_HAL_Driver/Src/stm32f0xx_hal_rtc.c ****     datetmpreg = RTC_Bcd2ToByte(sDate->Month);
 3234              		.loc 1 621 5 view .LVU1140
 622:Drivers/STM32F0xx_HAL_Driver/Src/stm32f0xx_hal_rtc.c ****     assert_param(IS_RTC_MONTH(datetmpreg));
 3235              		.loc 1 622 5 view .LVU1141
 3236              	.LVL212:
1372:Drivers/STM32F0xx_HAL_Driver/Src/stm32f0xx_hal_rtc.c ****   tmp = ((uint8_t)(Value & (uint8_t)0xF0U) >> (uint8_t)0x4U) * 10U;
 3237              		.loc 1 1372 3 view .LVU1142
1373:Drivers/STM32F0xx_HAL_Driver/Src/stm32f0xx_hal_rtc.c ****   return (tmp + (Value & (uint8_t)0x0FU));
 3238              		.loc 1 1373 3 view .LVU1143
 3239              		.loc 1 1374 3 view .LVU1144
 623:Drivers/STM32F0xx_HAL_Driver/Src/stm32f0xx_hal_rtc.c ****     datetmpreg = RTC_Bcd2ToByte(sDate->Date);
 3240              		.loc 1 623 5 view .LVU1145
 624:Drivers/STM32F0xx_HAL_Driver/Src/stm32f0xx_hal_rtc.c ****     assert_param(IS_RTC_DATE(datetmpreg));
 3241              		.loc 1 624 5 view .LVU1146
1372:Drivers/STM32F0xx_HAL_Driver/Src/stm32f0xx_hal_rtc.c ****   tmp = ((uint8_t)(Value & (uint8_t)0xF0U) >> (uint8_t)0x4U) * 10U;
 3242              		.loc 1 1372 3 view .LVU1147
1373:Drivers/STM32F0xx_HAL_Driver/Src/stm32f0xx_hal_rtc.c ****   return (tmp + (Value & (uint8_t)0x0FU));
 3243              		.loc 1 1373 3 view .LVU1148
 3244              		.loc 1 1374 3 view .LVU1149
 625:Drivers/STM32F0xx_HAL_Driver/Src/stm32f0xx_hal_rtc.c ****     
 3245              		.loc 1 625 5 view .LVU1150
 627:Drivers/STM32F0xx_HAL_Driver/Src/stm32f0xx_hal_rtc.c ****                   (((uint32_t)sDate->Month) << 8U) | \
 3246              		.loc 1 627 5 view .LVU1151
 627:Drivers/STM32F0xx_HAL_Driver/Src/stm32f0xx_hal_rtc.c ****                   (((uint32_t)sDate->Month) << 8U) | \
 3247              		.loc 1 627 44 is_stmt 0 view .LVU1152
 3248 0022 1B04     		lsls	r3, r3, #16
 627:Drivers/STM32F0xx_HAL_Driver/Src/stm32f0xx_hal_rtc.c ****                   (((uint32_t)sDate->Month) << 8U) | \
 3249              		.loc 1 627 16 view .LVU1153
 3250 0024 3B43     		orrs	r3, r7
 3251 0026 1C00     		movs	r4, r3
 628:Drivers/STM32F0xx_HAL_Driver/Src/stm32f0xx_hal_rtc.c ****                   ((uint32_t)sDate->Date) | \
 3252              		.loc 1 628 45 view .LVU1154
 3253 0028 0002     		lsls	r0, r0, #8
 627:Drivers/STM32F0xx_HAL_Driver/Src/stm32f0xx_hal_rtc.c ****                   (((uint32_t)sDate->Month) << 8U) | \
 3254              		.loc 1 627 16 view .LVU1155
 3255 002a 3443     		orrs	r4, r6
 3256 002c 0443     		orrs	r4, r0
 3257              	.LVL213:
 3258              	.L181:
 634:Drivers/STM32F0xx_HAL_Driver/Src/stm32f0xx_hal_rtc.c ****   
 3259              		.loc 1 634 3 is_stmt 1 view .LVU1156
 634:Drivers/STM32F0xx_HAL_Driver/Src/stm32f0xx_hal_rtc.c ****   
ARM GAS  /var/folders/vr/85797ndx6jd_r3n_lsprlrj40000gn/T//ccWMqnSu.s 			page 101


 3260              		.loc 1 634 3 view .LVU1157
 3261 002e CA22     		movs	r2, #202
 3262 0030 2B68     		ldr	r3, [r5]
 637:Drivers/STM32F0xx_HAL_Driver/Src/stm32f0xx_hal_rtc.c ****   {
 3263              		.loc 1 637 6 is_stmt 0 view .LVU1158
 3264 0032 2800     		movs	r0, r5
 634:Drivers/STM32F0xx_HAL_Driver/Src/stm32f0xx_hal_rtc.c ****   
 3265              		.loc 1 634 3 view .LVU1159
 3266 0034 5A62     		str	r2, [r3, #36]
 634:Drivers/STM32F0xx_HAL_Driver/Src/stm32f0xx_hal_rtc.c ****   
 3267              		.loc 1 634 3 is_stmt 1 view .LVU1160
 3268 0036 773A     		subs	r2, r2, #119
 3269 0038 5A62     		str	r2, [r3, #36]
 637:Drivers/STM32F0xx_HAL_Driver/Src/stm32f0xx_hal_rtc.c ****   {
 3270              		.loc 1 637 3 view .LVU1161
 637:Drivers/STM32F0xx_HAL_Driver/Src/stm32f0xx_hal_rtc.c ****   {
 3271              		.loc 1 637 6 is_stmt 0 view .LVU1162
 3272 003a FFF7FEFF 		bl	RTC_EnterInitMode
 3273              	.LVL214:
 640:Drivers/STM32F0xx_HAL_Driver/Src/stm32f0xx_hal_rtc.c ****     
 3274              		.loc 1 640 5 view .LVU1163
 3275 003e 2B68     		ldr	r3, [r5]
 637:Drivers/STM32F0xx_HAL_Driver/Src/stm32f0xx_hal_rtc.c ****   {
 3276              		.loc 1 637 6 view .LVU1164
 3277 0040 061E     		subs	r6, r0, #0
 637:Drivers/STM32F0xx_HAL_Driver/Src/stm32f0xx_hal_rtc.c ****   {
 3278              		.loc 1 637 5 view .LVU1165
 3279 0042 45D1     		bne	.L189
 653:Drivers/STM32F0xx_HAL_Driver/Src/stm32f0xx_hal_rtc.c ****     
 3280              		.loc 1 653 5 is_stmt 1 view .LVU1166
 656:Drivers/STM32F0xx_HAL_Driver/Src/stm32f0xx_hal_rtc.c **** 
 3281              		.loc 1 656 25 is_stmt 0 view .LVU1167
 3282 0044 8021     		movs	r1, #128
 653:Drivers/STM32F0xx_HAL_Driver/Src/stm32f0xx_hal_rtc.c ****     
 3283              		.loc 1 653 26 view .LVU1168
 3284 0046 2D4A     		ldr	r2, .L190
 3285 0048 1440     		ands	r4, r2
 3286              	.LVL215:
 653:Drivers/STM32F0xx_HAL_Driver/Src/stm32f0xx_hal_rtc.c ****     
 3287              		.loc 1 653 24 view .LVU1169
 3288 004a 5C60     		str	r4, [r3, #4]
 656:Drivers/STM32F0xx_HAL_Driver/Src/stm32f0xx_hal_rtc.c **** 
 3289              		.loc 1 656 5 is_stmt 1 view .LVU1170
 656:Drivers/STM32F0xx_HAL_Driver/Src/stm32f0xx_hal_rtc.c **** 
 3290              		.loc 1 656 25 is_stmt 0 view .LVU1171
 3291 004c DA68     		ldr	r2, [r3, #12]
 3292 004e 8A43     		bics	r2, r1
 3293 0050 DA60     		str	r2, [r3, #12]
 659:Drivers/STM32F0xx_HAL_Driver/Src/stm32f0xx_hal_rtc.c ****     {
 3294              		.loc 1 659 5 is_stmt 1 view .LVU1172
 659:Drivers/STM32F0xx_HAL_Driver/Src/stm32f0xx_hal_rtc.c ****     {
 3295              		.loc 1 659 23 is_stmt 0 view .LVU1173
 3296 0052 9A68     		ldr	r2, [r3, #8]
 659:Drivers/STM32F0xx_HAL_Driver/Src/stm32f0xx_hal_rtc.c ****     {
 3297              		.loc 1 659 7 view .LVU1174
 3298 0054 9206     		lsls	r2, r2, #26
 3299 0056 05D4     		bmi	.L177
ARM GAS  /var/folders/vr/85797ndx6jd_r3n_lsprlrj40000gn/T//ccWMqnSu.s 			page 102


 661:Drivers/STM32F0xx_HAL_Driver/Src/stm32f0xx_hal_rtc.c ****       { 
 3300              		.loc 1 661 7 is_stmt 1 view .LVU1175
 661:Drivers/STM32F0xx_HAL_Driver/Src/stm32f0xx_hal_rtc.c ****       { 
 3301              		.loc 1 661 10 is_stmt 0 view .LVU1176
 3302 0058 2800     		movs	r0, r5
 3303 005a FFF7FEFF 		bl	HAL_RTC_WaitForSynchro
 3304              	.LVL216:
 664:Drivers/STM32F0xx_HAL_Driver/Src/stm32f0xx_hal_rtc.c ****         
 3305              		.loc 1 664 9 view .LVU1177
 3306 005e 2B68     		ldr	r3, [r5]
 661:Drivers/STM32F0xx_HAL_Driver/Src/stm32f0xx_hal_rtc.c ****       { 
 3307              		.loc 1 661 9 view .LVU1178
 3308 0060 0028     		cmp	r0, #0
 3309 0062 40D1     		bne	.L178
 3310              	.L177:
 676:Drivers/STM32F0xx_HAL_Driver/Src/stm32f0xx_hal_rtc.c ****     
 3311              		.loc 1 676 5 is_stmt 1 view .LVU1179
 676:Drivers/STM32F0xx_HAL_Driver/Src/stm32f0xx_hal_rtc.c ****     
 3312              		.loc 1 676 5 view .LVU1180
 3313 0064 FF22     		movs	r2, #255
 3314 0066 5A62     		str	r2, [r3, #36]
 678:Drivers/STM32F0xx_HAL_Driver/Src/stm32f0xx_hal_rtc.c ****     
 3315              		.loc 1 678 5 view .LVU1181
 678:Drivers/STM32F0xx_HAL_Driver/Src/stm32f0xx_hal_rtc.c ****     
 3316              		.loc 1 678 17 is_stmt 0 view .LVU1182
 3317 0068 0123     		movs	r3, #1
 3318 006a 6B77     		strb	r3, [r5, #29]
 681:Drivers/STM32F0xx_HAL_Driver/Src/stm32f0xx_hal_rtc.c ****     
 3319              		.loc 1 681 5 is_stmt 1 view .LVU1183
 681:Drivers/STM32F0xx_HAL_Driver/Src/stm32f0xx_hal_rtc.c ****     
 3320              		.loc 1 681 5 view .LVU1184
 3321 006c 0023     		movs	r3, #0
 3322 006e 2B77     		strb	r3, [r5, #28]
 683:Drivers/STM32F0xx_HAL_Driver/Src/stm32f0xx_hal_rtc.c ****   }
 3323              		.loc 1 683 5 view .LVU1185
 3324              	.L187:
 685:Drivers/STM32F0xx_HAL_Driver/Src/stm32f0xx_hal_rtc.c **** 
 3325              		.loc 1 685 1 is_stmt 0 view .LVU1186
 3326 0070 3000     		movs	r0, r6
 3327              		@ sp needed
 3328              	.LVL217:
 685:Drivers/STM32F0xx_HAL_Driver/Src/stm32f0xx_hal_rtc.c **** 
 3329              		.loc 1 685 1 view .LVU1187
 3330 0072 F8BD     		pop	{r3, r4, r5, r6, r7, pc}
 3331              	.LVL218:
 3332              	.L188:
 601:Drivers/STM32F0xx_HAL_Driver/Src/stm32f0xx_hal_rtc.c ****   {
 3333              		.loc 1 601 33 discriminator 1 view .LVU1188
 3334 0074 1024     		movs	r4, #16
 3335 0076 0442     		tst	r4, r0
 3336 0078 32D0     		beq	.L169
 603:Drivers/STM32F0xx_HAL_Driver/Src/stm32f0xx_hal_rtc.c ****   }
 3337              		.loc 1 603 5 is_stmt 1 view .LVU1189
 603:Drivers/STM32F0xx_HAL_Driver/Src/stm32f0xx_hal_rtc.c ****   }
 3338              		.loc 1 603 44 is_stmt 0 view .LVU1190
 3339 007a A043     		bics	r0, r4
 603:Drivers/STM32F0xx_HAL_Driver/Src/stm32f0xx_hal_rtc.c ****   }
ARM GAS  /var/folders/vr/85797ndx6jd_r3n_lsprlrj40000gn/T//ccWMqnSu.s 			page 103


 3340              		.loc 1 603 20 view .LVU1191
 3341 007c 0A30     		adds	r0, r0, #10
 3342 007e C0B2     		uxtb	r0, r0
 603:Drivers/STM32F0xx_HAL_Driver/Src/stm32f0xx_hal_rtc.c ****   }
 3343              		.loc 1 603 18 view .LVU1192
 3344 0080 4870     		strb	r0, [r1, #1]
 606:Drivers/STM32F0xx_HAL_Driver/Src/stm32f0xx_hal_rtc.c ****   
 3345              		.loc 1 606 3 is_stmt 1 view .LVU1193
 608:Drivers/STM32F0xx_HAL_Driver/Src/stm32f0xx_hal_rtc.c ****   {   
 3346              		.loc 1 608 3 view .LVU1194
 610:Drivers/STM32F0xx_HAL_Driver/Src/stm32f0xx_hal_rtc.c ****     assert_param(IS_RTC_MONTH(sDate->Month));
 3347              		.loc 1 610 5 view .LVU1195
 611:Drivers/STM32F0xx_HAL_Driver/Src/stm32f0xx_hal_rtc.c ****     assert_param(IS_RTC_DATE(sDate->Date)); 
 3348              		.loc 1 611 5 view .LVU1196
 612:Drivers/STM32F0xx_HAL_Driver/Src/stm32f0xx_hal_rtc.c ****     
 3349              		.loc 1 612 5 view .LVU1197
 614:Drivers/STM32F0xx_HAL_Driver/Src/stm32f0xx_hal_rtc.c ****                  ((uint32_t)RTC_ByteToBcd2(sDate->Month) << 8U) | \
 3350              		.loc 1 614 4 view .LVU1198
 3351              	.LVL219:
 3352              	.LBB154:
 3353              	.LBI154:
1352:Drivers/STM32F0xx_HAL_Driver/Src/stm32f0xx_hal_rtc.c **** {
 3354              		.loc 1 1352 9 view .LVU1199
 3355              	.LBB155:
1354:Drivers/STM32F0xx_HAL_Driver/Src/stm32f0xx_hal_rtc.c ****   
 3356              		.loc 1 1354 3 view .LVU1200
1356:Drivers/STM32F0xx_HAL_Driver/Src/stm32f0xx_hal_rtc.c ****   {
 3357              		.loc 1 1356 3 view .LVU1201
1356:Drivers/STM32F0xx_HAL_Driver/Src/stm32f0xx_hal_rtc.c ****   {
 3358              		.loc 1 1356 8 is_stmt 0 view .LVU1202
 3359 0082 092B     		cmp	r3, #9
 3360 0084 38D9     		bls	.L170
 3361              	.LVL220:
 3362              	.L179:
1356:Drivers/STM32F0xx_HAL_Driver/Src/stm32f0xx_hal_rtc.c ****   {
 3363              		.loc 1 1356 8 view .LVU1203
 3364              	.LBE155:
 3365              	.LBE154:
 590:Drivers/STM32F0xx_HAL_Driver/Src/stm32f0xx_hal_rtc.c ****   uint32_t datetmpreg = 0U;
 3366              		.loc 1 590 1 view .LVU1204
 3367 0086 0021     		movs	r1, #0
 3368              	.LVL221:
 3369              	.L171:
 3370              	.LBB159:
 3371              	.LBB156:
1358:Drivers/STM32F0xx_HAL_Driver/Src/stm32f0xx_hal_rtc.c ****     Value -= 10U;
 3372              		.loc 1 1358 5 is_stmt 1 view .LVU1205
1359:Drivers/STM32F0xx_HAL_Driver/Src/stm32f0xx_hal_rtc.c ****   }
 3373              		.loc 1 1359 11 is_stmt 0 view .LVU1206
 3374 0088 0A3B     		subs	r3, r3, #10
 3375              	.LVL222:
1359:Drivers/STM32F0xx_HAL_Driver/Src/stm32f0xx_hal_rtc.c ****   }
 3376              		.loc 1 1359 11 view .LVU1207
 3377 008a DBB2     		uxtb	r3, r3
1358:Drivers/STM32F0xx_HAL_Driver/Src/stm32f0xx_hal_rtc.c ****     Value -= 10U;
 3378              		.loc 1 1358 12 view .LVU1208
 3379 008c 0131     		adds	r1, r1, #1
ARM GAS  /var/folders/vr/85797ndx6jd_r3n_lsprlrj40000gn/T//ccWMqnSu.s 			page 104


 3380              	.LVL223:
1359:Drivers/STM32F0xx_HAL_Driver/Src/stm32f0xx_hal_rtc.c ****   }
 3381              		.loc 1 1359 5 is_stmt 1 view .LVU1209
1356:Drivers/STM32F0xx_HAL_Driver/Src/stm32f0xx_hal_rtc.c ****   {
 3382              		.loc 1 1356 8 is_stmt 0 view .LVU1210
 3383 008e 092B     		cmp	r3, #9
 3384 0090 FAD8     		bhi	.L171
 3385 0092 0901     		lsls	r1, r1, #4
 3386              	.LVL224:
1356:Drivers/STM32F0xx_HAL_Driver/Src/stm32f0xx_hal_rtc.c ****   {
 3387              		.loc 1 1356 8 view .LVU1211
 3388 0094 0B43     		orrs	r3, r1
 3389              	.LVL225:
1356:Drivers/STM32F0xx_HAL_Driver/Src/stm32f0xx_hal_rtc.c ****   {
 3390              		.loc 1 1356 8 view .LVU1212
 3391 0096 DBB2     		uxtb	r3, r3
 3392              	.L180:
1362:Drivers/STM32F0xx_HAL_Driver/Src/stm32f0xx_hal_rtc.c **** }
 3393              		.loc 1 1362 3 is_stmt 1 view .LVU1213
 3394              	.LBE156:
 3395              	.LBE159:
 614:Drivers/STM32F0xx_HAL_Driver/Src/stm32f0xx_hal_rtc.c ****                  ((uint32_t)RTC_ByteToBcd2(sDate->Month) << 8U) | \
 3396              		.loc 1 614 57 is_stmt 0 view .LVU1214
 3397 0098 1B04     		lsls	r3, r3, #16
 3398              	.LVL226:
 3399              	.LBB160:
 3400              	.LBI160:
1352:Drivers/STM32F0xx_HAL_Driver/Src/stm32f0xx_hal_rtc.c **** {
 3401              		.loc 1 1352 9 is_stmt 1 view .LVU1215
 3402              	.LBB161:
1356:Drivers/STM32F0xx_HAL_Driver/Src/stm32f0xx_hal_rtc.c ****   {
 3403              		.loc 1 1356 8 is_stmt 0 view .LVU1216
 3404 009a 0928     		cmp	r0, #9
 3405 009c 08D9     		bls	.L172
 3406              	.LVL227:
 3407              	.L182:
1356:Drivers/STM32F0xx_HAL_Driver/Src/stm32f0xx_hal_rtc.c ****   {
 3408              		.loc 1 1356 8 view .LVU1217
 3409              	.LBE161:
 3410              	.LBE160:
 590:Drivers/STM32F0xx_HAL_Driver/Src/stm32f0xx_hal_rtc.c ****   uint32_t datetmpreg = 0U;
 3411              		.loc 1 590 1 view .LVU1218
 3412 009e 0021     		movs	r1, #0
 3413              	.LVL228:
 3414              	.L173:
 3415              	.LBB163:
 3416              	.LBB162:
1358:Drivers/STM32F0xx_HAL_Driver/Src/stm32f0xx_hal_rtc.c ****     Value -= 10U;
 3417              		.loc 1 1358 5 is_stmt 1 view .LVU1219
1359:Drivers/STM32F0xx_HAL_Driver/Src/stm32f0xx_hal_rtc.c ****   }
 3418              		.loc 1 1359 11 is_stmt 0 view .LVU1220
 3419 00a0 0A38     		subs	r0, r0, #10
 3420              	.LVL229:
1359:Drivers/STM32F0xx_HAL_Driver/Src/stm32f0xx_hal_rtc.c ****   }
 3421              		.loc 1 1359 11 view .LVU1221
 3422 00a2 C0B2     		uxtb	r0, r0
1358:Drivers/STM32F0xx_HAL_Driver/Src/stm32f0xx_hal_rtc.c ****     Value -= 10U;
ARM GAS  /var/folders/vr/85797ndx6jd_r3n_lsprlrj40000gn/T//ccWMqnSu.s 			page 105


 3423              		.loc 1 1358 12 view .LVU1222
 3424 00a4 0131     		adds	r1, r1, #1
 3425              	.LVL230:
1359:Drivers/STM32F0xx_HAL_Driver/Src/stm32f0xx_hal_rtc.c ****   }
 3426              		.loc 1 1359 5 is_stmt 1 view .LVU1223
1356:Drivers/STM32F0xx_HAL_Driver/Src/stm32f0xx_hal_rtc.c ****   {
 3427              		.loc 1 1356 8 is_stmt 0 view .LVU1224
 3428 00a6 0928     		cmp	r0, #9
 3429 00a8 FAD8     		bhi	.L173
 3430 00aa 0901     		lsls	r1, r1, #4
 3431              	.LVL231:
1356:Drivers/STM32F0xx_HAL_Driver/Src/stm32f0xx_hal_rtc.c ****   {
 3432              		.loc 1 1356 8 view .LVU1225
 3433 00ac 0843     		orrs	r0, r1
 3434              	.LVL232:
1356:Drivers/STM32F0xx_HAL_Driver/Src/stm32f0xx_hal_rtc.c ****   {
 3435              		.loc 1 1356 8 view .LVU1226
 3436 00ae C0B2     		uxtb	r0, r0
 3437              	.L172:
1362:Drivers/STM32F0xx_HAL_Driver/Src/stm32f0xx_hal_rtc.c **** }
 3438              		.loc 1 1362 3 is_stmt 1 view .LVU1227
 3439              	.LBE162:
 3440              	.LBE163:
 615:Drivers/STM32F0xx_HAL_Driver/Src/stm32f0xx_hal_rtc.c ****                  ((uint32_t)RTC_ByteToBcd2(sDate->Date)) | \
 3441              		.loc 1 615 58 is_stmt 0 view .LVU1228
 3442 00b0 0002     		lsls	r0, r0, #8
 3443              	.LVL233:
 3444              	.LBB164:
 3445              	.LBI164:
1352:Drivers/STM32F0xx_HAL_Driver/Src/stm32f0xx_hal_rtc.c **** {
 3446              		.loc 1 1352 9 is_stmt 1 view .LVU1229
 3447              	.LBB165:
1356:Drivers/STM32F0xx_HAL_Driver/Src/stm32f0xx_hal_rtc.c ****   {
 3448              		.loc 1 1356 8 is_stmt 0 view .LVU1230
 3449 00b2 092E     		cmp	r6, #9
 3450 00b4 07D9     		bls	.L174
 3451              	.LVL234:
 3452              	.L175:
1358:Drivers/STM32F0xx_HAL_Driver/Src/stm32f0xx_hal_rtc.c ****     Value -= 10U;
 3453              		.loc 1 1358 5 is_stmt 1 view .LVU1231
1359:Drivers/STM32F0xx_HAL_Driver/Src/stm32f0xx_hal_rtc.c ****   }
 3454              		.loc 1 1359 11 is_stmt 0 view .LVU1232
 3455 00b6 0A3E     		subs	r6, r6, #10
 3456              	.LVL235:
1359:Drivers/STM32F0xx_HAL_Driver/Src/stm32f0xx_hal_rtc.c ****   }
 3457              		.loc 1 1359 11 view .LVU1233
 3458 00b8 F6B2     		uxtb	r6, r6
1358:Drivers/STM32F0xx_HAL_Driver/Src/stm32f0xx_hal_rtc.c ****     Value -= 10U;
 3459              		.loc 1 1358 12 view .LVU1234
 3460 00ba 0132     		adds	r2, r2, #1
 3461              	.LVL236:
1359:Drivers/STM32F0xx_HAL_Driver/Src/stm32f0xx_hal_rtc.c ****   }
 3462              		.loc 1 1359 5 is_stmt 1 view .LVU1235
1356:Drivers/STM32F0xx_HAL_Driver/Src/stm32f0xx_hal_rtc.c ****   {
 3463              		.loc 1 1356 8 is_stmt 0 view .LVU1236
 3464 00bc 092E     		cmp	r6, #9
 3465 00be FAD8     		bhi	.L175
ARM GAS  /var/folders/vr/85797ndx6jd_r3n_lsprlrj40000gn/T//ccWMqnSu.s 			page 106


 3466 00c0 1201     		lsls	r2, r2, #4
 3467              	.LVL237:
1356:Drivers/STM32F0xx_HAL_Driver/Src/stm32f0xx_hal_rtc.c ****   {
 3468              		.loc 1 1356 8 view .LVU1237
 3469 00c2 1643     		orrs	r6, r2
 3470              	.LVL238:
1356:Drivers/STM32F0xx_HAL_Driver/Src/stm32f0xx_hal_rtc.c ****   {
 3471              		.loc 1 1356 8 view .LVU1238
 3472 00c4 F6B2     		uxtb	r6, r6
 3473              	.L174:
1362:Drivers/STM32F0xx_HAL_Driver/Src/stm32f0xx_hal_rtc.c **** }
 3474              		.loc 1 1362 3 is_stmt 1 view .LVU1239
 3475              	.LBE165:
 3476              	.LBE164:
 614:Drivers/STM32F0xx_HAL_Driver/Src/stm32f0xx_hal_rtc.c ****                  ((uint32_t)RTC_ByteToBcd2(sDate->Month) << 8U) | \
 3477              		.loc 1 614 15 is_stmt 0 view .LVU1240
 3478 00c6 3B43     		orrs	r3, r7
 3479 00c8 0343     		orrs	r3, r0
 3480 00ca 3343     		orrs	r3, r6
 3481 00cc 1C00     		movs	r4, r3
 3482              	.LVL239:
 614:Drivers/STM32F0xx_HAL_Driver/Src/stm32f0xx_hal_rtc.c ****                  ((uint32_t)RTC_ByteToBcd2(sDate->Month) << 8U) | \
 3483              		.loc 1 614 15 view .LVU1241
 3484 00ce AEE7     		b	.L181
 3485              	.LVL240:
 3486              	.L189:
 640:Drivers/STM32F0xx_HAL_Driver/Src/stm32f0xx_hal_rtc.c ****     
 3487              		.loc 1 640 5 is_stmt 1 view .LVU1242
 640:Drivers/STM32F0xx_HAL_Driver/Src/stm32f0xx_hal_rtc.c ****     
 3488              		.loc 1 640 5 view .LVU1243
 3489 00d0 FF22     		movs	r2, #255
 3490 00d2 5A62     		str	r2, [r3, #36]
 643:Drivers/STM32F0xx_HAL_Driver/Src/stm32f0xx_hal_rtc.c ****     
 3491              		.loc 1 643 5 view .LVU1244
 643:Drivers/STM32F0xx_HAL_Driver/Src/stm32f0xx_hal_rtc.c ****     
 3492              		.loc 1 643 17 is_stmt 0 view .LVU1245
 3493 00d4 0423     		movs	r3, #4
 3494 00d6 6B77     		strb	r3, [r5, #29]
 646:Drivers/STM32F0xx_HAL_Driver/Src/stm32f0xx_hal_rtc.c ****     
 3495              		.loc 1 646 5 is_stmt 1 view .LVU1246
 646:Drivers/STM32F0xx_HAL_Driver/Src/stm32f0xx_hal_rtc.c ****     
 3496              		.loc 1 646 5 view .LVU1247
 3497 00d8 0023     		movs	r3, #0
 648:Drivers/STM32F0xx_HAL_Driver/Src/stm32f0xx_hal_rtc.c ****   } 
 3498              		.loc 1 648 12 is_stmt 0 view .LVU1248
 3499 00da 0126     		movs	r6, #1
 646:Drivers/STM32F0xx_HAL_Driver/Src/stm32f0xx_hal_rtc.c ****     
 3500              		.loc 1 646 5 view .LVU1249
 3501 00dc 2B77     		strb	r3, [r5, #28]
 648:Drivers/STM32F0xx_HAL_Driver/Src/stm32f0xx_hal_rtc.c ****   } 
 3502              		.loc 1 648 5 is_stmt 1 view .LVU1250
 648:Drivers/STM32F0xx_HAL_Driver/Src/stm32f0xx_hal_rtc.c ****   } 
 3503              		.loc 1 648 12 is_stmt 0 view .LVU1251
 3504 00de C7E7     		b	.L187
 3505              	.LVL241:
 3506              	.L169:
 606:Drivers/STM32F0xx_HAL_Driver/Src/stm32f0xx_hal_rtc.c ****   
ARM GAS  /var/folders/vr/85797ndx6jd_r3n_lsprlrj40000gn/T//ccWMqnSu.s 			page 107


 3507              		.loc 1 606 3 is_stmt 1 view .LVU1252
 608:Drivers/STM32F0xx_HAL_Driver/Src/stm32f0xx_hal_rtc.c ****   {   
 3508              		.loc 1 608 3 view .LVU1253
 610:Drivers/STM32F0xx_HAL_Driver/Src/stm32f0xx_hal_rtc.c ****     assert_param(IS_RTC_MONTH(sDate->Month));
 3509              		.loc 1 610 5 view .LVU1254
 611:Drivers/STM32F0xx_HAL_Driver/Src/stm32f0xx_hal_rtc.c ****     assert_param(IS_RTC_DATE(sDate->Date)); 
 3510              		.loc 1 611 5 view .LVU1255
 612:Drivers/STM32F0xx_HAL_Driver/Src/stm32f0xx_hal_rtc.c ****     
 3511              		.loc 1 612 5 view .LVU1256
 614:Drivers/STM32F0xx_HAL_Driver/Src/stm32f0xx_hal_rtc.c ****                  ((uint32_t)RTC_ByteToBcd2(sDate->Month) << 8U) | \
 3512              		.loc 1 614 4 view .LVU1257
 3513              	.LBB166:
1352:Drivers/STM32F0xx_HAL_Driver/Src/stm32f0xx_hal_rtc.c **** {
 3514              		.loc 1 1352 9 view .LVU1258
 3515              	.LBB157:
1354:Drivers/STM32F0xx_HAL_Driver/Src/stm32f0xx_hal_rtc.c ****   
 3516              		.loc 1 1354 3 view .LVU1259
1356:Drivers/STM32F0xx_HAL_Driver/Src/stm32f0xx_hal_rtc.c ****   {
 3517              		.loc 1 1356 3 view .LVU1260
1356:Drivers/STM32F0xx_HAL_Driver/Src/stm32f0xx_hal_rtc.c ****   {
 3518              		.loc 1 1356 8 is_stmt 0 view .LVU1261
 3519 00e0 092B     		cmp	r3, #9
 3520 00e2 D0D8     		bhi	.L179
 3521 00e4 D8E7     		b	.L180
 3522              	.LVL242:
 3523              	.L178:
1356:Drivers/STM32F0xx_HAL_Driver/Src/stm32f0xx_hal_rtc.c ****   {
 3524              		.loc 1 1356 8 view .LVU1262
 3525              	.LBE157:
 3526              	.LBE166:
 664:Drivers/STM32F0xx_HAL_Driver/Src/stm32f0xx_hal_rtc.c ****         
 3527              		.loc 1 664 9 is_stmt 1 view .LVU1263
 664:Drivers/STM32F0xx_HAL_Driver/Src/stm32f0xx_hal_rtc.c ****         
 3528              		.loc 1 664 9 view .LVU1264
 3529 00e6 FF22     		movs	r2, #255
 3530 00e8 5A62     		str	r2, [r3, #36]
 666:Drivers/STM32F0xx_HAL_Driver/Src/stm32f0xx_hal_rtc.c ****         
 3531              		.loc 1 666 9 view .LVU1265
 666:Drivers/STM32F0xx_HAL_Driver/Src/stm32f0xx_hal_rtc.c ****         
 3532              		.loc 1 666 21 is_stmt 0 view .LVU1266
 3533 00ea 0423     		movs	r3, #4
 669:Drivers/STM32F0xx_HAL_Driver/Src/stm32f0xx_hal_rtc.c ****         
 3534              		.loc 1 669 9 view .LVU1267
 3535 00ec 2E77     		strb	r6, [r5, #28]
 666:Drivers/STM32F0xx_HAL_Driver/Src/stm32f0xx_hal_rtc.c ****         
 3536              		.loc 1 666 21 view .LVU1268
 3537 00ee 6B77     		strb	r3, [r5, #29]
 669:Drivers/STM32F0xx_HAL_Driver/Src/stm32f0xx_hal_rtc.c ****         
 3538              		.loc 1 669 9 is_stmt 1 view .LVU1269
 669:Drivers/STM32F0xx_HAL_Driver/Src/stm32f0xx_hal_rtc.c ****         
 3539              		.loc 1 669 9 view .LVU1270
 671:Drivers/STM32F0xx_HAL_Driver/Src/stm32f0xx_hal_rtc.c ****       }
 3540              		.loc 1 671 9 view .LVU1271
 671:Drivers/STM32F0xx_HAL_Driver/Src/stm32f0xx_hal_rtc.c ****       }
 3541              		.loc 1 671 16 is_stmt 0 view .LVU1272
 3542 00f0 0126     		movs	r6, #1
 3543 00f2 BDE7     		b	.L187
ARM GAS  /var/folders/vr/85797ndx6jd_r3n_lsprlrj40000gn/T//ccWMqnSu.s 			page 108


 3544              	.LVL243:
 3545              	.L183:
 597:Drivers/STM32F0xx_HAL_Driver/Src/stm32f0xx_hal_rtc.c ****   
 3546              		.loc 1 597 2 view .LVU1273
 3547 00f4 0226     		movs	r6, #2
 3548 00f6 BBE7     		b	.L187
 3549              	.LVL244:
 3550              	.L170:
 3551              	.LBB167:
 3552              	.LBB158:
1362:Drivers/STM32F0xx_HAL_Driver/Src/stm32f0xx_hal_rtc.c **** }
 3553              		.loc 1 1362 3 is_stmt 1 view .LVU1274
1362:Drivers/STM32F0xx_HAL_Driver/Src/stm32f0xx_hal_rtc.c **** }
 3554              		.loc 1 1362 3 is_stmt 0 view .LVU1275
 3555              	.LBE158:
 3556              	.LBE167:
 614:Drivers/STM32F0xx_HAL_Driver/Src/stm32f0xx_hal_rtc.c ****                  ((uint32_t)RTC_ByteToBcd2(sDate->Month) << 8U) | \
 3557              		.loc 1 614 57 view .LVU1276
 3558 00f8 1B04     		lsls	r3, r3, #16
 3559              	.LVL245:
 3560              	.LBB168:
1352:Drivers/STM32F0xx_HAL_Driver/Src/stm32f0xx_hal_rtc.c **** {
 3561              		.loc 1 1352 9 is_stmt 1 view .LVU1277
1352:Drivers/STM32F0xx_HAL_Driver/Src/stm32f0xx_hal_rtc.c **** {
 3562              		.loc 1 1352 9 is_stmt 0 view .LVU1278
 3563 00fa D0E7     		b	.L182
 3564              	.L191:
 3565              		.align	2
 3566              	.L190:
 3567 00fc 3FFFFF00 		.word	16777023
 3568              	.LBE168:
 3569              		.cfi_endproc
 3570              	.LFE43:
 3572              		.section	.text.RTC_ByteToBcd2,"ax",%progbits
 3573              		.align	1
 3574              		.p2align 2,,3
 3575              		.global	RTC_ByteToBcd2
 3576              		.syntax unified
 3577              		.code	16
 3578              		.thumb_func
 3579              		.fpu softvfp
 3581              	RTC_ByteToBcd2:
 3582              	.LVL246:
 3583              	.LFB55:
1353:Drivers/STM32F0xx_HAL_Driver/Src/stm32f0xx_hal_rtc.c ****   uint32_t bcdhigh = 0U;
 3584              		.loc 1 1353 1 is_stmt 1 view -0
 3585              		.cfi_startproc
 3586              		@ args = 0, pretend = 0, frame = 0
 3587              		@ frame_needed = 0, uses_anonymous_args = 0
 3588              		@ link register save eliminated.
1354:Drivers/STM32F0xx_HAL_Driver/Src/stm32f0xx_hal_rtc.c ****   
 3589              		.loc 1 1354 3 view .LVU1280
1356:Drivers/STM32F0xx_HAL_Driver/Src/stm32f0xx_hal_rtc.c ****   {
 3590              		.loc 1 1356 3 view .LVU1281
1356:Drivers/STM32F0xx_HAL_Driver/Src/stm32f0xx_hal_rtc.c ****   {
 3591              		.loc 1 1356 8 is_stmt 0 view .LVU1282
 3592 0000 0928     		cmp	r0, #9
ARM GAS  /var/folders/vr/85797ndx6jd_r3n_lsprlrj40000gn/T//ccWMqnSu.s 			page 109


 3593 0002 08D9     		bls	.L193
1354:Drivers/STM32F0xx_HAL_Driver/Src/stm32f0xx_hal_rtc.c ****   
 3594              		.loc 1 1354 12 view .LVU1283
 3595 0004 0023     		movs	r3, #0
 3596              	.LVL247:
 3597              	.L194:
1358:Drivers/STM32F0xx_HAL_Driver/Src/stm32f0xx_hal_rtc.c ****     Value -= 10U;
 3598              		.loc 1 1358 5 is_stmt 1 view .LVU1284
1359:Drivers/STM32F0xx_HAL_Driver/Src/stm32f0xx_hal_rtc.c ****   }
 3599              		.loc 1 1359 11 is_stmt 0 view .LVU1285
 3600 0006 0A38     		subs	r0, r0, #10
 3601              	.LVL248:
1359:Drivers/STM32F0xx_HAL_Driver/Src/stm32f0xx_hal_rtc.c ****   }
 3602              		.loc 1 1359 11 view .LVU1286
 3603 0008 C0B2     		uxtb	r0, r0
1358:Drivers/STM32F0xx_HAL_Driver/Src/stm32f0xx_hal_rtc.c ****     Value -= 10U;
 3604              		.loc 1 1358 12 view .LVU1287
 3605 000a 0133     		adds	r3, r3, #1
 3606              	.LVL249:
1359:Drivers/STM32F0xx_HAL_Driver/Src/stm32f0xx_hal_rtc.c ****   }
 3607              		.loc 1 1359 5 is_stmt 1 view .LVU1288
1356:Drivers/STM32F0xx_HAL_Driver/Src/stm32f0xx_hal_rtc.c ****   {
 3608              		.loc 1 1356 8 is_stmt 0 view .LVU1289
 3609 000c 0928     		cmp	r0, #9
 3610 000e FAD8     		bhi	.L194
 3611 0010 1B01     		lsls	r3, r3, #4
 3612              	.LVL250:
1356:Drivers/STM32F0xx_HAL_Driver/Src/stm32f0xx_hal_rtc.c ****   {
 3613              		.loc 1 1356 8 view .LVU1290
 3614 0012 1843     		orrs	r0, r3
 3615              	.LVL251:
1356:Drivers/STM32F0xx_HAL_Driver/Src/stm32f0xx_hal_rtc.c ****   {
 3616              		.loc 1 1356 8 view .LVU1291
 3617 0014 C0B2     		uxtb	r0, r0
 3618              	.L193:
1362:Drivers/STM32F0xx_HAL_Driver/Src/stm32f0xx_hal_rtc.c **** }
 3619              		.loc 1 1362 3 is_stmt 1 view .LVU1292
1363:Drivers/STM32F0xx_HAL_Driver/Src/stm32f0xx_hal_rtc.c **** 
 3620              		.loc 1 1363 1 is_stmt 0 view .LVU1293
 3621              		@ sp needed
 3622 0016 7047     		bx	lr
 3623              		.cfi_endproc
 3624              	.LFE55:
 3626              		.section	.text.RTC_Bcd2ToByte,"ax",%progbits
 3627              		.align	1
 3628              		.p2align 2,,3
 3629              		.global	RTC_Bcd2ToByte
 3630              		.syntax unified
 3631              		.code	16
 3632              		.thumb_func
 3633              		.fpu softvfp
 3635              	RTC_Bcd2ToByte:
 3636              	.LVL252:
 3637              	.LFB56:
1371:Drivers/STM32F0xx_HAL_Driver/Src/stm32f0xx_hal_rtc.c ****   uint32_t tmp = 0U;
 3638              		.loc 1 1371 1 is_stmt 1 view -0
 3639              		.cfi_startproc
ARM GAS  /var/folders/vr/85797ndx6jd_r3n_lsprlrj40000gn/T//ccWMqnSu.s 			page 110


 3640              		@ args = 0, pretend = 0, frame = 0
 3641              		@ frame_needed = 0, uses_anonymous_args = 0
 3642              		@ link register save eliminated.
1372:Drivers/STM32F0xx_HAL_Driver/Src/stm32f0xx_hal_rtc.c ****   tmp = ((uint8_t)(Value & (uint8_t)0xF0U) >> (uint8_t)0x4U) * 10U;
 3643              		.loc 1 1372 3 view .LVU1295
1373:Drivers/STM32F0xx_HAL_Driver/Src/stm32f0xx_hal_rtc.c ****   return (tmp + (Value & (uint8_t)0x0FU));
 3644              		.loc 1 1373 3 view .LVU1296
 3645              		.loc 1 1374 3 view .LVU1297
1373:Drivers/STM32F0xx_HAL_Driver/Src/stm32f0xx_hal_rtc.c ****   return (tmp + (Value & (uint8_t)0x0FU));
 3646              		.loc 1 1373 44 is_stmt 0 view .LVU1298
 3647 0000 0209     		lsrs	r2, r0, #4
1373:Drivers/STM32F0xx_HAL_Driver/Src/stm32f0xx_hal_rtc.c ****   return (tmp + (Value & (uint8_t)0x0FU));
 3648              		.loc 1 1373 7 view .LVU1299
 3649 0002 9300     		lsls	r3, r2, #2
 3650 0004 9B18     		adds	r3, r3, r2
 3651              		.loc 1 1374 24 view .LVU1300
 3652 0006 0F22     		movs	r2, #15
1373:Drivers/STM32F0xx_HAL_Driver/Src/stm32f0xx_hal_rtc.c ****   return (tmp + (Value & (uint8_t)0x0FU));
 3653              		.loc 1 1373 7 view .LVU1301
 3654 0008 5B00     		lsls	r3, r3, #1
 3655              		.loc 1 1374 24 view .LVU1302
 3656 000a 1040     		ands	r0, r2
 3657              	.LVL253:
 3658              		.loc 1 1374 15 view .LVU1303
 3659 000c 1818     		adds	r0, r3, r0
 3660 000e C0B2     		uxtb	r0, r0
1375:Drivers/STM32F0xx_HAL_Driver/Src/stm32f0xx_hal_rtc.c **** }
 3661              		.loc 1 1375 1 view .LVU1304
 3662              		@ sp needed
 3663 0010 7047     		bx	lr
 3664              		.cfi_endproc
 3665              	.LFE56:
 3667 0012 C046     		.text
 3668              	.Letext0:
 3669              		.file 2 "/usr/local/Cellar/arm-gcc-bin/8-2018-q4-major/arm-none-eabi/include/machine/_default_type
 3670              		.file 3 "/usr/local/Cellar/arm-gcc-bin/8-2018-q4-major/arm-none-eabi/include/sys/_stdint.h"
 3671              		.file 4 "Drivers/CMSIS/Device/ST/STM32F0xx/Include/system_stm32f0xx.h"
 3672              		.file 5 "Drivers/CMSIS/Device/ST/STM32F0xx/Include/stm32f030xc.h"
 3673              		.file 6 "/usr/local/Cellar/arm-gcc-bin/8-2018-q4-major/arm-none-eabi/include/sys/lock.h"
 3674              		.file 7 "/usr/local/Cellar/arm-gcc-bin/8-2018-q4-major/arm-none-eabi/include/sys/_types.h"
 3675              		.file 8 "/usr/local/Cellar/arm-gcc-bin/8-2018-q4-major/lib/gcc/arm-none-eabi/8.2.1/include/stddef.
 3676              		.file 9 "/usr/local/Cellar/arm-gcc-bin/8-2018-q4-major/arm-none-eabi/include/sys/reent.h"
 3677              		.file 10 "Drivers/CMSIS/Device/ST/STM32F0xx/Include/stm32f0xx.h"
 3678              		.file 11 "Drivers/STM32F0xx_HAL_Driver/Inc/stm32f0xx_hal_def.h"
 3679              		.file 12 "Drivers/STM32F0xx_HAL_Driver/Inc/stm32f0xx_hal_rtc.h"
 3680              		.file 13 "Drivers/STM32F0xx_HAL_Driver/Inc/stm32f0xx_hal.h"
ARM GAS  /var/folders/vr/85797ndx6jd_r3n_lsprlrj40000gn/T//ccWMqnSu.s 			page 111


DEFINED SYMBOLS
                            *ABS*:0000000000000000 stm32f0xx_hal_rtc.c
/var/folders/vr/85797ndx6jd_r3n_lsprlrj40000gn/T//ccWMqnSu.s:16     .text.HAL_RTC_MspInit:0000000000000000 $t
/var/folders/vr/85797ndx6jd_r3n_lsprlrj40000gn/T//ccWMqnSu.s:25     .text.HAL_RTC_MspInit:0000000000000000 HAL_RTC_MspInit
/var/folders/vr/85797ndx6jd_r3n_lsprlrj40000gn/T//ccWMqnSu.s:42     .text.HAL_RTC_MspDeInit:0000000000000000 $t
/var/folders/vr/85797ndx6jd_r3n_lsprlrj40000gn/T//ccWMqnSu.s:50     .text.HAL_RTC_MspDeInit:0000000000000000 HAL_RTC_MspDeInit
/var/folders/vr/85797ndx6jd_r3n_lsprlrj40000gn/T//ccWMqnSu.s:62     .text.HAL_RTC_GetTime:0000000000000000 $t
/var/folders/vr/85797ndx6jd_r3n_lsprlrj40000gn/T//ccWMqnSu.s:70     .text.HAL_RTC_GetTime:0000000000000000 HAL_RTC_GetTime
/var/folders/vr/85797ndx6jd_r3n_lsprlrj40000gn/T//ccWMqnSu.s:236    .text.HAL_RTC_GetTime:0000000000000064 $d
/var/folders/vr/85797ndx6jd_r3n_lsprlrj40000gn/T//ccWMqnSu.s:241    .text.HAL_RTC_GetDate:0000000000000000 $t
/var/folders/vr/85797ndx6jd_r3n_lsprlrj40000gn/T//ccWMqnSu.s:249    .text.HAL_RTC_GetDate:0000000000000000 HAL_RTC_GetDate
/var/folders/vr/85797ndx6jd_r3n_lsprlrj40000gn/T//ccWMqnSu.s:429    .text.HAL_RTC_GetDate:0000000000000058 $d
/var/folders/vr/85797ndx6jd_r3n_lsprlrj40000gn/T//ccWMqnSu.s:434    .text.HAL_RTC_SetAlarm:0000000000000000 $t
/var/folders/vr/85797ndx6jd_r3n_lsprlrj40000gn/T//ccWMqnSu.s:442    .text.HAL_RTC_SetAlarm:0000000000000000 HAL_RTC_SetAlarm
/var/folders/vr/85797ndx6jd_r3n_lsprlrj40000gn/T//ccWMqnSu.s:921    .text.HAL_RTC_SetAlarm:0000000000000170 $d
/var/folders/vr/85797ndx6jd_r3n_lsprlrj40000gn/T//ccWMqnSu.s:927    .text.HAL_RTC_SetAlarm_IT:0000000000000000 $t
/var/folders/vr/85797ndx6jd_r3n_lsprlrj40000gn/T//ccWMqnSu.s:935    .text.HAL_RTC_SetAlarm_IT:0000000000000000 HAL_RTC_SetAlarm_IT
/var/folders/vr/85797ndx6jd_r3n_lsprlrj40000gn/T//ccWMqnSu.s:1437   .text.HAL_RTC_SetAlarm_IT:0000000000000190 $d
/var/folders/vr/85797ndx6jd_r3n_lsprlrj40000gn/T//ccWMqnSu.s:1444   .text.HAL_RTC_DeactivateAlarm:0000000000000000 $t
/var/folders/vr/85797ndx6jd_r3n_lsprlrj40000gn/T//ccWMqnSu.s:1452   .text.HAL_RTC_DeactivateAlarm:0000000000000000 HAL_RTC_DeactivateAlarm
/var/folders/vr/85797ndx6jd_r3n_lsprlrj40000gn/T//ccWMqnSu.s:1608   .text.HAL_RTC_DeactivateAlarm:0000000000000078 $d
/var/folders/vr/85797ndx6jd_r3n_lsprlrj40000gn/T//ccWMqnSu.s:1614   .text.HAL_RTC_GetAlarm:0000000000000000 $t
/var/folders/vr/85797ndx6jd_r3n_lsprlrj40000gn/T//ccWMqnSu.s:1622   .text.HAL_RTC_GetAlarm:0000000000000000 HAL_RTC_GetAlarm
/var/folders/vr/85797ndx6jd_r3n_lsprlrj40000gn/T//ccWMqnSu.s:1905   .text.HAL_RTC_GetAlarm:00000000000000c0 $d
/var/folders/vr/85797ndx6jd_r3n_lsprlrj40000gn/T//ccWMqnSu.s:1910   .text.HAL_RTC_AlarmAEventCallback:0000000000000000 $t
/var/folders/vr/85797ndx6jd_r3n_lsprlrj40000gn/T//ccWMqnSu.s:1918   .text.HAL_RTC_AlarmAEventCallback:0000000000000000 HAL_RTC_AlarmAEventCallback
/var/folders/vr/85797ndx6jd_r3n_lsprlrj40000gn/T//ccWMqnSu.s:1930   .text.HAL_RTC_AlarmIRQHandler:0000000000000000 $t
/var/folders/vr/85797ndx6jd_r3n_lsprlrj40000gn/T//ccWMqnSu.s:1938   .text.HAL_RTC_AlarmIRQHandler:0000000000000000 HAL_RTC_AlarmIRQHandler
/var/folders/vr/85797ndx6jd_r3n_lsprlrj40000gn/T//ccWMqnSu.s:2001   .text.HAL_RTC_AlarmIRQHandler:0000000000000034 $d
/var/folders/vr/85797ndx6jd_r3n_lsprlrj40000gn/T//ccWMqnSu.s:2007   .text.HAL_RTC_PollForAlarmAEvent:0000000000000000 $t
/var/folders/vr/85797ndx6jd_r3n_lsprlrj40000gn/T//ccWMqnSu.s:2015   .text.HAL_RTC_PollForAlarmAEvent:0000000000000000 HAL_RTC_PollForAlarmAEvent
/var/folders/vr/85797ndx6jd_r3n_lsprlrj40000gn/T//ccWMqnSu.s:2114   .text.HAL_RTC_PollForAlarmAEvent:0000000000000048 $d
/var/folders/vr/85797ndx6jd_r3n_lsprlrj40000gn/T//ccWMqnSu.s:2119   .text.HAL_RTC_WaitForSynchro:0000000000000000 $t
/var/folders/vr/85797ndx6jd_r3n_lsprlrj40000gn/T//ccWMqnSu.s:2127   .text.HAL_RTC_WaitForSynchro:0000000000000000 HAL_RTC_WaitForSynchro
/var/folders/vr/85797ndx6jd_r3n_lsprlrj40000gn/T//ccWMqnSu.s:2210   .text.HAL_RTC_GetState:0000000000000000 $t
/var/folders/vr/85797ndx6jd_r3n_lsprlrj40000gn/T//ccWMqnSu.s:2218   .text.HAL_RTC_GetState:0000000000000000 HAL_RTC_GetState
/var/folders/vr/85797ndx6jd_r3n_lsprlrj40000gn/T//ccWMqnSu.s:2240   .text.RTC_EnterInitMode:0000000000000000 $t
/var/folders/vr/85797ndx6jd_r3n_lsprlrj40000gn/T//ccWMqnSu.s:2248   .text.RTC_EnterInitMode:0000000000000000 RTC_EnterInitMode
/var/folders/vr/85797ndx6jd_r3n_lsprlrj40000gn/T//ccWMqnSu.s:2337   .text.HAL_RTC_Init:0000000000000000 $t
/var/folders/vr/85797ndx6jd_r3n_lsprlrj40000gn/T//ccWMqnSu.s:2345   .text.HAL_RTC_Init:0000000000000000 HAL_RTC_Init
/var/folders/vr/85797ndx6jd_r3n_lsprlrj40000gn/T//ccWMqnSu.s:2532   .text.HAL_RTC_Init:000000000000009c $d
/var/folders/vr/85797ndx6jd_r3n_lsprlrj40000gn/T//ccWMqnSu.s:2538   .text.HAL_RTC_DeInit:0000000000000000 $t
/var/folders/vr/85797ndx6jd_r3n_lsprlrj40000gn/T//ccWMqnSu.s:2546   .text.HAL_RTC_DeInit:0000000000000000 HAL_RTC_DeInit
/var/folders/vr/85797ndx6jd_r3n_lsprlrj40000gn/T//ccWMqnSu.s:2775   .text.HAL_RTC_DeInit:00000000000000c0 $d
/var/folders/vr/85797ndx6jd_r3n_lsprlrj40000gn/T//ccWMqnSu.s:2782   .text.HAL_RTC_SetTime:0000000000000000 $t
/var/folders/vr/85797ndx6jd_r3n_lsprlrj40000gn/T//ccWMqnSu.s:2790   .text.HAL_RTC_SetTime:0000000000000000 HAL_RTC_SetTime
/var/folders/vr/85797ndx6jd_r3n_lsprlrj40000gn/T//ccWMqnSu.s:3170   .text.HAL_RTC_SetTime:0000000000000120 $d
/var/folders/vr/85797ndx6jd_r3n_lsprlrj40000gn/T//ccWMqnSu.s:3176   .text.HAL_RTC_SetDate:0000000000000000 $t
/var/folders/vr/85797ndx6jd_r3n_lsprlrj40000gn/T//ccWMqnSu.s:3184   .text.HAL_RTC_SetDate:0000000000000000 HAL_RTC_SetDate
/var/folders/vr/85797ndx6jd_r3n_lsprlrj40000gn/T//ccWMqnSu.s:3567   .text.HAL_RTC_SetDate:00000000000000fc $d
/var/folders/vr/85797ndx6jd_r3n_lsprlrj40000gn/T//ccWMqnSu.s:3573   .text.RTC_ByteToBcd2:0000000000000000 $t
/var/folders/vr/85797ndx6jd_r3n_lsprlrj40000gn/T//ccWMqnSu.s:3581   .text.RTC_ByteToBcd2:0000000000000000 RTC_ByteToBcd2
/var/folders/vr/85797ndx6jd_r3n_lsprlrj40000gn/T//ccWMqnSu.s:3627   .text.RTC_Bcd2ToByte:0000000000000000 $t
/var/folders/vr/85797ndx6jd_r3n_lsprlrj40000gn/T//ccWMqnSu.s:3635   .text.RTC_Bcd2ToByte:0000000000000000 RTC_Bcd2ToByte

UNDEFINED SYMBOLS
HAL_GetTick
ARM GAS  /var/folders/vr/85797ndx6jd_r3n_lsprlrj40000gn/T//ccWMqnSu.s 			page 112


